ARM GAS  /tmp/cc7nahFA.s 			page 1


   1              		.cpu cortex-m4
   2              		.arch armv7e-m
   3              		.fpu fpv4-sp-d16
   4              		.eabi_attribute 27, 1
   5              		.eabi_attribute 28, 1
   6              		.eabi_attribute 20, 1
   7              		.eabi_attribute 21, 1
   8              		.eabi_attribute 23, 3
   9              		.eabi_attribute 24, 1
  10              		.eabi_attribute 25, 1
  11              		.eabi_attribute 26, 1
  12              		.eabi_attribute 30, 1
  13              		.eabi_attribute 34, 1
  14              		.eabi_attribute 18, 4
  15              		.file	"stm32f4xx_hal_sdram.c"
  16              		.text
  17              	.Ltext0:
  18              		.cfi_sections	.debug_frame
  19              		.file 1 "Drivers/STM32F4xx_HAL_Driver/Src/stm32f4xx_hal_sdram.c"
  20              		.section	.text.HAL_SDRAM_MspInit,"ax",%progbits
  21              		.align	1
  22              		.weak	HAL_SDRAM_MspInit
  23              		.syntax unified
  24              		.thumb
  25              		.thumb_func
  27              	HAL_SDRAM_MspInit:
  28              	.LVL0:
  29              	.LFB136:
   1:Drivers/STM32F4xx_HAL_Driver/Src/stm32f4xx_hal_sdram.c **** /**
   2:Drivers/STM32F4xx_HAL_Driver/Src/stm32f4xx_hal_sdram.c ****   ******************************************************************************
   3:Drivers/STM32F4xx_HAL_Driver/Src/stm32f4xx_hal_sdram.c ****   * @file    stm32f4xx_hal_sdram.c
   4:Drivers/STM32F4xx_HAL_Driver/Src/stm32f4xx_hal_sdram.c ****   * @author  MCD Application Team
   5:Drivers/STM32F4xx_HAL_Driver/Src/stm32f4xx_hal_sdram.c ****   * @brief   SDRAM HAL module driver.
   6:Drivers/STM32F4xx_HAL_Driver/Src/stm32f4xx_hal_sdram.c ****   *          This file provides a generic firmware to drive SDRAM memories mounted
   7:Drivers/STM32F4xx_HAL_Driver/Src/stm32f4xx_hal_sdram.c ****   *          as external device.
   8:Drivers/STM32F4xx_HAL_Driver/Src/stm32f4xx_hal_sdram.c ****   *
   9:Drivers/STM32F4xx_HAL_Driver/Src/stm32f4xx_hal_sdram.c ****   ******************************************************************************
  10:Drivers/STM32F4xx_HAL_Driver/Src/stm32f4xx_hal_sdram.c ****   * @attention
  11:Drivers/STM32F4xx_HAL_Driver/Src/stm32f4xx_hal_sdram.c ****   *
  12:Drivers/STM32F4xx_HAL_Driver/Src/stm32f4xx_hal_sdram.c ****   * Copyright (c) 2016 STMicroelectronics.
  13:Drivers/STM32F4xx_HAL_Driver/Src/stm32f4xx_hal_sdram.c ****   * All rights reserved.
  14:Drivers/STM32F4xx_HAL_Driver/Src/stm32f4xx_hal_sdram.c ****   *
  15:Drivers/STM32F4xx_HAL_Driver/Src/stm32f4xx_hal_sdram.c ****   * This software is licensed under terms that can be found in the LICENSE file
  16:Drivers/STM32F4xx_HAL_Driver/Src/stm32f4xx_hal_sdram.c ****   * in the root directory of this software component.
  17:Drivers/STM32F4xx_HAL_Driver/Src/stm32f4xx_hal_sdram.c ****   * If no LICENSE file comes with this software, it is provided AS-IS.
  18:Drivers/STM32F4xx_HAL_Driver/Src/stm32f4xx_hal_sdram.c ****   *
  19:Drivers/STM32F4xx_HAL_Driver/Src/stm32f4xx_hal_sdram.c ****   ******************************************************************************
  20:Drivers/STM32F4xx_HAL_Driver/Src/stm32f4xx_hal_sdram.c ****   @verbatim
  21:Drivers/STM32F4xx_HAL_Driver/Src/stm32f4xx_hal_sdram.c ****   ==============================================================================
  22:Drivers/STM32F4xx_HAL_Driver/Src/stm32f4xx_hal_sdram.c ****                        ##### How to use this driver #####
  23:Drivers/STM32F4xx_HAL_Driver/Src/stm32f4xx_hal_sdram.c ****   ==============================================================================
  24:Drivers/STM32F4xx_HAL_Driver/Src/stm32f4xx_hal_sdram.c ****   [..]
  25:Drivers/STM32F4xx_HAL_Driver/Src/stm32f4xx_hal_sdram.c ****     This driver is a generic layered driver which contains a set of APIs used to
  26:Drivers/STM32F4xx_HAL_Driver/Src/stm32f4xx_hal_sdram.c ****     control SDRAM memories. It uses the FMC layer functions to interface
  27:Drivers/STM32F4xx_HAL_Driver/Src/stm32f4xx_hal_sdram.c ****     with SDRAM devices.
  28:Drivers/STM32F4xx_HAL_Driver/Src/stm32f4xx_hal_sdram.c ****     The following sequence should be followed to configure the FMC to interface
  29:Drivers/STM32F4xx_HAL_Driver/Src/stm32f4xx_hal_sdram.c ****     with SDRAM memories:
ARM GAS  /tmp/cc7nahFA.s 			page 2


  30:Drivers/STM32F4xx_HAL_Driver/Src/stm32f4xx_hal_sdram.c **** 
  31:Drivers/STM32F4xx_HAL_Driver/Src/stm32f4xx_hal_sdram.c ****    (#) Declare a SDRAM_HandleTypeDef handle structure, for example:
  32:Drivers/STM32F4xx_HAL_Driver/Src/stm32f4xx_hal_sdram.c ****           SDRAM_HandleTypeDef  hsdram
  33:Drivers/STM32F4xx_HAL_Driver/Src/stm32f4xx_hal_sdram.c **** 
  34:Drivers/STM32F4xx_HAL_Driver/Src/stm32f4xx_hal_sdram.c ****        (++) Fill the SDRAM_HandleTypeDef handle "Init" field with the allowed
  35:Drivers/STM32F4xx_HAL_Driver/Src/stm32f4xx_hal_sdram.c ****             values of the structure member.
  36:Drivers/STM32F4xx_HAL_Driver/Src/stm32f4xx_hal_sdram.c **** 
  37:Drivers/STM32F4xx_HAL_Driver/Src/stm32f4xx_hal_sdram.c ****        (++) Fill the SDRAM_HandleTypeDef handle "Instance" field with a predefined
  38:Drivers/STM32F4xx_HAL_Driver/Src/stm32f4xx_hal_sdram.c ****             base register instance for NOR or SDRAM device
  39:Drivers/STM32F4xx_HAL_Driver/Src/stm32f4xx_hal_sdram.c **** 
  40:Drivers/STM32F4xx_HAL_Driver/Src/stm32f4xx_hal_sdram.c ****    (#) Declare a FMC_SDRAM_TimingTypeDef structure; for example:
  41:Drivers/STM32F4xx_HAL_Driver/Src/stm32f4xx_hal_sdram.c ****           FMC_SDRAM_TimingTypeDef  Timing;
  42:Drivers/STM32F4xx_HAL_Driver/Src/stm32f4xx_hal_sdram.c ****       and fill its fields with the allowed values of the structure member.
  43:Drivers/STM32F4xx_HAL_Driver/Src/stm32f4xx_hal_sdram.c **** 
  44:Drivers/STM32F4xx_HAL_Driver/Src/stm32f4xx_hal_sdram.c ****    (#) Initialize the SDRAM Controller by calling the function HAL_SDRAM_Init(). This function
  45:Drivers/STM32F4xx_HAL_Driver/Src/stm32f4xx_hal_sdram.c ****        performs the following sequence:
  46:Drivers/STM32F4xx_HAL_Driver/Src/stm32f4xx_hal_sdram.c **** 
  47:Drivers/STM32F4xx_HAL_Driver/Src/stm32f4xx_hal_sdram.c ****        (##) MSP hardware layer configuration using the function HAL_SDRAM_MspInit()
  48:Drivers/STM32F4xx_HAL_Driver/Src/stm32f4xx_hal_sdram.c ****        (##) Control register configuration using the FMC SDRAM interface function
  49:Drivers/STM32F4xx_HAL_Driver/Src/stm32f4xx_hal_sdram.c ****             FMC_SDRAM_Init()
  50:Drivers/STM32F4xx_HAL_Driver/Src/stm32f4xx_hal_sdram.c ****        (##) Timing register configuration using the FMC SDRAM interface function
  51:Drivers/STM32F4xx_HAL_Driver/Src/stm32f4xx_hal_sdram.c ****             FMC_SDRAM_Timing_Init()
  52:Drivers/STM32F4xx_HAL_Driver/Src/stm32f4xx_hal_sdram.c ****        (##) Program the SDRAM external device by applying its initialization sequence
  53:Drivers/STM32F4xx_HAL_Driver/Src/stm32f4xx_hal_sdram.c ****             according to the device plugged in your hardware. This step is mandatory
  54:Drivers/STM32F4xx_HAL_Driver/Src/stm32f4xx_hal_sdram.c ****             for accessing the SDRAM device.
  55:Drivers/STM32F4xx_HAL_Driver/Src/stm32f4xx_hal_sdram.c **** 
  56:Drivers/STM32F4xx_HAL_Driver/Src/stm32f4xx_hal_sdram.c ****    (#) At this stage you can perform read/write accesses from/to the memory connected
  57:Drivers/STM32F4xx_HAL_Driver/Src/stm32f4xx_hal_sdram.c ****        to the SDRAM Bank. You can perform either polling or DMA transfer using the
  58:Drivers/STM32F4xx_HAL_Driver/Src/stm32f4xx_hal_sdram.c ****        following APIs:
  59:Drivers/STM32F4xx_HAL_Driver/Src/stm32f4xx_hal_sdram.c ****        (++) HAL_SDRAM_Read()/HAL_SDRAM_Write() for polling read/write access
  60:Drivers/STM32F4xx_HAL_Driver/Src/stm32f4xx_hal_sdram.c ****        (++) HAL_SDRAM_Read_DMA()/HAL_SDRAM_Write_DMA() for DMA read/write transfer
  61:Drivers/STM32F4xx_HAL_Driver/Src/stm32f4xx_hal_sdram.c **** 
  62:Drivers/STM32F4xx_HAL_Driver/Src/stm32f4xx_hal_sdram.c ****    (#) You can also control the SDRAM device by calling the control APIs HAL_SDRAM_WriteOperation_E
  63:Drivers/STM32F4xx_HAL_Driver/Src/stm32f4xx_hal_sdram.c ****        HAL_SDRAM_WriteOperation_Disable() to respectively enable/disable the SDRAM write operation 
  64:Drivers/STM32F4xx_HAL_Driver/Src/stm32f4xx_hal_sdram.c ****        the function HAL_SDRAM_SendCommand() to send a specified command to the SDRAM
  65:Drivers/STM32F4xx_HAL_Driver/Src/stm32f4xx_hal_sdram.c ****        device. The command to be sent must be configured with the FMC_SDRAM_CommandTypeDef
  66:Drivers/STM32F4xx_HAL_Driver/Src/stm32f4xx_hal_sdram.c ****        structure.
  67:Drivers/STM32F4xx_HAL_Driver/Src/stm32f4xx_hal_sdram.c **** 
  68:Drivers/STM32F4xx_HAL_Driver/Src/stm32f4xx_hal_sdram.c ****    (#) You can continuously monitor the SDRAM device HAL state by calling the function
  69:Drivers/STM32F4xx_HAL_Driver/Src/stm32f4xx_hal_sdram.c ****        HAL_SDRAM_GetState()
  70:Drivers/STM32F4xx_HAL_Driver/Src/stm32f4xx_hal_sdram.c **** 
  71:Drivers/STM32F4xx_HAL_Driver/Src/stm32f4xx_hal_sdram.c ****    *** Callback registration ***
  72:Drivers/STM32F4xx_HAL_Driver/Src/stm32f4xx_hal_sdram.c ****     =============================================
  73:Drivers/STM32F4xx_HAL_Driver/Src/stm32f4xx_hal_sdram.c ****     [..]
  74:Drivers/STM32F4xx_HAL_Driver/Src/stm32f4xx_hal_sdram.c ****       The compilation define  USE_HAL_SDRAM_REGISTER_CALLBACKS when set to 1
  75:Drivers/STM32F4xx_HAL_Driver/Src/stm32f4xx_hal_sdram.c ****       allows the user to configure dynamically the driver callbacks.
  76:Drivers/STM32F4xx_HAL_Driver/Src/stm32f4xx_hal_sdram.c **** 
  77:Drivers/STM32F4xx_HAL_Driver/Src/stm32f4xx_hal_sdram.c ****       Use Functions HAL_SDRAM_RegisterCallback() to register a user callback,
  78:Drivers/STM32F4xx_HAL_Driver/Src/stm32f4xx_hal_sdram.c ****       it allows to register following callbacks:
  79:Drivers/STM32F4xx_HAL_Driver/Src/stm32f4xx_hal_sdram.c ****         (+) MspInitCallback    : SDRAM MspInit.
  80:Drivers/STM32F4xx_HAL_Driver/Src/stm32f4xx_hal_sdram.c ****         (+) MspDeInitCallback  : SDRAM MspDeInit.
  81:Drivers/STM32F4xx_HAL_Driver/Src/stm32f4xx_hal_sdram.c ****       This function takes as parameters the HAL peripheral handle, the Callback ID
  82:Drivers/STM32F4xx_HAL_Driver/Src/stm32f4xx_hal_sdram.c ****       and a pointer to the user callback function.
  83:Drivers/STM32F4xx_HAL_Driver/Src/stm32f4xx_hal_sdram.c **** 
  84:Drivers/STM32F4xx_HAL_Driver/Src/stm32f4xx_hal_sdram.c ****       Use function HAL_SDRAM_UnRegisterCallback() to reset a callback to the default
  85:Drivers/STM32F4xx_HAL_Driver/Src/stm32f4xx_hal_sdram.c ****       weak (overridden) function. It allows to reset following callbacks:
  86:Drivers/STM32F4xx_HAL_Driver/Src/stm32f4xx_hal_sdram.c ****         (+) MspInitCallback    : SDRAM MspInit.
ARM GAS  /tmp/cc7nahFA.s 			page 3


  87:Drivers/STM32F4xx_HAL_Driver/Src/stm32f4xx_hal_sdram.c ****         (+) MspDeInitCallback  : SDRAM MspDeInit.
  88:Drivers/STM32F4xx_HAL_Driver/Src/stm32f4xx_hal_sdram.c ****       This function) takes as parameters the HAL peripheral handle and the Callback ID.
  89:Drivers/STM32F4xx_HAL_Driver/Src/stm32f4xx_hal_sdram.c **** 
  90:Drivers/STM32F4xx_HAL_Driver/Src/stm32f4xx_hal_sdram.c ****       By default, after the HAL_SDRAM_Init and if the state is HAL_SDRAM_STATE_RESET
  91:Drivers/STM32F4xx_HAL_Driver/Src/stm32f4xx_hal_sdram.c ****       all callbacks are reset to the corresponding legacy weak (overridden) functions.
  92:Drivers/STM32F4xx_HAL_Driver/Src/stm32f4xx_hal_sdram.c ****       Exception done for MspInit and MspDeInit callbacks that are respectively
  93:Drivers/STM32F4xx_HAL_Driver/Src/stm32f4xx_hal_sdram.c ****       reset to the legacy weak (overridden) functions in the HAL_SDRAM_Init
  94:Drivers/STM32F4xx_HAL_Driver/Src/stm32f4xx_hal_sdram.c ****       and  HAL_SDRAM_DeInit only when these callbacks are null (not registered beforehand).
  95:Drivers/STM32F4xx_HAL_Driver/Src/stm32f4xx_hal_sdram.c ****       If not, MspInit or MspDeInit are not null, the HAL_SDRAM_Init and HAL_SDRAM_DeInit
  96:Drivers/STM32F4xx_HAL_Driver/Src/stm32f4xx_hal_sdram.c ****       keep and use the user MspInit/MspDeInit callbacks (registered beforehand)
  97:Drivers/STM32F4xx_HAL_Driver/Src/stm32f4xx_hal_sdram.c **** 
  98:Drivers/STM32F4xx_HAL_Driver/Src/stm32f4xx_hal_sdram.c ****       Callbacks can be registered/unregistered in READY state only.
  99:Drivers/STM32F4xx_HAL_Driver/Src/stm32f4xx_hal_sdram.c ****       Exception done for MspInit/MspDeInit callbacks that can be registered/unregistered
 100:Drivers/STM32F4xx_HAL_Driver/Src/stm32f4xx_hal_sdram.c ****       in READY or RESET state, thus registered (user) MspInit/DeInit callbacks can be used
 101:Drivers/STM32F4xx_HAL_Driver/Src/stm32f4xx_hal_sdram.c ****       during the Init/DeInit.
 102:Drivers/STM32F4xx_HAL_Driver/Src/stm32f4xx_hal_sdram.c ****       In that case first register the MspInit/MspDeInit user callbacks
 103:Drivers/STM32F4xx_HAL_Driver/Src/stm32f4xx_hal_sdram.c ****       using HAL_SDRAM_RegisterCallback before calling HAL_SDRAM_DeInit
 104:Drivers/STM32F4xx_HAL_Driver/Src/stm32f4xx_hal_sdram.c ****       or HAL_SDRAM_Init function.
 105:Drivers/STM32F4xx_HAL_Driver/Src/stm32f4xx_hal_sdram.c **** 
 106:Drivers/STM32F4xx_HAL_Driver/Src/stm32f4xx_hal_sdram.c ****       When The compilation define USE_HAL_SDRAM_REGISTER_CALLBACKS is set to 0 or
 107:Drivers/STM32F4xx_HAL_Driver/Src/stm32f4xx_hal_sdram.c ****       not defined, the callback registering feature is not available
 108:Drivers/STM32F4xx_HAL_Driver/Src/stm32f4xx_hal_sdram.c ****       and weak (overridden) callbacks are used.
 109:Drivers/STM32F4xx_HAL_Driver/Src/stm32f4xx_hal_sdram.c **** 
 110:Drivers/STM32F4xx_HAL_Driver/Src/stm32f4xx_hal_sdram.c ****   @endverbatim
 111:Drivers/STM32F4xx_HAL_Driver/Src/stm32f4xx_hal_sdram.c ****   ******************************************************************************
 112:Drivers/STM32F4xx_HAL_Driver/Src/stm32f4xx_hal_sdram.c ****   */
 113:Drivers/STM32F4xx_HAL_Driver/Src/stm32f4xx_hal_sdram.c **** 
 114:Drivers/STM32F4xx_HAL_Driver/Src/stm32f4xx_hal_sdram.c **** /* Includes ------------------------------------------------------------------*/
 115:Drivers/STM32F4xx_HAL_Driver/Src/stm32f4xx_hal_sdram.c **** #include "stm32f4xx_hal.h"
 116:Drivers/STM32F4xx_HAL_Driver/Src/stm32f4xx_hal_sdram.c **** 
 117:Drivers/STM32F4xx_HAL_Driver/Src/stm32f4xx_hal_sdram.c **** #if defined(FMC_Bank5_6)
 118:Drivers/STM32F4xx_HAL_Driver/Src/stm32f4xx_hal_sdram.c **** 
 119:Drivers/STM32F4xx_HAL_Driver/Src/stm32f4xx_hal_sdram.c **** /** @addtogroup STM32F4xx_HAL_Driver
 120:Drivers/STM32F4xx_HAL_Driver/Src/stm32f4xx_hal_sdram.c ****   * @{
 121:Drivers/STM32F4xx_HAL_Driver/Src/stm32f4xx_hal_sdram.c ****   */
 122:Drivers/STM32F4xx_HAL_Driver/Src/stm32f4xx_hal_sdram.c **** 
 123:Drivers/STM32F4xx_HAL_Driver/Src/stm32f4xx_hal_sdram.c **** #ifdef HAL_SDRAM_MODULE_ENABLED
 124:Drivers/STM32F4xx_HAL_Driver/Src/stm32f4xx_hal_sdram.c **** 
 125:Drivers/STM32F4xx_HAL_Driver/Src/stm32f4xx_hal_sdram.c **** /** @defgroup SDRAM SDRAM
 126:Drivers/STM32F4xx_HAL_Driver/Src/stm32f4xx_hal_sdram.c ****   * @brief SDRAM driver modules
 127:Drivers/STM32F4xx_HAL_Driver/Src/stm32f4xx_hal_sdram.c ****   * @{
 128:Drivers/STM32F4xx_HAL_Driver/Src/stm32f4xx_hal_sdram.c ****   */
 129:Drivers/STM32F4xx_HAL_Driver/Src/stm32f4xx_hal_sdram.c **** 
 130:Drivers/STM32F4xx_HAL_Driver/Src/stm32f4xx_hal_sdram.c **** /* Private typedef -----------------------------------------------------------*/
 131:Drivers/STM32F4xx_HAL_Driver/Src/stm32f4xx_hal_sdram.c **** /* Private define ------------------------------------------------------------*/
 132:Drivers/STM32F4xx_HAL_Driver/Src/stm32f4xx_hal_sdram.c **** /* Private macro -------------------------------------------------------------*/
 133:Drivers/STM32F4xx_HAL_Driver/Src/stm32f4xx_hal_sdram.c **** /* Private variables ---------------------------------------------------------*/
 134:Drivers/STM32F4xx_HAL_Driver/Src/stm32f4xx_hal_sdram.c **** /* Private function prototypes -----------------------------------------------*/
 135:Drivers/STM32F4xx_HAL_Driver/Src/stm32f4xx_hal_sdram.c **** /** @addtogroup SDRAM_Private_Functions SDRAM Private Functions
 136:Drivers/STM32F4xx_HAL_Driver/Src/stm32f4xx_hal_sdram.c ****   * @{
 137:Drivers/STM32F4xx_HAL_Driver/Src/stm32f4xx_hal_sdram.c ****   */
 138:Drivers/STM32F4xx_HAL_Driver/Src/stm32f4xx_hal_sdram.c **** static void SDRAM_DMACplt(DMA_HandleTypeDef *hdma);
 139:Drivers/STM32F4xx_HAL_Driver/Src/stm32f4xx_hal_sdram.c **** static void SDRAM_DMACpltProt(DMA_HandleTypeDef *hdma);
 140:Drivers/STM32F4xx_HAL_Driver/Src/stm32f4xx_hal_sdram.c **** static void SDRAM_DMAError(DMA_HandleTypeDef *hdma);
 141:Drivers/STM32F4xx_HAL_Driver/Src/stm32f4xx_hal_sdram.c **** /**
 142:Drivers/STM32F4xx_HAL_Driver/Src/stm32f4xx_hal_sdram.c ****   * @}
 143:Drivers/STM32F4xx_HAL_Driver/Src/stm32f4xx_hal_sdram.c ****   */
ARM GAS  /tmp/cc7nahFA.s 			page 4


 144:Drivers/STM32F4xx_HAL_Driver/Src/stm32f4xx_hal_sdram.c **** 
 145:Drivers/STM32F4xx_HAL_Driver/Src/stm32f4xx_hal_sdram.c **** /* Exported functions --------------------------------------------------------*/
 146:Drivers/STM32F4xx_HAL_Driver/Src/stm32f4xx_hal_sdram.c **** /** @defgroup SDRAM_Exported_Functions SDRAM Exported Functions
 147:Drivers/STM32F4xx_HAL_Driver/Src/stm32f4xx_hal_sdram.c ****   * @{
 148:Drivers/STM32F4xx_HAL_Driver/Src/stm32f4xx_hal_sdram.c ****   */
 149:Drivers/STM32F4xx_HAL_Driver/Src/stm32f4xx_hal_sdram.c **** 
 150:Drivers/STM32F4xx_HAL_Driver/Src/stm32f4xx_hal_sdram.c **** /** @defgroup SDRAM_Exported_Functions_Group1 Initialization and de-initialization functions
 151:Drivers/STM32F4xx_HAL_Driver/Src/stm32f4xx_hal_sdram.c ****   * @brief    Initialization and Configuration functions
 152:Drivers/STM32F4xx_HAL_Driver/Src/stm32f4xx_hal_sdram.c ****   *
 153:Drivers/STM32F4xx_HAL_Driver/Src/stm32f4xx_hal_sdram.c ****   @verbatim
 154:Drivers/STM32F4xx_HAL_Driver/Src/stm32f4xx_hal_sdram.c ****   ==============================================================================
 155:Drivers/STM32F4xx_HAL_Driver/Src/stm32f4xx_hal_sdram.c ****            ##### SDRAM Initialization and de_initialization functions #####
 156:Drivers/STM32F4xx_HAL_Driver/Src/stm32f4xx_hal_sdram.c ****   ==============================================================================
 157:Drivers/STM32F4xx_HAL_Driver/Src/stm32f4xx_hal_sdram.c ****   [..]
 158:Drivers/STM32F4xx_HAL_Driver/Src/stm32f4xx_hal_sdram.c ****     This section provides functions allowing to initialize/de-initialize
 159:Drivers/STM32F4xx_HAL_Driver/Src/stm32f4xx_hal_sdram.c ****     the SDRAM memory
 160:Drivers/STM32F4xx_HAL_Driver/Src/stm32f4xx_hal_sdram.c **** 
 161:Drivers/STM32F4xx_HAL_Driver/Src/stm32f4xx_hal_sdram.c **** @endverbatim
 162:Drivers/STM32F4xx_HAL_Driver/Src/stm32f4xx_hal_sdram.c ****   * @{
 163:Drivers/STM32F4xx_HAL_Driver/Src/stm32f4xx_hal_sdram.c ****   */
 164:Drivers/STM32F4xx_HAL_Driver/Src/stm32f4xx_hal_sdram.c **** 
 165:Drivers/STM32F4xx_HAL_Driver/Src/stm32f4xx_hal_sdram.c **** /**
 166:Drivers/STM32F4xx_HAL_Driver/Src/stm32f4xx_hal_sdram.c ****   * @brief  Performs the SDRAM device initialization sequence.
 167:Drivers/STM32F4xx_HAL_Driver/Src/stm32f4xx_hal_sdram.c ****   * @param  hsdram pointer to a SDRAM_HandleTypeDef structure that contains
 168:Drivers/STM32F4xx_HAL_Driver/Src/stm32f4xx_hal_sdram.c ****   *                the configuration information for SDRAM module.
 169:Drivers/STM32F4xx_HAL_Driver/Src/stm32f4xx_hal_sdram.c ****   * @param  Timing Pointer to SDRAM control timing structure
 170:Drivers/STM32F4xx_HAL_Driver/Src/stm32f4xx_hal_sdram.c ****   * @retval HAL status
 171:Drivers/STM32F4xx_HAL_Driver/Src/stm32f4xx_hal_sdram.c ****   */
 172:Drivers/STM32F4xx_HAL_Driver/Src/stm32f4xx_hal_sdram.c **** HAL_StatusTypeDef HAL_SDRAM_Init(SDRAM_HandleTypeDef *hsdram, FMC_SDRAM_TimingTypeDef *Timing)
 173:Drivers/STM32F4xx_HAL_Driver/Src/stm32f4xx_hal_sdram.c **** {
 174:Drivers/STM32F4xx_HAL_Driver/Src/stm32f4xx_hal_sdram.c ****   /* Check the SDRAM handle parameter */
 175:Drivers/STM32F4xx_HAL_Driver/Src/stm32f4xx_hal_sdram.c ****   if (hsdram == NULL)
 176:Drivers/STM32F4xx_HAL_Driver/Src/stm32f4xx_hal_sdram.c ****   {
 177:Drivers/STM32F4xx_HAL_Driver/Src/stm32f4xx_hal_sdram.c ****     return HAL_ERROR;
 178:Drivers/STM32F4xx_HAL_Driver/Src/stm32f4xx_hal_sdram.c ****   }
 179:Drivers/STM32F4xx_HAL_Driver/Src/stm32f4xx_hal_sdram.c **** 
 180:Drivers/STM32F4xx_HAL_Driver/Src/stm32f4xx_hal_sdram.c ****   if (hsdram->State == HAL_SDRAM_STATE_RESET)
 181:Drivers/STM32F4xx_HAL_Driver/Src/stm32f4xx_hal_sdram.c ****   {
 182:Drivers/STM32F4xx_HAL_Driver/Src/stm32f4xx_hal_sdram.c ****     /* Allocate lock resource and initialize it */
 183:Drivers/STM32F4xx_HAL_Driver/Src/stm32f4xx_hal_sdram.c ****     hsdram->Lock = HAL_UNLOCKED;
 184:Drivers/STM32F4xx_HAL_Driver/Src/stm32f4xx_hal_sdram.c **** #if (USE_HAL_SDRAM_REGISTER_CALLBACKS == 1)
 185:Drivers/STM32F4xx_HAL_Driver/Src/stm32f4xx_hal_sdram.c ****     if (hsdram->MspInitCallback == NULL)
 186:Drivers/STM32F4xx_HAL_Driver/Src/stm32f4xx_hal_sdram.c ****     {
 187:Drivers/STM32F4xx_HAL_Driver/Src/stm32f4xx_hal_sdram.c ****       hsdram->MspInitCallback = HAL_SDRAM_MspInit;
 188:Drivers/STM32F4xx_HAL_Driver/Src/stm32f4xx_hal_sdram.c ****     }
 189:Drivers/STM32F4xx_HAL_Driver/Src/stm32f4xx_hal_sdram.c ****     hsdram->RefreshErrorCallback = HAL_SDRAM_RefreshErrorCallback;
 190:Drivers/STM32F4xx_HAL_Driver/Src/stm32f4xx_hal_sdram.c ****     hsdram->DmaXferCpltCallback = HAL_SDRAM_DMA_XferCpltCallback;
 191:Drivers/STM32F4xx_HAL_Driver/Src/stm32f4xx_hal_sdram.c ****     hsdram->DmaXferErrorCallback = HAL_SDRAM_DMA_XferErrorCallback;
 192:Drivers/STM32F4xx_HAL_Driver/Src/stm32f4xx_hal_sdram.c **** 
 193:Drivers/STM32F4xx_HAL_Driver/Src/stm32f4xx_hal_sdram.c ****     /* Init the low level hardware */
 194:Drivers/STM32F4xx_HAL_Driver/Src/stm32f4xx_hal_sdram.c ****     hsdram->MspInitCallback(hsdram);
 195:Drivers/STM32F4xx_HAL_Driver/Src/stm32f4xx_hal_sdram.c **** #else
 196:Drivers/STM32F4xx_HAL_Driver/Src/stm32f4xx_hal_sdram.c ****     /* Initialize the low level hardware (MSP) */
 197:Drivers/STM32F4xx_HAL_Driver/Src/stm32f4xx_hal_sdram.c ****     HAL_SDRAM_MspInit(hsdram);
 198:Drivers/STM32F4xx_HAL_Driver/Src/stm32f4xx_hal_sdram.c **** #endif /* USE_HAL_SDRAM_REGISTER_CALLBACKS */
 199:Drivers/STM32F4xx_HAL_Driver/Src/stm32f4xx_hal_sdram.c ****   }
 200:Drivers/STM32F4xx_HAL_Driver/Src/stm32f4xx_hal_sdram.c **** 
ARM GAS  /tmp/cc7nahFA.s 			page 5


 201:Drivers/STM32F4xx_HAL_Driver/Src/stm32f4xx_hal_sdram.c ****   /* Initialize the SDRAM controller state */
 202:Drivers/STM32F4xx_HAL_Driver/Src/stm32f4xx_hal_sdram.c ****   hsdram->State = HAL_SDRAM_STATE_BUSY;
 203:Drivers/STM32F4xx_HAL_Driver/Src/stm32f4xx_hal_sdram.c **** 
 204:Drivers/STM32F4xx_HAL_Driver/Src/stm32f4xx_hal_sdram.c ****   /* Initialize SDRAM control Interface */
 205:Drivers/STM32F4xx_HAL_Driver/Src/stm32f4xx_hal_sdram.c ****   (void)FMC_SDRAM_Init(hsdram->Instance, &(hsdram->Init));
 206:Drivers/STM32F4xx_HAL_Driver/Src/stm32f4xx_hal_sdram.c **** 
 207:Drivers/STM32F4xx_HAL_Driver/Src/stm32f4xx_hal_sdram.c ****   /* Initialize SDRAM timing Interface */
 208:Drivers/STM32F4xx_HAL_Driver/Src/stm32f4xx_hal_sdram.c ****   (void)FMC_SDRAM_Timing_Init(hsdram->Instance, Timing, hsdram->Init.SDBank);
 209:Drivers/STM32F4xx_HAL_Driver/Src/stm32f4xx_hal_sdram.c ****   /* Update the SDRAM controller state */
 210:Drivers/STM32F4xx_HAL_Driver/Src/stm32f4xx_hal_sdram.c ****   hsdram->State = HAL_SDRAM_STATE_READY;
 211:Drivers/STM32F4xx_HAL_Driver/Src/stm32f4xx_hal_sdram.c **** 
 212:Drivers/STM32F4xx_HAL_Driver/Src/stm32f4xx_hal_sdram.c ****   return HAL_OK;
 213:Drivers/STM32F4xx_HAL_Driver/Src/stm32f4xx_hal_sdram.c **** }
 214:Drivers/STM32F4xx_HAL_Driver/Src/stm32f4xx_hal_sdram.c **** 
 215:Drivers/STM32F4xx_HAL_Driver/Src/stm32f4xx_hal_sdram.c **** /**
 216:Drivers/STM32F4xx_HAL_Driver/Src/stm32f4xx_hal_sdram.c ****   * @brief  Perform the SDRAM device initialization sequence.
 217:Drivers/STM32F4xx_HAL_Driver/Src/stm32f4xx_hal_sdram.c ****   * @param  hsdram pointer to a SDRAM_HandleTypeDef structure that contains
 218:Drivers/STM32F4xx_HAL_Driver/Src/stm32f4xx_hal_sdram.c ****   *                the configuration information for SDRAM module.
 219:Drivers/STM32F4xx_HAL_Driver/Src/stm32f4xx_hal_sdram.c ****   * @retval HAL status
 220:Drivers/STM32F4xx_HAL_Driver/Src/stm32f4xx_hal_sdram.c ****   */
 221:Drivers/STM32F4xx_HAL_Driver/Src/stm32f4xx_hal_sdram.c **** HAL_StatusTypeDef HAL_SDRAM_DeInit(SDRAM_HandleTypeDef *hsdram)
 222:Drivers/STM32F4xx_HAL_Driver/Src/stm32f4xx_hal_sdram.c **** {
 223:Drivers/STM32F4xx_HAL_Driver/Src/stm32f4xx_hal_sdram.c **** #if (USE_HAL_SDRAM_REGISTER_CALLBACKS == 1)
 224:Drivers/STM32F4xx_HAL_Driver/Src/stm32f4xx_hal_sdram.c ****   if (hsdram->MspDeInitCallback == NULL)
 225:Drivers/STM32F4xx_HAL_Driver/Src/stm32f4xx_hal_sdram.c ****   {
 226:Drivers/STM32F4xx_HAL_Driver/Src/stm32f4xx_hal_sdram.c ****     hsdram->MspDeInitCallback = HAL_SDRAM_MspDeInit;
 227:Drivers/STM32F4xx_HAL_Driver/Src/stm32f4xx_hal_sdram.c ****   }
 228:Drivers/STM32F4xx_HAL_Driver/Src/stm32f4xx_hal_sdram.c **** 
 229:Drivers/STM32F4xx_HAL_Driver/Src/stm32f4xx_hal_sdram.c ****   /* DeInit the low level hardware */
 230:Drivers/STM32F4xx_HAL_Driver/Src/stm32f4xx_hal_sdram.c ****   hsdram->MspDeInitCallback(hsdram);
 231:Drivers/STM32F4xx_HAL_Driver/Src/stm32f4xx_hal_sdram.c **** #else
 232:Drivers/STM32F4xx_HAL_Driver/Src/stm32f4xx_hal_sdram.c ****   /* Initialize the low level hardware (MSP) */
 233:Drivers/STM32F4xx_HAL_Driver/Src/stm32f4xx_hal_sdram.c ****   HAL_SDRAM_MspDeInit(hsdram);
 234:Drivers/STM32F4xx_HAL_Driver/Src/stm32f4xx_hal_sdram.c **** #endif /* USE_HAL_SDRAM_REGISTER_CALLBACKS */
 235:Drivers/STM32F4xx_HAL_Driver/Src/stm32f4xx_hal_sdram.c **** 
 236:Drivers/STM32F4xx_HAL_Driver/Src/stm32f4xx_hal_sdram.c ****   /* Configure the SDRAM registers with their reset values */
 237:Drivers/STM32F4xx_HAL_Driver/Src/stm32f4xx_hal_sdram.c ****   (void)FMC_SDRAM_DeInit(hsdram->Instance, hsdram->Init.SDBank);
 238:Drivers/STM32F4xx_HAL_Driver/Src/stm32f4xx_hal_sdram.c **** 
 239:Drivers/STM32F4xx_HAL_Driver/Src/stm32f4xx_hal_sdram.c ****   /* Reset the SDRAM controller state */
 240:Drivers/STM32F4xx_HAL_Driver/Src/stm32f4xx_hal_sdram.c ****   hsdram->State = HAL_SDRAM_STATE_RESET;
 241:Drivers/STM32F4xx_HAL_Driver/Src/stm32f4xx_hal_sdram.c **** 
 242:Drivers/STM32F4xx_HAL_Driver/Src/stm32f4xx_hal_sdram.c ****   /* Release Lock */
 243:Drivers/STM32F4xx_HAL_Driver/Src/stm32f4xx_hal_sdram.c ****   __HAL_UNLOCK(hsdram);
 244:Drivers/STM32F4xx_HAL_Driver/Src/stm32f4xx_hal_sdram.c **** 
 245:Drivers/STM32F4xx_HAL_Driver/Src/stm32f4xx_hal_sdram.c ****   return HAL_OK;
 246:Drivers/STM32F4xx_HAL_Driver/Src/stm32f4xx_hal_sdram.c **** }
 247:Drivers/STM32F4xx_HAL_Driver/Src/stm32f4xx_hal_sdram.c **** 
 248:Drivers/STM32F4xx_HAL_Driver/Src/stm32f4xx_hal_sdram.c **** /**
 249:Drivers/STM32F4xx_HAL_Driver/Src/stm32f4xx_hal_sdram.c ****   * @brief  SDRAM MSP Init.
 250:Drivers/STM32F4xx_HAL_Driver/Src/stm32f4xx_hal_sdram.c ****   * @param  hsdram pointer to a SDRAM_HandleTypeDef structure that contains
 251:Drivers/STM32F4xx_HAL_Driver/Src/stm32f4xx_hal_sdram.c ****   *                the configuration information for SDRAM module.
 252:Drivers/STM32F4xx_HAL_Driver/Src/stm32f4xx_hal_sdram.c ****   * @retval None
 253:Drivers/STM32F4xx_HAL_Driver/Src/stm32f4xx_hal_sdram.c ****   */
 254:Drivers/STM32F4xx_HAL_Driver/Src/stm32f4xx_hal_sdram.c **** __weak void HAL_SDRAM_MspInit(SDRAM_HandleTypeDef *hsdram)
 255:Drivers/STM32F4xx_HAL_Driver/Src/stm32f4xx_hal_sdram.c **** {
  30              		.loc 1 255 1 view -0
  31              		.cfi_startproc
ARM GAS  /tmp/cc7nahFA.s 			page 6


  32              		@ args = 0, pretend = 0, frame = 0
  33              		@ frame_needed = 0, uses_anonymous_args = 0
  34              		@ link register save eliminated.
 256:Drivers/STM32F4xx_HAL_Driver/Src/stm32f4xx_hal_sdram.c ****   /* Prevent unused argument(s) compilation warning */
 257:Drivers/STM32F4xx_HAL_Driver/Src/stm32f4xx_hal_sdram.c ****   UNUSED(hsdram);
  35              		.loc 1 257 3 view .LVU1
 258:Drivers/STM32F4xx_HAL_Driver/Src/stm32f4xx_hal_sdram.c **** 
 259:Drivers/STM32F4xx_HAL_Driver/Src/stm32f4xx_hal_sdram.c ****   /* NOTE: This function Should not be modified, when the callback is needed,
 260:Drivers/STM32F4xx_HAL_Driver/Src/stm32f4xx_hal_sdram.c ****             the HAL_SDRAM_MspInit could be implemented in the user file
 261:Drivers/STM32F4xx_HAL_Driver/Src/stm32f4xx_hal_sdram.c ****    */
 262:Drivers/STM32F4xx_HAL_Driver/Src/stm32f4xx_hal_sdram.c **** }
  36              		.loc 1 262 1 is_stmt 0 view .LVU2
  37 0000 7047     		bx	lr
  38              		.cfi_endproc
  39              	.LFE136:
  41              		.section	.text.HAL_SDRAM_Init,"ax",%progbits
  42              		.align	1
  43              		.global	HAL_SDRAM_Init
  44              		.syntax unified
  45              		.thumb
  46              		.thumb_func
  48              	HAL_SDRAM_Init:
  49              	.LVL1:
  50              	.LFB134:
 173:Drivers/STM32F4xx_HAL_Driver/Src/stm32f4xx_hal_sdram.c ****   /* Check the SDRAM handle parameter */
  51              		.loc 1 173 1 is_stmt 1 view -0
  52              		.cfi_startproc
  53              		@ args = 0, pretend = 0, frame = 0
  54              		@ frame_needed = 0, uses_anonymous_args = 0
 175:Drivers/STM32F4xx_HAL_Driver/Src/stm32f4xx_hal_sdram.c ****   {
  55              		.loc 1 175 3 view .LVU4
 175:Drivers/STM32F4xx_HAL_Driver/Src/stm32f4xx_hal_sdram.c ****   {
  56              		.loc 1 175 6 is_stmt 0 view .LVU5
  57 0000 E0B1     		cbz	r0, .L5
 173:Drivers/STM32F4xx_HAL_Driver/Src/stm32f4xx_hal_sdram.c ****   /* Check the SDRAM handle parameter */
  58              		.loc 1 173 1 view .LVU6
  59 0002 38B5     		push	{r3, r4, r5, lr}
  60              	.LCFI0:
  61              		.cfi_def_cfa_offset 16
  62              		.cfi_offset 3, -16
  63              		.cfi_offset 4, -12
  64              		.cfi_offset 5, -8
  65              		.cfi_offset 14, -4
  66 0004 0D46     		mov	r5, r1
  67 0006 0446     		mov	r4, r0
 180:Drivers/STM32F4xx_HAL_Driver/Src/stm32f4xx_hal_sdram.c ****   {
  68              		.loc 1 180 3 is_stmt 1 view .LVU7
 180:Drivers/STM32F4xx_HAL_Driver/Src/stm32f4xx_hal_sdram.c ****   {
  69              		.loc 1 180 13 is_stmt 0 view .LVU8
  70 0008 90F82C30 		ldrb	r3, [r0, #44]	@ zero_extendqisi2
 180:Drivers/STM32F4xx_HAL_Driver/Src/stm32f4xx_hal_sdram.c ****   {
  71              		.loc 1 180 6 view .LVU9
  72 000c 8BB1     		cbz	r3, .L10
  73              	.LVL2:
  74              	.L4:
 202:Drivers/STM32F4xx_HAL_Driver/Src/stm32f4xx_hal_sdram.c **** 
  75              		.loc 1 202 3 is_stmt 1 view .LVU10
ARM GAS  /tmp/cc7nahFA.s 			page 7


 202:Drivers/STM32F4xx_HAL_Driver/Src/stm32f4xx_hal_sdram.c **** 
  76              		.loc 1 202 17 is_stmt 0 view .LVU11
  77 000e 0223     		movs	r3, #2
  78 0010 84F82C30 		strb	r3, [r4, #44]
 205:Drivers/STM32F4xx_HAL_Driver/Src/stm32f4xx_hal_sdram.c **** 
  79              		.loc 1 205 3 is_stmt 1 view .LVU12
 205:Drivers/STM32F4xx_HAL_Driver/Src/stm32f4xx_hal_sdram.c **** 
  80              		.loc 1 205 9 is_stmt 0 view .LVU13
  81 0014 2146     		mov	r1, r4
  82 0016 51F8040B 		ldr	r0, [r1], #4
  83 001a FFF7FEFF 		bl	FMC_SDRAM_Init
  84              	.LVL3:
 208:Drivers/STM32F4xx_HAL_Driver/Src/stm32f4xx_hal_sdram.c ****   /* Update the SDRAM controller state */
  85              		.loc 1 208 3 is_stmt 1 view .LVU14
 208:Drivers/STM32F4xx_HAL_Driver/Src/stm32f4xx_hal_sdram.c ****   /* Update the SDRAM controller state */
  86              		.loc 1 208 9 is_stmt 0 view .LVU15
  87 001e 6268     		ldr	r2, [r4, #4]
  88 0020 2946     		mov	r1, r5
  89 0022 2068     		ldr	r0, [r4]
  90 0024 FFF7FEFF 		bl	FMC_SDRAM_Timing_Init
  91              	.LVL4:
 210:Drivers/STM32F4xx_HAL_Driver/Src/stm32f4xx_hal_sdram.c **** 
  92              		.loc 1 210 3 is_stmt 1 view .LVU16
 210:Drivers/STM32F4xx_HAL_Driver/Src/stm32f4xx_hal_sdram.c **** 
  93              		.loc 1 210 17 is_stmt 0 view .LVU17
  94 0028 0123     		movs	r3, #1
  95 002a 84F82C30 		strb	r3, [r4, #44]
 212:Drivers/STM32F4xx_HAL_Driver/Src/stm32f4xx_hal_sdram.c **** }
  96              		.loc 1 212 3 is_stmt 1 view .LVU18
 212:Drivers/STM32F4xx_HAL_Driver/Src/stm32f4xx_hal_sdram.c **** }
  97              		.loc 1 212 10 is_stmt 0 view .LVU19
  98 002e 0020     		movs	r0, #0
 213:Drivers/STM32F4xx_HAL_Driver/Src/stm32f4xx_hal_sdram.c **** 
  99              		.loc 1 213 1 view .LVU20
 100 0030 38BD     		pop	{r3, r4, r5, pc}
 101              	.LVL5:
 102              	.L10:
 183:Drivers/STM32F4xx_HAL_Driver/Src/stm32f4xx_hal_sdram.c **** #if (USE_HAL_SDRAM_REGISTER_CALLBACKS == 1)
 103              		.loc 1 183 5 is_stmt 1 view .LVU21
 183:Drivers/STM32F4xx_HAL_Driver/Src/stm32f4xx_hal_sdram.c **** #if (USE_HAL_SDRAM_REGISTER_CALLBACKS == 1)
 104              		.loc 1 183 18 is_stmt 0 view .LVU22
 105 0032 80F82D30 		strb	r3, [r0, #45]
 197:Drivers/STM32F4xx_HAL_Driver/Src/stm32f4xx_hal_sdram.c **** #endif /* USE_HAL_SDRAM_REGISTER_CALLBACKS */
 106              		.loc 1 197 5 is_stmt 1 view .LVU23
 107 0036 FFF7FEFF 		bl	HAL_SDRAM_MspInit
 108              	.LVL6:
 197:Drivers/STM32F4xx_HAL_Driver/Src/stm32f4xx_hal_sdram.c **** #endif /* USE_HAL_SDRAM_REGISTER_CALLBACKS */
 109              		.loc 1 197 5 is_stmt 0 view .LVU24
 110 003a E8E7     		b	.L4
 111              	.LVL7:
 112              	.L5:
 113              	.LCFI1:
 114              		.cfi_def_cfa_offset 0
 115              		.cfi_restore 3
 116              		.cfi_restore 4
 117              		.cfi_restore 5
 118              		.cfi_restore 14
ARM GAS  /tmp/cc7nahFA.s 			page 8


 177:Drivers/STM32F4xx_HAL_Driver/Src/stm32f4xx_hal_sdram.c ****   }
 119              		.loc 1 177 12 view .LVU25
 120 003c 0120     		movs	r0, #1
 121              	.LVL8:
 213:Drivers/STM32F4xx_HAL_Driver/Src/stm32f4xx_hal_sdram.c **** 
 122              		.loc 1 213 1 view .LVU26
 123 003e 7047     		bx	lr
 124              		.cfi_endproc
 125              	.LFE134:
 127              		.section	.text.HAL_SDRAM_MspDeInit,"ax",%progbits
 128              		.align	1
 129              		.weak	HAL_SDRAM_MspDeInit
 130              		.syntax unified
 131              		.thumb
 132              		.thumb_func
 134              	HAL_SDRAM_MspDeInit:
 135              	.LVL9:
 136              	.LFB137:
 263:Drivers/STM32F4xx_HAL_Driver/Src/stm32f4xx_hal_sdram.c **** 
 264:Drivers/STM32F4xx_HAL_Driver/Src/stm32f4xx_hal_sdram.c **** /**
 265:Drivers/STM32F4xx_HAL_Driver/Src/stm32f4xx_hal_sdram.c ****   * @brief  SDRAM MSP DeInit.
 266:Drivers/STM32F4xx_HAL_Driver/Src/stm32f4xx_hal_sdram.c ****   * @param  hsdram pointer to a SDRAM_HandleTypeDef structure that contains
 267:Drivers/STM32F4xx_HAL_Driver/Src/stm32f4xx_hal_sdram.c ****   *                the configuration information for SDRAM module.
 268:Drivers/STM32F4xx_HAL_Driver/Src/stm32f4xx_hal_sdram.c ****   * @retval None
 269:Drivers/STM32F4xx_HAL_Driver/Src/stm32f4xx_hal_sdram.c ****   */
 270:Drivers/STM32F4xx_HAL_Driver/Src/stm32f4xx_hal_sdram.c **** __weak void HAL_SDRAM_MspDeInit(SDRAM_HandleTypeDef *hsdram)
 271:Drivers/STM32F4xx_HAL_Driver/Src/stm32f4xx_hal_sdram.c **** {
 137              		.loc 1 271 1 is_stmt 1 view -0
 138              		.cfi_startproc
 139              		@ args = 0, pretend = 0, frame = 0
 140              		@ frame_needed = 0, uses_anonymous_args = 0
 141              		@ link register save eliminated.
 272:Drivers/STM32F4xx_HAL_Driver/Src/stm32f4xx_hal_sdram.c ****   /* Prevent unused argument(s) compilation warning */
 273:Drivers/STM32F4xx_HAL_Driver/Src/stm32f4xx_hal_sdram.c ****   UNUSED(hsdram);
 142              		.loc 1 273 3 view .LVU28
 274:Drivers/STM32F4xx_HAL_Driver/Src/stm32f4xx_hal_sdram.c **** 
 275:Drivers/STM32F4xx_HAL_Driver/Src/stm32f4xx_hal_sdram.c ****   /* NOTE: This function Should not be modified, when the callback is needed,
 276:Drivers/STM32F4xx_HAL_Driver/Src/stm32f4xx_hal_sdram.c ****             the HAL_SDRAM_MspDeInit could be implemented in the user file
 277:Drivers/STM32F4xx_HAL_Driver/Src/stm32f4xx_hal_sdram.c ****    */
 278:Drivers/STM32F4xx_HAL_Driver/Src/stm32f4xx_hal_sdram.c **** }
 143              		.loc 1 278 1 is_stmt 0 view .LVU29
 144 0000 7047     		bx	lr
 145              		.cfi_endproc
 146              	.LFE137:
 148              		.section	.text.HAL_SDRAM_DeInit,"ax",%progbits
 149              		.align	1
 150              		.global	HAL_SDRAM_DeInit
 151              		.syntax unified
 152              		.thumb
 153              		.thumb_func
 155              	HAL_SDRAM_DeInit:
 156              	.LVL10:
 157              	.LFB135:
 222:Drivers/STM32F4xx_HAL_Driver/Src/stm32f4xx_hal_sdram.c **** #if (USE_HAL_SDRAM_REGISTER_CALLBACKS == 1)
 158              		.loc 1 222 1 is_stmt 1 view -0
 159              		.cfi_startproc
 160              		@ args = 0, pretend = 0, frame = 0
ARM GAS  /tmp/cc7nahFA.s 			page 9


 161              		@ frame_needed = 0, uses_anonymous_args = 0
 222:Drivers/STM32F4xx_HAL_Driver/Src/stm32f4xx_hal_sdram.c **** #if (USE_HAL_SDRAM_REGISTER_CALLBACKS == 1)
 162              		.loc 1 222 1 is_stmt 0 view .LVU31
 163 0000 10B5     		push	{r4, lr}
 164              	.LCFI2:
 165              		.cfi_def_cfa_offset 8
 166              		.cfi_offset 4, -8
 167              		.cfi_offset 14, -4
 168 0002 0446     		mov	r4, r0
 233:Drivers/STM32F4xx_HAL_Driver/Src/stm32f4xx_hal_sdram.c **** #endif /* USE_HAL_SDRAM_REGISTER_CALLBACKS */
 169              		.loc 1 233 3 is_stmt 1 view .LVU32
 170 0004 FFF7FEFF 		bl	HAL_SDRAM_MspDeInit
 171              	.LVL11:
 237:Drivers/STM32F4xx_HAL_Driver/Src/stm32f4xx_hal_sdram.c **** 
 172              		.loc 1 237 3 view .LVU33
 237:Drivers/STM32F4xx_HAL_Driver/Src/stm32f4xx_hal_sdram.c **** 
 173              		.loc 1 237 9 is_stmt 0 view .LVU34
 174 0008 6168     		ldr	r1, [r4, #4]
 175 000a 2068     		ldr	r0, [r4]
 176 000c FFF7FEFF 		bl	FMC_SDRAM_DeInit
 177              	.LVL12:
 240:Drivers/STM32F4xx_HAL_Driver/Src/stm32f4xx_hal_sdram.c **** 
 178              		.loc 1 240 3 is_stmt 1 view .LVU35
 240:Drivers/STM32F4xx_HAL_Driver/Src/stm32f4xx_hal_sdram.c **** 
 179              		.loc 1 240 17 is_stmt 0 view .LVU36
 180 0010 0020     		movs	r0, #0
 181 0012 84F82C00 		strb	r0, [r4, #44]
 243:Drivers/STM32F4xx_HAL_Driver/Src/stm32f4xx_hal_sdram.c **** 
 182              		.loc 1 243 3 is_stmt 1 view .LVU37
 243:Drivers/STM32F4xx_HAL_Driver/Src/stm32f4xx_hal_sdram.c **** 
 183              		.loc 1 243 3 view .LVU38
 184 0016 84F82D00 		strb	r0, [r4, #45]
 243:Drivers/STM32F4xx_HAL_Driver/Src/stm32f4xx_hal_sdram.c **** 
 185              		.loc 1 243 3 view .LVU39
 245:Drivers/STM32F4xx_HAL_Driver/Src/stm32f4xx_hal_sdram.c **** }
 186              		.loc 1 245 3 view .LVU40
 246:Drivers/STM32F4xx_HAL_Driver/Src/stm32f4xx_hal_sdram.c **** 
 187              		.loc 1 246 1 is_stmt 0 view .LVU41
 188 001a 10BD     		pop	{r4, pc}
 246:Drivers/STM32F4xx_HAL_Driver/Src/stm32f4xx_hal_sdram.c **** 
 189              		.loc 1 246 1 view .LVU42
 190              		.cfi_endproc
 191              	.LFE135:
 193              		.section	.text.HAL_SDRAM_RefreshErrorCallback,"ax",%progbits
 194              		.align	1
 195              		.weak	HAL_SDRAM_RefreshErrorCallback
 196              		.syntax unified
 197              		.thumb
 198              		.thumb_func
 200              	HAL_SDRAM_RefreshErrorCallback:
 201              	.LVL13:
 202              	.LFB139:
 279:Drivers/STM32F4xx_HAL_Driver/Src/stm32f4xx_hal_sdram.c **** 
 280:Drivers/STM32F4xx_HAL_Driver/Src/stm32f4xx_hal_sdram.c **** /**
 281:Drivers/STM32F4xx_HAL_Driver/Src/stm32f4xx_hal_sdram.c ****   * @brief  This function handles SDRAM refresh error interrupt request.
 282:Drivers/STM32F4xx_HAL_Driver/Src/stm32f4xx_hal_sdram.c ****   * @param  hsdram pointer to a SDRAM_HandleTypeDef structure that contains
 283:Drivers/STM32F4xx_HAL_Driver/Src/stm32f4xx_hal_sdram.c ****   *                the configuration information for SDRAM module.
ARM GAS  /tmp/cc7nahFA.s 			page 10


 284:Drivers/STM32F4xx_HAL_Driver/Src/stm32f4xx_hal_sdram.c ****   * @retval HAL status
 285:Drivers/STM32F4xx_HAL_Driver/Src/stm32f4xx_hal_sdram.c ****   */
 286:Drivers/STM32F4xx_HAL_Driver/Src/stm32f4xx_hal_sdram.c **** void HAL_SDRAM_IRQHandler(SDRAM_HandleTypeDef *hsdram)
 287:Drivers/STM32F4xx_HAL_Driver/Src/stm32f4xx_hal_sdram.c **** {
 288:Drivers/STM32F4xx_HAL_Driver/Src/stm32f4xx_hal_sdram.c ****   /* Check SDRAM interrupt Rising edge flag */
 289:Drivers/STM32F4xx_HAL_Driver/Src/stm32f4xx_hal_sdram.c ****   if (__FMC_SDRAM_GET_FLAG(hsdram->Instance, FMC_SDRAM_FLAG_REFRESH_IT))
 290:Drivers/STM32F4xx_HAL_Driver/Src/stm32f4xx_hal_sdram.c ****   {
 291:Drivers/STM32F4xx_HAL_Driver/Src/stm32f4xx_hal_sdram.c ****     /* SDRAM refresh error interrupt callback */
 292:Drivers/STM32F4xx_HAL_Driver/Src/stm32f4xx_hal_sdram.c **** #if (USE_HAL_SDRAM_REGISTER_CALLBACKS == 1)
 293:Drivers/STM32F4xx_HAL_Driver/Src/stm32f4xx_hal_sdram.c ****     hsdram->RefreshErrorCallback(hsdram);
 294:Drivers/STM32F4xx_HAL_Driver/Src/stm32f4xx_hal_sdram.c **** #else
 295:Drivers/STM32F4xx_HAL_Driver/Src/stm32f4xx_hal_sdram.c ****     HAL_SDRAM_RefreshErrorCallback(hsdram);
 296:Drivers/STM32F4xx_HAL_Driver/Src/stm32f4xx_hal_sdram.c **** #endif /* USE_HAL_SDRAM_REGISTER_CALLBACKS */
 297:Drivers/STM32F4xx_HAL_Driver/Src/stm32f4xx_hal_sdram.c **** 
 298:Drivers/STM32F4xx_HAL_Driver/Src/stm32f4xx_hal_sdram.c ****     /* Clear SDRAM refresh error interrupt pending bit */
 299:Drivers/STM32F4xx_HAL_Driver/Src/stm32f4xx_hal_sdram.c ****     __FMC_SDRAM_CLEAR_FLAG(hsdram->Instance, FMC_SDRAM_FLAG_REFRESH_ERROR);
 300:Drivers/STM32F4xx_HAL_Driver/Src/stm32f4xx_hal_sdram.c ****   }
 301:Drivers/STM32F4xx_HAL_Driver/Src/stm32f4xx_hal_sdram.c **** }
 302:Drivers/STM32F4xx_HAL_Driver/Src/stm32f4xx_hal_sdram.c **** 
 303:Drivers/STM32F4xx_HAL_Driver/Src/stm32f4xx_hal_sdram.c **** /**
 304:Drivers/STM32F4xx_HAL_Driver/Src/stm32f4xx_hal_sdram.c ****   * @brief  SDRAM Refresh error callback.
 305:Drivers/STM32F4xx_HAL_Driver/Src/stm32f4xx_hal_sdram.c ****   * @param  hsdram pointer to a SDRAM_HandleTypeDef structure that contains
 306:Drivers/STM32F4xx_HAL_Driver/Src/stm32f4xx_hal_sdram.c ****   *                the configuration information for SDRAM module.
 307:Drivers/STM32F4xx_HAL_Driver/Src/stm32f4xx_hal_sdram.c ****   * @retval None
 308:Drivers/STM32F4xx_HAL_Driver/Src/stm32f4xx_hal_sdram.c ****   */
 309:Drivers/STM32F4xx_HAL_Driver/Src/stm32f4xx_hal_sdram.c **** __weak void HAL_SDRAM_RefreshErrorCallback(SDRAM_HandleTypeDef *hsdram)
 310:Drivers/STM32F4xx_HAL_Driver/Src/stm32f4xx_hal_sdram.c **** {
 203              		.loc 1 310 1 is_stmt 1 view -0
 204              		.cfi_startproc
 205              		@ args = 0, pretend = 0, frame = 0
 206              		@ frame_needed = 0, uses_anonymous_args = 0
 207              		@ link register save eliminated.
 311:Drivers/STM32F4xx_HAL_Driver/Src/stm32f4xx_hal_sdram.c ****   /* Prevent unused argument(s) compilation warning */
 312:Drivers/STM32F4xx_HAL_Driver/Src/stm32f4xx_hal_sdram.c ****   UNUSED(hsdram);
 208              		.loc 1 312 3 view .LVU44
 313:Drivers/STM32F4xx_HAL_Driver/Src/stm32f4xx_hal_sdram.c **** 
 314:Drivers/STM32F4xx_HAL_Driver/Src/stm32f4xx_hal_sdram.c ****   /* NOTE: This function Should not be modified, when the callback is needed,
 315:Drivers/STM32F4xx_HAL_Driver/Src/stm32f4xx_hal_sdram.c ****             the HAL_SDRAM_RefreshErrorCallback could be implemented in the user file
 316:Drivers/STM32F4xx_HAL_Driver/Src/stm32f4xx_hal_sdram.c ****    */
 317:Drivers/STM32F4xx_HAL_Driver/Src/stm32f4xx_hal_sdram.c **** }
 209              		.loc 1 317 1 is_stmt 0 view .LVU45
 210 0000 7047     		bx	lr
 211              		.cfi_endproc
 212              	.LFE139:
 214              		.section	.text.HAL_SDRAM_IRQHandler,"ax",%progbits
 215              		.align	1
 216              		.global	HAL_SDRAM_IRQHandler
 217              		.syntax unified
 218              		.thumb
 219              		.thumb_func
 221              	HAL_SDRAM_IRQHandler:
 222              	.LVL14:
 223              	.LFB138:
 287:Drivers/STM32F4xx_HAL_Driver/Src/stm32f4xx_hal_sdram.c ****   /* Check SDRAM interrupt Rising edge flag */
 224              		.loc 1 287 1 is_stmt 1 view -0
 225              		.cfi_startproc
 226              		@ args = 0, pretend = 0, frame = 0
ARM GAS  /tmp/cc7nahFA.s 			page 11


 227              		@ frame_needed = 0, uses_anonymous_args = 0
 289:Drivers/STM32F4xx_HAL_Driver/Src/stm32f4xx_hal_sdram.c ****   {
 228              		.loc 1 289 3 view .LVU47
 289:Drivers/STM32F4xx_HAL_Driver/Src/stm32f4xx_hal_sdram.c ****   {
 229              		.loc 1 289 7 is_stmt 0 view .LVU48
 230 0000 0368     		ldr	r3, [r0]
 231 0002 9B69     		ldr	r3, [r3, #24]
 289:Drivers/STM32F4xx_HAL_Driver/Src/stm32f4xx_hal_sdram.c ****   {
 232              		.loc 1 289 6 view .LVU49
 233 0004 13F0010F 		tst	r3, #1
 234 0008 00D1     		bne	.L21
 235 000a 7047     		bx	lr
 236              	.L21:
 287:Drivers/STM32F4xx_HAL_Driver/Src/stm32f4xx_hal_sdram.c ****   /* Check SDRAM interrupt Rising edge flag */
 237              		.loc 1 287 1 view .LVU50
 238 000c 10B5     		push	{r4, lr}
 239              	.LCFI3:
 240              		.cfi_def_cfa_offset 8
 241              		.cfi_offset 4, -8
 242              		.cfi_offset 14, -4
 243 000e 0446     		mov	r4, r0
 295:Drivers/STM32F4xx_HAL_Driver/Src/stm32f4xx_hal_sdram.c **** #endif /* USE_HAL_SDRAM_REGISTER_CALLBACKS */
 244              		.loc 1 295 5 is_stmt 1 view .LVU51
 245 0010 FFF7FEFF 		bl	HAL_SDRAM_RefreshErrorCallback
 246              	.LVL15:
 299:Drivers/STM32F4xx_HAL_Driver/Src/stm32f4xx_hal_sdram.c ****   }
 247              		.loc 1 299 5 view .LVU52
 248 0014 2268     		ldr	r2, [r4]
 249 0016 5369     		ldr	r3, [r2, #20]
 250 0018 43F00103 		orr	r3, r3, #1
 251 001c 5361     		str	r3, [r2, #20]
 301:Drivers/STM32F4xx_HAL_Driver/Src/stm32f4xx_hal_sdram.c **** 
 252              		.loc 1 301 1 is_stmt 0 view .LVU53
 253 001e 10BD     		pop	{r4, pc}
 301:Drivers/STM32F4xx_HAL_Driver/Src/stm32f4xx_hal_sdram.c **** 
 254              		.loc 1 301 1 view .LVU54
 255              		.cfi_endproc
 256              	.LFE138:
 258              		.section	.text.HAL_SDRAM_DMA_XferCpltCallback,"ax",%progbits
 259              		.align	1
 260              		.weak	HAL_SDRAM_DMA_XferCpltCallback
 261              		.syntax unified
 262              		.thumb
 263              		.thumb_func
 265              	HAL_SDRAM_DMA_XferCpltCallback:
 266              	.LVL16:
 267              	.LFB140:
 318:Drivers/STM32F4xx_HAL_Driver/Src/stm32f4xx_hal_sdram.c **** 
 319:Drivers/STM32F4xx_HAL_Driver/Src/stm32f4xx_hal_sdram.c **** /**
 320:Drivers/STM32F4xx_HAL_Driver/Src/stm32f4xx_hal_sdram.c ****   * @brief  DMA transfer complete callback.
 321:Drivers/STM32F4xx_HAL_Driver/Src/stm32f4xx_hal_sdram.c ****   * @param  hdma pointer to a DMA_HandleTypeDef structure that contains
 322:Drivers/STM32F4xx_HAL_Driver/Src/stm32f4xx_hal_sdram.c ****   *                the configuration information for the specified DMA module.
 323:Drivers/STM32F4xx_HAL_Driver/Src/stm32f4xx_hal_sdram.c ****   * @retval None
 324:Drivers/STM32F4xx_HAL_Driver/Src/stm32f4xx_hal_sdram.c ****   */
 325:Drivers/STM32F4xx_HAL_Driver/Src/stm32f4xx_hal_sdram.c **** __weak void HAL_SDRAM_DMA_XferCpltCallback(DMA_HandleTypeDef *hdma)
 326:Drivers/STM32F4xx_HAL_Driver/Src/stm32f4xx_hal_sdram.c **** {
 268              		.loc 1 326 1 is_stmt 1 view -0
ARM GAS  /tmp/cc7nahFA.s 			page 12


 269              		.cfi_startproc
 270              		@ args = 0, pretend = 0, frame = 0
 271              		@ frame_needed = 0, uses_anonymous_args = 0
 272              		@ link register save eliminated.
 327:Drivers/STM32F4xx_HAL_Driver/Src/stm32f4xx_hal_sdram.c ****   /* Prevent unused argument(s) compilation warning */
 328:Drivers/STM32F4xx_HAL_Driver/Src/stm32f4xx_hal_sdram.c ****   UNUSED(hdma);
 273              		.loc 1 328 3 view .LVU56
 329:Drivers/STM32F4xx_HAL_Driver/Src/stm32f4xx_hal_sdram.c **** 
 330:Drivers/STM32F4xx_HAL_Driver/Src/stm32f4xx_hal_sdram.c ****   /* NOTE: This function Should not be modified, when the callback is needed,
 331:Drivers/STM32F4xx_HAL_Driver/Src/stm32f4xx_hal_sdram.c ****             the HAL_SDRAM_DMA_XferCpltCallback could be implemented in the user file
 332:Drivers/STM32F4xx_HAL_Driver/Src/stm32f4xx_hal_sdram.c ****    */
 333:Drivers/STM32F4xx_HAL_Driver/Src/stm32f4xx_hal_sdram.c **** }
 274              		.loc 1 333 1 is_stmt 0 view .LVU57
 275 0000 7047     		bx	lr
 276              		.cfi_endproc
 277              	.LFE140:
 279              		.section	.text.SDRAM_DMACpltProt,"ax",%progbits
 280              		.align	1
 281              		.syntax unified
 282              		.thumb
 283              		.thumb_func
 285              	SDRAM_DMACpltProt:
 286              	.LVL17:
 287              	.LFB158:
 334:Drivers/STM32F4xx_HAL_Driver/Src/stm32f4xx_hal_sdram.c **** 
 335:Drivers/STM32F4xx_HAL_Driver/Src/stm32f4xx_hal_sdram.c **** /**
 336:Drivers/STM32F4xx_HAL_Driver/Src/stm32f4xx_hal_sdram.c ****   * @brief  DMA transfer complete error callback.
 337:Drivers/STM32F4xx_HAL_Driver/Src/stm32f4xx_hal_sdram.c ****   * @param  hdma DMA handle
 338:Drivers/STM32F4xx_HAL_Driver/Src/stm32f4xx_hal_sdram.c ****   * @retval None
 339:Drivers/STM32F4xx_HAL_Driver/Src/stm32f4xx_hal_sdram.c ****   */
 340:Drivers/STM32F4xx_HAL_Driver/Src/stm32f4xx_hal_sdram.c **** __weak void HAL_SDRAM_DMA_XferErrorCallback(DMA_HandleTypeDef *hdma)
 341:Drivers/STM32F4xx_HAL_Driver/Src/stm32f4xx_hal_sdram.c **** {
 342:Drivers/STM32F4xx_HAL_Driver/Src/stm32f4xx_hal_sdram.c ****   /* Prevent unused argument(s) compilation warning */
 343:Drivers/STM32F4xx_HAL_Driver/Src/stm32f4xx_hal_sdram.c ****   UNUSED(hdma);
 344:Drivers/STM32F4xx_HAL_Driver/Src/stm32f4xx_hal_sdram.c **** 
 345:Drivers/STM32F4xx_HAL_Driver/Src/stm32f4xx_hal_sdram.c ****   /* NOTE: This function Should not be modified, when the callback is needed,
 346:Drivers/STM32F4xx_HAL_Driver/Src/stm32f4xx_hal_sdram.c ****             the HAL_SDRAM_DMA_XferErrorCallback could be implemented in the user file
 347:Drivers/STM32F4xx_HAL_Driver/Src/stm32f4xx_hal_sdram.c ****    */
 348:Drivers/STM32F4xx_HAL_Driver/Src/stm32f4xx_hal_sdram.c **** }
 349:Drivers/STM32F4xx_HAL_Driver/Src/stm32f4xx_hal_sdram.c **** 
 350:Drivers/STM32F4xx_HAL_Driver/Src/stm32f4xx_hal_sdram.c **** /**
 351:Drivers/STM32F4xx_HAL_Driver/Src/stm32f4xx_hal_sdram.c ****   * @}
 352:Drivers/STM32F4xx_HAL_Driver/Src/stm32f4xx_hal_sdram.c ****   */
 353:Drivers/STM32F4xx_HAL_Driver/Src/stm32f4xx_hal_sdram.c **** 
 354:Drivers/STM32F4xx_HAL_Driver/Src/stm32f4xx_hal_sdram.c **** /** @defgroup SDRAM_Exported_Functions_Group2 Input and Output functions
 355:Drivers/STM32F4xx_HAL_Driver/Src/stm32f4xx_hal_sdram.c ****   * @brief    Input Output and memory control functions
 356:Drivers/STM32F4xx_HAL_Driver/Src/stm32f4xx_hal_sdram.c ****   *
 357:Drivers/STM32F4xx_HAL_Driver/Src/stm32f4xx_hal_sdram.c ****   @verbatim
 358:Drivers/STM32F4xx_HAL_Driver/Src/stm32f4xx_hal_sdram.c ****   ==============================================================================
 359:Drivers/STM32F4xx_HAL_Driver/Src/stm32f4xx_hal_sdram.c ****                     ##### SDRAM Input and Output functions #####
 360:Drivers/STM32F4xx_HAL_Driver/Src/stm32f4xx_hal_sdram.c ****   ==============================================================================
 361:Drivers/STM32F4xx_HAL_Driver/Src/stm32f4xx_hal_sdram.c ****   [..]
 362:Drivers/STM32F4xx_HAL_Driver/Src/stm32f4xx_hal_sdram.c ****     This section provides functions allowing to use and control the SDRAM memory
 363:Drivers/STM32F4xx_HAL_Driver/Src/stm32f4xx_hal_sdram.c **** 
 364:Drivers/STM32F4xx_HAL_Driver/Src/stm32f4xx_hal_sdram.c **** @endverbatim
 365:Drivers/STM32F4xx_HAL_Driver/Src/stm32f4xx_hal_sdram.c ****   * @{
 366:Drivers/STM32F4xx_HAL_Driver/Src/stm32f4xx_hal_sdram.c ****   */
ARM GAS  /tmp/cc7nahFA.s 			page 13


 367:Drivers/STM32F4xx_HAL_Driver/Src/stm32f4xx_hal_sdram.c **** 
 368:Drivers/STM32F4xx_HAL_Driver/Src/stm32f4xx_hal_sdram.c **** /**
 369:Drivers/STM32F4xx_HAL_Driver/Src/stm32f4xx_hal_sdram.c ****   * @brief  Reads 8-bit data buffer from the SDRAM memory.
 370:Drivers/STM32F4xx_HAL_Driver/Src/stm32f4xx_hal_sdram.c ****   * @param  hsdram pointer to a SDRAM_HandleTypeDef structure that contains
 371:Drivers/STM32F4xx_HAL_Driver/Src/stm32f4xx_hal_sdram.c ****   *                the configuration information for SDRAM module.
 372:Drivers/STM32F4xx_HAL_Driver/Src/stm32f4xx_hal_sdram.c ****   * @param  pAddress Pointer to read start address
 373:Drivers/STM32F4xx_HAL_Driver/Src/stm32f4xx_hal_sdram.c ****   * @param  pDstBuffer Pointer to destination buffer
 374:Drivers/STM32F4xx_HAL_Driver/Src/stm32f4xx_hal_sdram.c ****   * @param  BufferSize Size of the buffer to read from memory
 375:Drivers/STM32F4xx_HAL_Driver/Src/stm32f4xx_hal_sdram.c ****   * @retval HAL status
 376:Drivers/STM32F4xx_HAL_Driver/Src/stm32f4xx_hal_sdram.c ****   */
 377:Drivers/STM32F4xx_HAL_Driver/Src/stm32f4xx_hal_sdram.c **** HAL_StatusTypeDef HAL_SDRAM_Read_8b(SDRAM_HandleTypeDef *hsdram, uint32_t *pAddress, uint8_t *pDstB
 378:Drivers/STM32F4xx_HAL_Driver/Src/stm32f4xx_hal_sdram.c ****                                     uint32_t BufferSize)
 379:Drivers/STM32F4xx_HAL_Driver/Src/stm32f4xx_hal_sdram.c **** {
 380:Drivers/STM32F4xx_HAL_Driver/Src/stm32f4xx_hal_sdram.c ****   uint32_t size;
 381:Drivers/STM32F4xx_HAL_Driver/Src/stm32f4xx_hal_sdram.c ****   __IO uint8_t *pSdramAddress = (uint8_t *)pAddress;
 382:Drivers/STM32F4xx_HAL_Driver/Src/stm32f4xx_hal_sdram.c ****   uint8_t *pdestbuff = pDstBuffer;
 383:Drivers/STM32F4xx_HAL_Driver/Src/stm32f4xx_hal_sdram.c ****   HAL_SDRAM_StateTypeDef state = hsdram->State;
 384:Drivers/STM32F4xx_HAL_Driver/Src/stm32f4xx_hal_sdram.c **** 
 385:Drivers/STM32F4xx_HAL_Driver/Src/stm32f4xx_hal_sdram.c ****   /* Check the SDRAM controller state */
 386:Drivers/STM32F4xx_HAL_Driver/Src/stm32f4xx_hal_sdram.c ****   if (state == HAL_SDRAM_STATE_BUSY)
 387:Drivers/STM32F4xx_HAL_Driver/Src/stm32f4xx_hal_sdram.c ****   {
 388:Drivers/STM32F4xx_HAL_Driver/Src/stm32f4xx_hal_sdram.c ****     return HAL_BUSY;
 389:Drivers/STM32F4xx_HAL_Driver/Src/stm32f4xx_hal_sdram.c ****   }
 390:Drivers/STM32F4xx_HAL_Driver/Src/stm32f4xx_hal_sdram.c ****   else if ((state == HAL_SDRAM_STATE_READY) || (state == HAL_SDRAM_STATE_WRITE_PROTECTED))
 391:Drivers/STM32F4xx_HAL_Driver/Src/stm32f4xx_hal_sdram.c ****   {
 392:Drivers/STM32F4xx_HAL_Driver/Src/stm32f4xx_hal_sdram.c ****     /* Process Locked */
 393:Drivers/STM32F4xx_HAL_Driver/Src/stm32f4xx_hal_sdram.c ****     __HAL_LOCK(hsdram);
 394:Drivers/STM32F4xx_HAL_Driver/Src/stm32f4xx_hal_sdram.c **** 
 395:Drivers/STM32F4xx_HAL_Driver/Src/stm32f4xx_hal_sdram.c ****     /* Update the SDRAM controller state */
 396:Drivers/STM32F4xx_HAL_Driver/Src/stm32f4xx_hal_sdram.c ****     hsdram->State = HAL_SDRAM_STATE_BUSY;
 397:Drivers/STM32F4xx_HAL_Driver/Src/stm32f4xx_hal_sdram.c **** 
 398:Drivers/STM32F4xx_HAL_Driver/Src/stm32f4xx_hal_sdram.c ****     /* Read data from source */
 399:Drivers/STM32F4xx_HAL_Driver/Src/stm32f4xx_hal_sdram.c ****     for (size = BufferSize; size != 0U; size--)
 400:Drivers/STM32F4xx_HAL_Driver/Src/stm32f4xx_hal_sdram.c ****     {
 401:Drivers/STM32F4xx_HAL_Driver/Src/stm32f4xx_hal_sdram.c ****       *pdestbuff = *(__IO uint8_t *)pSdramAddress;
 402:Drivers/STM32F4xx_HAL_Driver/Src/stm32f4xx_hal_sdram.c ****       pdestbuff++;
 403:Drivers/STM32F4xx_HAL_Driver/Src/stm32f4xx_hal_sdram.c ****       pSdramAddress++;
 404:Drivers/STM32F4xx_HAL_Driver/Src/stm32f4xx_hal_sdram.c ****     }
 405:Drivers/STM32F4xx_HAL_Driver/Src/stm32f4xx_hal_sdram.c **** 
 406:Drivers/STM32F4xx_HAL_Driver/Src/stm32f4xx_hal_sdram.c ****     /* Update the SDRAM controller state */
 407:Drivers/STM32F4xx_HAL_Driver/Src/stm32f4xx_hal_sdram.c ****     hsdram->State = state;
 408:Drivers/STM32F4xx_HAL_Driver/Src/stm32f4xx_hal_sdram.c **** 
 409:Drivers/STM32F4xx_HAL_Driver/Src/stm32f4xx_hal_sdram.c ****     /* Process Unlocked */
 410:Drivers/STM32F4xx_HAL_Driver/Src/stm32f4xx_hal_sdram.c ****     __HAL_UNLOCK(hsdram);
 411:Drivers/STM32F4xx_HAL_Driver/Src/stm32f4xx_hal_sdram.c ****   }
 412:Drivers/STM32F4xx_HAL_Driver/Src/stm32f4xx_hal_sdram.c ****   else
 413:Drivers/STM32F4xx_HAL_Driver/Src/stm32f4xx_hal_sdram.c ****   {
 414:Drivers/STM32F4xx_HAL_Driver/Src/stm32f4xx_hal_sdram.c ****     return  HAL_ERROR;
 415:Drivers/STM32F4xx_HAL_Driver/Src/stm32f4xx_hal_sdram.c ****   }
 416:Drivers/STM32F4xx_HAL_Driver/Src/stm32f4xx_hal_sdram.c **** 
 417:Drivers/STM32F4xx_HAL_Driver/Src/stm32f4xx_hal_sdram.c ****   return HAL_OK;
 418:Drivers/STM32F4xx_HAL_Driver/Src/stm32f4xx_hal_sdram.c **** }
 419:Drivers/STM32F4xx_HAL_Driver/Src/stm32f4xx_hal_sdram.c **** 
 420:Drivers/STM32F4xx_HAL_Driver/Src/stm32f4xx_hal_sdram.c **** /**
 421:Drivers/STM32F4xx_HAL_Driver/Src/stm32f4xx_hal_sdram.c ****   * @brief  Writes 8-bit data buffer to SDRAM memory.
 422:Drivers/STM32F4xx_HAL_Driver/Src/stm32f4xx_hal_sdram.c ****   * @param  hsdram pointer to a SDRAM_HandleTypeDef structure that contains
 423:Drivers/STM32F4xx_HAL_Driver/Src/stm32f4xx_hal_sdram.c ****   *                the configuration information for SDRAM module.
ARM GAS  /tmp/cc7nahFA.s 			page 14


 424:Drivers/STM32F4xx_HAL_Driver/Src/stm32f4xx_hal_sdram.c ****   * @param  pAddress Pointer to write start address
 425:Drivers/STM32F4xx_HAL_Driver/Src/stm32f4xx_hal_sdram.c ****   * @param  pSrcBuffer Pointer to source buffer to write
 426:Drivers/STM32F4xx_HAL_Driver/Src/stm32f4xx_hal_sdram.c ****   * @param  BufferSize Size of the buffer to write to memory
 427:Drivers/STM32F4xx_HAL_Driver/Src/stm32f4xx_hal_sdram.c ****   * @retval HAL status
 428:Drivers/STM32F4xx_HAL_Driver/Src/stm32f4xx_hal_sdram.c ****   */
 429:Drivers/STM32F4xx_HAL_Driver/Src/stm32f4xx_hal_sdram.c **** HAL_StatusTypeDef HAL_SDRAM_Write_8b(SDRAM_HandleTypeDef *hsdram, uint32_t *pAddress, uint8_t *pSrc
 430:Drivers/STM32F4xx_HAL_Driver/Src/stm32f4xx_hal_sdram.c ****                                      uint32_t BufferSize)
 431:Drivers/STM32F4xx_HAL_Driver/Src/stm32f4xx_hal_sdram.c **** {
 432:Drivers/STM32F4xx_HAL_Driver/Src/stm32f4xx_hal_sdram.c ****   uint32_t size;
 433:Drivers/STM32F4xx_HAL_Driver/Src/stm32f4xx_hal_sdram.c ****   __IO uint8_t *pSdramAddress = (uint8_t *)pAddress;
 434:Drivers/STM32F4xx_HAL_Driver/Src/stm32f4xx_hal_sdram.c ****   uint8_t *psrcbuff = pSrcBuffer;
 435:Drivers/STM32F4xx_HAL_Driver/Src/stm32f4xx_hal_sdram.c **** 
 436:Drivers/STM32F4xx_HAL_Driver/Src/stm32f4xx_hal_sdram.c ****   /* Check the SDRAM controller state */
 437:Drivers/STM32F4xx_HAL_Driver/Src/stm32f4xx_hal_sdram.c ****   if (hsdram->State == HAL_SDRAM_STATE_BUSY)
 438:Drivers/STM32F4xx_HAL_Driver/Src/stm32f4xx_hal_sdram.c ****   {
 439:Drivers/STM32F4xx_HAL_Driver/Src/stm32f4xx_hal_sdram.c ****     return HAL_BUSY;
 440:Drivers/STM32F4xx_HAL_Driver/Src/stm32f4xx_hal_sdram.c ****   }
 441:Drivers/STM32F4xx_HAL_Driver/Src/stm32f4xx_hal_sdram.c ****   else if (hsdram->State == HAL_SDRAM_STATE_READY)
 442:Drivers/STM32F4xx_HAL_Driver/Src/stm32f4xx_hal_sdram.c ****   {
 443:Drivers/STM32F4xx_HAL_Driver/Src/stm32f4xx_hal_sdram.c ****     /* Process Locked */
 444:Drivers/STM32F4xx_HAL_Driver/Src/stm32f4xx_hal_sdram.c ****     __HAL_LOCK(hsdram);
 445:Drivers/STM32F4xx_HAL_Driver/Src/stm32f4xx_hal_sdram.c **** 
 446:Drivers/STM32F4xx_HAL_Driver/Src/stm32f4xx_hal_sdram.c ****     /* Update the SDRAM controller state */
 447:Drivers/STM32F4xx_HAL_Driver/Src/stm32f4xx_hal_sdram.c ****     hsdram->State = HAL_SDRAM_STATE_BUSY;
 448:Drivers/STM32F4xx_HAL_Driver/Src/stm32f4xx_hal_sdram.c **** 
 449:Drivers/STM32F4xx_HAL_Driver/Src/stm32f4xx_hal_sdram.c ****     /* Write data to memory */
 450:Drivers/STM32F4xx_HAL_Driver/Src/stm32f4xx_hal_sdram.c ****     for (size = BufferSize; size != 0U; size--)
 451:Drivers/STM32F4xx_HAL_Driver/Src/stm32f4xx_hal_sdram.c ****     {
 452:Drivers/STM32F4xx_HAL_Driver/Src/stm32f4xx_hal_sdram.c ****       *(__IO uint8_t *)pSdramAddress = *psrcbuff;
 453:Drivers/STM32F4xx_HAL_Driver/Src/stm32f4xx_hal_sdram.c ****       psrcbuff++;
 454:Drivers/STM32F4xx_HAL_Driver/Src/stm32f4xx_hal_sdram.c ****       pSdramAddress++;
 455:Drivers/STM32F4xx_HAL_Driver/Src/stm32f4xx_hal_sdram.c ****     }
 456:Drivers/STM32F4xx_HAL_Driver/Src/stm32f4xx_hal_sdram.c **** 
 457:Drivers/STM32F4xx_HAL_Driver/Src/stm32f4xx_hal_sdram.c ****     /* Update the SDRAM controller state */
 458:Drivers/STM32F4xx_HAL_Driver/Src/stm32f4xx_hal_sdram.c ****     hsdram->State = HAL_SDRAM_STATE_READY;
 459:Drivers/STM32F4xx_HAL_Driver/Src/stm32f4xx_hal_sdram.c **** 
 460:Drivers/STM32F4xx_HAL_Driver/Src/stm32f4xx_hal_sdram.c ****     /* Process Unlocked */
 461:Drivers/STM32F4xx_HAL_Driver/Src/stm32f4xx_hal_sdram.c ****     __HAL_UNLOCK(hsdram);
 462:Drivers/STM32F4xx_HAL_Driver/Src/stm32f4xx_hal_sdram.c ****   }
 463:Drivers/STM32F4xx_HAL_Driver/Src/stm32f4xx_hal_sdram.c ****   else
 464:Drivers/STM32F4xx_HAL_Driver/Src/stm32f4xx_hal_sdram.c ****   {
 465:Drivers/STM32F4xx_HAL_Driver/Src/stm32f4xx_hal_sdram.c ****     return  HAL_ERROR;
 466:Drivers/STM32F4xx_HAL_Driver/Src/stm32f4xx_hal_sdram.c ****   }
 467:Drivers/STM32F4xx_HAL_Driver/Src/stm32f4xx_hal_sdram.c **** 
 468:Drivers/STM32F4xx_HAL_Driver/Src/stm32f4xx_hal_sdram.c ****   return HAL_OK;
 469:Drivers/STM32F4xx_HAL_Driver/Src/stm32f4xx_hal_sdram.c **** }
 470:Drivers/STM32F4xx_HAL_Driver/Src/stm32f4xx_hal_sdram.c **** 
 471:Drivers/STM32F4xx_HAL_Driver/Src/stm32f4xx_hal_sdram.c **** /**
 472:Drivers/STM32F4xx_HAL_Driver/Src/stm32f4xx_hal_sdram.c ****   * @brief  Reads 16-bit data buffer from the SDRAM memory.
 473:Drivers/STM32F4xx_HAL_Driver/Src/stm32f4xx_hal_sdram.c ****   * @param  hsdram pointer to a SDRAM_HandleTypeDef structure that contains
 474:Drivers/STM32F4xx_HAL_Driver/Src/stm32f4xx_hal_sdram.c ****   *                the configuration information for SDRAM module.
 475:Drivers/STM32F4xx_HAL_Driver/Src/stm32f4xx_hal_sdram.c ****   * @param  pAddress Pointer to read start address
 476:Drivers/STM32F4xx_HAL_Driver/Src/stm32f4xx_hal_sdram.c ****   * @param  pDstBuffer Pointer to destination buffer
 477:Drivers/STM32F4xx_HAL_Driver/Src/stm32f4xx_hal_sdram.c ****   * @param  BufferSize Size of the buffer to read from memory
 478:Drivers/STM32F4xx_HAL_Driver/Src/stm32f4xx_hal_sdram.c ****   * @retval HAL status
 479:Drivers/STM32F4xx_HAL_Driver/Src/stm32f4xx_hal_sdram.c ****   */
 480:Drivers/STM32F4xx_HAL_Driver/Src/stm32f4xx_hal_sdram.c **** HAL_StatusTypeDef HAL_SDRAM_Read_16b(SDRAM_HandleTypeDef *hsdram, uint32_t *pAddress, uint16_t *pDs
ARM GAS  /tmp/cc7nahFA.s 			page 15


 481:Drivers/STM32F4xx_HAL_Driver/Src/stm32f4xx_hal_sdram.c ****                                      uint32_t BufferSize)
 482:Drivers/STM32F4xx_HAL_Driver/Src/stm32f4xx_hal_sdram.c **** {
 483:Drivers/STM32F4xx_HAL_Driver/Src/stm32f4xx_hal_sdram.c ****   uint32_t size;
 484:Drivers/STM32F4xx_HAL_Driver/Src/stm32f4xx_hal_sdram.c ****   __IO uint32_t *pSdramAddress = pAddress;
 485:Drivers/STM32F4xx_HAL_Driver/Src/stm32f4xx_hal_sdram.c ****   uint16_t *pdestbuff = pDstBuffer;
 486:Drivers/STM32F4xx_HAL_Driver/Src/stm32f4xx_hal_sdram.c ****   HAL_SDRAM_StateTypeDef state = hsdram->State;
 487:Drivers/STM32F4xx_HAL_Driver/Src/stm32f4xx_hal_sdram.c **** 
 488:Drivers/STM32F4xx_HAL_Driver/Src/stm32f4xx_hal_sdram.c ****   /* Check the SDRAM controller state */
 489:Drivers/STM32F4xx_HAL_Driver/Src/stm32f4xx_hal_sdram.c ****   if (state == HAL_SDRAM_STATE_BUSY)
 490:Drivers/STM32F4xx_HAL_Driver/Src/stm32f4xx_hal_sdram.c ****   {
 491:Drivers/STM32F4xx_HAL_Driver/Src/stm32f4xx_hal_sdram.c ****     return HAL_BUSY;
 492:Drivers/STM32F4xx_HAL_Driver/Src/stm32f4xx_hal_sdram.c ****   }
 493:Drivers/STM32F4xx_HAL_Driver/Src/stm32f4xx_hal_sdram.c ****   else if ((state == HAL_SDRAM_STATE_READY) || (state == HAL_SDRAM_STATE_WRITE_PROTECTED))
 494:Drivers/STM32F4xx_HAL_Driver/Src/stm32f4xx_hal_sdram.c ****   {
 495:Drivers/STM32F4xx_HAL_Driver/Src/stm32f4xx_hal_sdram.c ****     /* Process Locked */
 496:Drivers/STM32F4xx_HAL_Driver/Src/stm32f4xx_hal_sdram.c ****     __HAL_LOCK(hsdram);
 497:Drivers/STM32F4xx_HAL_Driver/Src/stm32f4xx_hal_sdram.c **** 
 498:Drivers/STM32F4xx_HAL_Driver/Src/stm32f4xx_hal_sdram.c ****     /* Update the SDRAM controller state */
 499:Drivers/STM32F4xx_HAL_Driver/Src/stm32f4xx_hal_sdram.c ****     hsdram->State = HAL_SDRAM_STATE_BUSY;
 500:Drivers/STM32F4xx_HAL_Driver/Src/stm32f4xx_hal_sdram.c **** 
 501:Drivers/STM32F4xx_HAL_Driver/Src/stm32f4xx_hal_sdram.c ****     /* Read data from memory */
 502:Drivers/STM32F4xx_HAL_Driver/Src/stm32f4xx_hal_sdram.c ****     for (size = BufferSize; size >= 2U ; size -= 2U)
 503:Drivers/STM32F4xx_HAL_Driver/Src/stm32f4xx_hal_sdram.c ****     {
 504:Drivers/STM32F4xx_HAL_Driver/Src/stm32f4xx_hal_sdram.c ****       *pdestbuff = (uint16_t)((*pSdramAddress) & 0x0000FFFFU);
 505:Drivers/STM32F4xx_HAL_Driver/Src/stm32f4xx_hal_sdram.c ****       pdestbuff++;
 506:Drivers/STM32F4xx_HAL_Driver/Src/stm32f4xx_hal_sdram.c ****       *pdestbuff = (uint16_t)(((*pSdramAddress) & 0xFFFF0000U) >> 16U);
 507:Drivers/STM32F4xx_HAL_Driver/Src/stm32f4xx_hal_sdram.c ****       pdestbuff++;
 508:Drivers/STM32F4xx_HAL_Driver/Src/stm32f4xx_hal_sdram.c ****       pSdramAddress++;
 509:Drivers/STM32F4xx_HAL_Driver/Src/stm32f4xx_hal_sdram.c ****     }
 510:Drivers/STM32F4xx_HAL_Driver/Src/stm32f4xx_hal_sdram.c **** 
 511:Drivers/STM32F4xx_HAL_Driver/Src/stm32f4xx_hal_sdram.c ****     /* Read last 16-bits if size is not 32-bits multiple */
 512:Drivers/STM32F4xx_HAL_Driver/Src/stm32f4xx_hal_sdram.c ****     if ((BufferSize % 2U) != 0U)
 513:Drivers/STM32F4xx_HAL_Driver/Src/stm32f4xx_hal_sdram.c ****     {
 514:Drivers/STM32F4xx_HAL_Driver/Src/stm32f4xx_hal_sdram.c ****       *pdestbuff = (uint16_t)((*pSdramAddress) & 0x0000FFFFU);
 515:Drivers/STM32F4xx_HAL_Driver/Src/stm32f4xx_hal_sdram.c ****     }
 516:Drivers/STM32F4xx_HAL_Driver/Src/stm32f4xx_hal_sdram.c **** 
 517:Drivers/STM32F4xx_HAL_Driver/Src/stm32f4xx_hal_sdram.c ****     /* Update the SDRAM controller state */
 518:Drivers/STM32F4xx_HAL_Driver/Src/stm32f4xx_hal_sdram.c ****     hsdram->State = state;
 519:Drivers/STM32F4xx_HAL_Driver/Src/stm32f4xx_hal_sdram.c **** 
 520:Drivers/STM32F4xx_HAL_Driver/Src/stm32f4xx_hal_sdram.c ****     /* Process Unlocked */
 521:Drivers/STM32F4xx_HAL_Driver/Src/stm32f4xx_hal_sdram.c ****     __HAL_UNLOCK(hsdram);
 522:Drivers/STM32F4xx_HAL_Driver/Src/stm32f4xx_hal_sdram.c ****   }
 523:Drivers/STM32F4xx_HAL_Driver/Src/stm32f4xx_hal_sdram.c ****   else
 524:Drivers/STM32F4xx_HAL_Driver/Src/stm32f4xx_hal_sdram.c ****   {
 525:Drivers/STM32F4xx_HAL_Driver/Src/stm32f4xx_hal_sdram.c ****     return  HAL_ERROR;
 526:Drivers/STM32F4xx_HAL_Driver/Src/stm32f4xx_hal_sdram.c ****   }
 527:Drivers/STM32F4xx_HAL_Driver/Src/stm32f4xx_hal_sdram.c **** 
 528:Drivers/STM32F4xx_HAL_Driver/Src/stm32f4xx_hal_sdram.c ****   return HAL_OK;
 529:Drivers/STM32F4xx_HAL_Driver/Src/stm32f4xx_hal_sdram.c **** }
 530:Drivers/STM32F4xx_HAL_Driver/Src/stm32f4xx_hal_sdram.c **** 
 531:Drivers/STM32F4xx_HAL_Driver/Src/stm32f4xx_hal_sdram.c **** /**
 532:Drivers/STM32F4xx_HAL_Driver/Src/stm32f4xx_hal_sdram.c ****   * @brief  Writes 16-bit data buffer to SDRAM memory.
 533:Drivers/STM32F4xx_HAL_Driver/Src/stm32f4xx_hal_sdram.c ****   * @param  hsdram pointer to a SDRAM_HandleTypeDef structure that contains
 534:Drivers/STM32F4xx_HAL_Driver/Src/stm32f4xx_hal_sdram.c ****   *                the configuration information for SDRAM module.
 535:Drivers/STM32F4xx_HAL_Driver/Src/stm32f4xx_hal_sdram.c ****   * @param  pAddress Pointer to write start address
 536:Drivers/STM32F4xx_HAL_Driver/Src/stm32f4xx_hal_sdram.c ****   * @param  pSrcBuffer Pointer to source buffer to write
 537:Drivers/STM32F4xx_HAL_Driver/Src/stm32f4xx_hal_sdram.c ****   * @param  BufferSize Size of the buffer to write to memory
ARM GAS  /tmp/cc7nahFA.s 			page 16


 538:Drivers/STM32F4xx_HAL_Driver/Src/stm32f4xx_hal_sdram.c ****   * @retval HAL status
 539:Drivers/STM32F4xx_HAL_Driver/Src/stm32f4xx_hal_sdram.c ****   */
 540:Drivers/STM32F4xx_HAL_Driver/Src/stm32f4xx_hal_sdram.c **** HAL_StatusTypeDef HAL_SDRAM_Write_16b(SDRAM_HandleTypeDef *hsdram, uint32_t *pAddress, uint16_t *pS
 541:Drivers/STM32F4xx_HAL_Driver/Src/stm32f4xx_hal_sdram.c ****                                       uint32_t BufferSize)
 542:Drivers/STM32F4xx_HAL_Driver/Src/stm32f4xx_hal_sdram.c **** {
 543:Drivers/STM32F4xx_HAL_Driver/Src/stm32f4xx_hal_sdram.c ****   uint32_t size;
 544:Drivers/STM32F4xx_HAL_Driver/Src/stm32f4xx_hal_sdram.c ****   __IO uint32_t *psdramaddress = pAddress;
 545:Drivers/STM32F4xx_HAL_Driver/Src/stm32f4xx_hal_sdram.c ****   uint16_t *psrcbuff = pSrcBuffer;
 546:Drivers/STM32F4xx_HAL_Driver/Src/stm32f4xx_hal_sdram.c **** 
 547:Drivers/STM32F4xx_HAL_Driver/Src/stm32f4xx_hal_sdram.c ****   /* Check the SDRAM controller state */
 548:Drivers/STM32F4xx_HAL_Driver/Src/stm32f4xx_hal_sdram.c ****   if (hsdram->State == HAL_SDRAM_STATE_BUSY)
 549:Drivers/STM32F4xx_HAL_Driver/Src/stm32f4xx_hal_sdram.c ****   {
 550:Drivers/STM32F4xx_HAL_Driver/Src/stm32f4xx_hal_sdram.c ****     return HAL_BUSY;
 551:Drivers/STM32F4xx_HAL_Driver/Src/stm32f4xx_hal_sdram.c ****   }
 552:Drivers/STM32F4xx_HAL_Driver/Src/stm32f4xx_hal_sdram.c ****   else if (hsdram->State == HAL_SDRAM_STATE_READY)
 553:Drivers/STM32F4xx_HAL_Driver/Src/stm32f4xx_hal_sdram.c ****   {
 554:Drivers/STM32F4xx_HAL_Driver/Src/stm32f4xx_hal_sdram.c ****     /* Process Locked */
 555:Drivers/STM32F4xx_HAL_Driver/Src/stm32f4xx_hal_sdram.c ****     __HAL_LOCK(hsdram);
 556:Drivers/STM32F4xx_HAL_Driver/Src/stm32f4xx_hal_sdram.c **** 
 557:Drivers/STM32F4xx_HAL_Driver/Src/stm32f4xx_hal_sdram.c ****     /* Update the SDRAM controller state */
 558:Drivers/STM32F4xx_HAL_Driver/Src/stm32f4xx_hal_sdram.c ****     hsdram->State = HAL_SDRAM_STATE_BUSY;
 559:Drivers/STM32F4xx_HAL_Driver/Src/stm32f4xx_hal_sdram.c **** 
 560:Drivers/STM32F4xx_HAL_Driver/Src/stm32f4xx_hal_sdram.c ****     /* Write data to memory */
 561:Drivers/STM32F4xx_HAL_Driver/Src/stm32f4xx_hal_sdram.c ****     for (size = BufferSize; size >= 2U ; size -= 2U)
 562:Drivers/STM32F4xx_HAL_Driver/Src/stm32f4xx_hal_sdram.c ****     {
 563:Drivers/STM32F4xx_HAL_Driver/Src/stm32f4xx_hal_sdram.c ****       *psdramaddress = (uint32_t)(*psrcbuff);
 564:Drivers/STM32F4xx_HAL_Driver/Src/stm32f4xx_hal_sdram.c ****       psrcbuff++;
 565:Drivers/STM32F4xx_HAL_Driver/Src/stm32f4xx_hal_sdram.c ****       *psdramaddress |= ((uint32_t)(*psrcbuff) << 16U);
 566:Drivers/STM32F4xx_HAL_Driver/Src/stm32f4xx_hal_sdram.c ****       psrcbuff++;
 567:Drivers/STM32F4xx_HAL_Driver/Src/stm32f4xx_hal_sdram.c ****       psdramaddress++;
 568:Drivers/STM32F4xx_HAL_Driver/Src/stm32f4xx_hal_sdram.c ****     }
 569:Drivers/STM32F4xx_HAL_Driver/Src/stm32f4xx_hal_sdram.c **** 
 570:Drivers/STM32F4xx_HAL_Driver/Src/stm32f4xx_hal_sdram.c ****     /* Write last 16-bits if size is not 32-bits multiple */
 571:Drivers/STM32F4xx_HAL_Driver/Src/stm32f4xx_hal_sdram.c ****     if ((BufferSize % 2U) != 0U)
 572:Drivers/STM32F4xx_HAL_Driver/Src/stm32f4xx_hal_sdram.c ****     {
 573:Drivers/STM32F4xx_HAL_Driver/Src/stm32f4xx_hal_sdram.c ****       *psdramaddress = ((uint32_t)(*psrcbuff) & 0x0000FFFFU) | ((*psdramaddress) & 0xFFFF0000U);
 574:Drivers/STM32F4xx_HAL_Driver/Src/stm32f4xx_hal_sdram.c ****     }
 575:Drivers/STM32F4xx_HAL_Driver/Src/stm32f4xx_hal_sdram.c **** 
 576:Drivers/STM32F4xx_HAL_Driver/Src/stm32f4xx_hal_sdram.c ****     /* Update the SDRAM controller state */
 577:Drivers/STM32F4xx_HAL_Driver/Src/stm32f4xx_hal_sdram.c ****     hsdram->State = HAL_SDRAM_STATE_READY;
 578:Drivers/STM32F4xx_HAL_Driver/Src/stm32f4xx_hal_sdram.c **** 
 579:Drivers/STM32F4xx_HAL_Driver/Src/stm32f4xx_hal_sdram.c ****     /* Process Unlocked */
 580:Drivers/STM32F4xx_HAL_Driver/Src/stm32f4xx_hal_sdram.c ****     __HAL_UNLOCK(hsdram);
 581:Drivers/STM32F4xx_HAL_Driver/Src/stm32f4xx_hal_sdram.c ****   }
 582:Drivers/STM32F4xx_HAL_Driver/Src/stm32f4xx_hal_sdram.c ****   else
 583:Drivers/STM32F4xx_HAL_Driver/Src/stm32f4xx_hal_sdram.c ****   {
 584:Drivers/STM32F4xx_HAL_Driver/Src/stm32f4xx_hal_sdram.c ****     return  HAL_ERROR;
 585:Drivers/STM32F4xx_HAL_Driver/Src/stm32f4xx_hal_sdram.c ****   }
 586:Drivers/STM32F4xx_HAL_Driver/Src/stm32f4xx_hal_sdram.c **** 
 587:Drivers/STM32F4xx_HAL_Driver/Src/stm32f4xx_hal_sdram.c ****   return HAL_OK;
 588:Drivers/STM32F4xx_HAL_Driver/Src/stm32f4xx_hal_sdram.c **** }
 589:Drivers/STM32F4xx_HAL_Driver/Src/stm32f4xx_hal_sdram.c **** 
 590:Drivers/STM32F4xx_HAL_Driver/Src/stm32f4xx_hal_sdram.c **** /**
 591:Drivers/STM32F4xx_HAL_Driver/Src/stm32f4xx_hal_sdram.c ****   * @brief  Reads 32-bit data buffer from the SDRAM memory.
 592:Drivers/STM32F4xx_HAL_Driver/Src/stm32f4xx_hal_sdram.c ****   * @param  hsdram pointer to a SDRAM_HandleTypeDef structure that contains
 593:Drivers/STM32F4xx_HAL_Driver/Src/stm32f4xx_hal_sdram.c ****   *                the configuration information for SDRAM module.
 594:Drivers/STM32F4xx_HAL_Driver/Src/stm32f4xx_hal_sdram.c ****   * @param  pAddress Pointer to read start address
ARM GAS  /tmp/cc7nahFA.s 			page 17


 595:Drivers/STM32F4xx_HAL_Driver/Src/stm32f4xx_hal_sdram.c ****   * @param  pDstBuffer Pointer to destination buffer
 596:Drivers/STM32F4xx_HAL_Driver/Src/stm32f4xx_hal_sdram.c ****   * @param  BufferSize Size of the buffer to read from memory
 597:Drivers/STM32F4xx_HAL_Driver/Src/stm32f4xx_hal_sdram.c ****   * @retval HAL status
 598:Drivers/STM32F4xx_HAL_Driver/Src/stm32f4xx_hal_sdram.c ****   */
 599:Drivers/STM32F4xx_HAL_Driver/Src/stm32f4xx_hal_sdram.c **** HAL_StatusTypeDef HAL_SDRAM_Read_32b(SDRAM_HandleTypeDef *hsdram, uint32_t *pAddress, uint32_t *pDs
 600:Drivers/STM32F4xx_HAL_Driver/Src/stm32f4xx_hal_sdram.c ****                                      uint32_t BufferSize)
 601:Drivers/STM32F4xx_HAL_Driver/Src/stm32f4xx_hal_sdram.c **** {
 602:Drivers/STM32F4xx_HAL_Driver/Src/stm32f4xx_hal_sdram.c ****   uint32_t size;
 603:Drivers/STM32F4xx_HAL_Driver/Src/stm32f4xx_hal_sdram.c ****   __IO uint32_t *pSdramAddress = (uint32_t *)pAddress;
 604:Drivers/STM32F4xx_HAL_Driver/Src/stm32f4xx_hal_sdram.c ****   uint32_t *pdestbuff = pDstBuffer;
 605:Drivers/STM32F4xx_HAL_Driver/Src/stm32f4xx_hal_sdram.c ****   HAL_SDRAM_StateTypeDef state = hsdram->State;
 606:Drivers/STM32F4xx_HAL_Driver/Src/stm32f4xx_hal_sdram.c **** 
 607:Drivers/STM32F4xx_HAL_Driver/Src/stm32f4xx_hal_sdram.c ****   /* Check the SDRAM controller state */
 608:Drivers/STM32F4xx_HAL_Driver/Src/stm32f4xx_hal_sdram.c ****   if (state == HAL_SDRAM_STATE_BUSY)
 609:Drivers/STM32F4xx_HAL_Driver/Src/stm32f4xx_hal_sdram.c ****   {
 610:Drivers/STM32F4xx_HAL_Driver/Src/stm32f4xx_hal_sdram.c ****     return HAL_BUSY;
 611:Drivers/STM32F4xx_HAL_Driver/Src/stm32f4xx_hal_sdram.c ****   }
 612:Drivers/STM32F4xx_HAL_Driver/Src/stm32f4xx_hal_sdram.c ****   else if ((state == HAL_SDRAM_STATE_READY) || (state == HAL_SDRAM_STATE_WRITE_PROTECTED))
 613:Drivers/STM32F4xx_HAL_Driver/Src/stm32f4xx_hal_sdram.c ****   {
 614:Drivers/STM32F4xx_HAL_Driver/Src/stm32f4xx_hal_sdram.c ****     /* Process Locked */
 615:Drivers/STM32F4xx_HAL_Driver/Src/stm32f4xx_hal_sdram.c ****     __HAL_LOCK(hsdram);
 616:Drivers/STM32F4xx_HAL_Driver/Src/stm32f4xx_hal_sdram.c **** 
 617:Drivers/STM32F4xx_HAL_Driver/Src/stm32f4xx_hal_sdram.c ****     /* Update the SDRAM controller state */
 618:Drivers/STM32F4xx_HAL_Driver/Src/stm32f4xx_hal_sdram.c ****     hsdram->State = HAL_SDRAM_STATE_BUSY;
 619:Drivers/STM32F4xx_HAL_Driver/Src/stm32f4xx_hal_sdram.c **** 
 620:Drivers/STM32F4xx_HAL_Driver/Src/stm32f4xx_hal_sdram.c ****     /* Read data from source */
 621:Drivers/STM32F4xx_HAL_Driver/Src/stm32f4xx_hal_sdram.c ****     for (size = BufferSize; size != 0U; size--)
 622:Drivers/STM32F4xx_HAL_Driver/Src/stm32f4xx_hal_sdram.c ****     {
 623:Drivers/STM32F4xx_HAL_Driver/Src/stm32f4xx_hal_sdram.c ****       *pdestbuff = *(__IO uint32_t *)pSdramAddress;
 624:Drivers/STM32F4xx_HAL_Driver/Src/stm32f4xx_hal_sdram.c ****       pdestbuff++;
 625:Drivers/STM32F4xx_HAL_Driver/Src/stm32f4xx_hal_sdram.c ****       pSdramAddress++;
 626:Drivers/STM32F4xx_HAL_Driver/Src/stm32f4xx_hal_sdram.c ****     }
 627:Drivers/STM32F4xx_HAL_Driver/Src/stm32f4xx_hal_sdram.c **** 
 628:Drivers/STM32F4xx_HAL_Driver/Src/stm32f4xx_hal_sdram.c ****     /* Update the SDRAM controller state */
 629:Drivers/STM32F4xx_HAL_Driver/Src/stm32f4xx_hal_sdram.c ****     hsdram->State = state;
 630:Drivers/STM32F4xx_HAL_Driver/Src/stm32f4xx_hal_sdram.c **** 
 631:Drivers/STM32F4xx_HAL_Driver/Src/stm32f4xx_hal_sdram.c ****     /* Process Unlocked */
 632:Drivers/STM32F4xx_HAL_Driver/Src/stm32f4xx_hal_sdram.c ****     __HAL_UNLOCK(hsdram);
 633:Drivers/STM32F4xx_HAL_Driver/Src/stm32f4xx_hal_sdram.c ****   }
 634:Drivers/STM32F4xx_HAL_Driver/Src/stm32f4xx_hal_sdram.c ****   else
 635:Drivers/STM32F4xx_HAL_Driver/Src/stm32f4xx_hal_sdram.c ****   {
 636:Drivers/STM32F4xx_HAL_Driver/Src/stm32f4xx_hal_sdram.c ****     return  HAL_ERROR;
 637:Drivers/STM32F4xx_HAL_Driver/Src/stm32f4xx_hal_sdram.c ****   }
 638:Drivers/STM32F4xx_HAL_Driver/Src/stm32f4xx_hal_sdram.c **** 
 639:Drivers/STM32F4xx_HAL_Driver/Src/stm32f4xx_hal_sdram.c ****   return HAL_OK;
 640:Drivers/STM32F4xx_HAL_Driver/Src/stm32f4xx_hal_sdram.c **** }
 641:Drivers/STM32F4xx_HAL_Driver/Src/stm32f4xx_hal_sdram.c **** 
 642:Drivers/STM32F4xx_HAL_Driver/Src/stm32f4xx_hal_sdram.c **** /**
 643:Drivers/STM32F4xx_HAL_Driver/Src/stm32f4xx_hal_sdram.c ****   * @brief  Writes 32-bit data buffer to SDRAM memory.
 644:Drivers/STM32F4xx_HAL_Driver/Src/stm32f4xx_hal_sdram.c ****   * @param  hsdram pointer to a SDRAM_HandleTypeDef structure that contains
 645:Drivers/STM32F4xx_HAL_Driver/Src/stm32f4xx_hal_sdram.c ****   *                the configuration information for SDRAM module.
 646:Drivers/STM32F4xx_HAL_Driver/Src/stm32f4xx_hal_sdram.c ****   * @param  pAddress Pointer to write start address
 647:Drivers/STM32F4xx_HAL_Driver/Src/stm32f4xx_hal_sdram.c ****   * @param  pSrcBuffer Pointer to source buffer to write
 648:Drivers/STM32F4xx_HAL_Driver/Src/stm32f4xx_hal_sdram.c ****   * @param  BufferSize Size of the buffer to write to memory
 649:Drivers/STM32F4xx_HAL_Driver/Src/stm32f4xx_hal_sdram.c ****   * @retval HAL status
 650:Drivers/STM32F4xx_HAL_Driver/Src/stm32f4xx_hal_sdram.c ****   */
 651:Drivers/STM32F4xx_HAL_Driver/Src/stm32f4xx_hal_sdram.c **** HAL_StatusTypeDef HAL_SDRAM_Write_32b(SDRAM_HandleTypeDef *hsdram, uint32_t *pAddress, uint32_t *pS
ARM GAS  /tmp/cc7nahFA.s 			page 18


 652:Drivers/STM32F4xx_HAL_Driver/Src/stm32f4xx_hal_sdram.c ****                                       uint32_t BufferSize)
 653:Drivers/STM32F4xx_HAL_Driver/Src/stm32f4xx_hal_sdram.c **** {
 654:Drivers/STM32F4xx_HAL_Driver/Src/stm32f4xx_hal_sdram.c ****   uint32_t size;
 655:Drivers/STM32F4xx_HAL_Driver/Src/stm32f4xx_hal_sdram.c ****   __IO uint32_t *pSdramAddress = pAddress;
 656:Drivers/STM32F4xx_HAL_Driver/Src/stm32f4xx_hal_sdram.c ****   uint32_t *psrcbuff = pSrcBuffer;
 657:Drivers/STM32F4xx_HAL_Driver/Src/stm32f4xx_hal_sdram.c **** 
 658:Drivers/STM32F4xx_HAL_Driver/Src/stm32f4xx_hal_sdram.c ****   /* Check the SDRAM controller state */
 659:Drivers/STM32F4xx_HAL_Driver/Src/stm32f4xx_hal_sdram.c ****   if (hsdram->State == HAL_SDRAM_STATE_BUSY)
 660:Drivers/STM32F4xx_HAL_Driver/Src/stm32f4xx_hal_sdram.c ****   {
 661:Drivers/STM32F4xx_HAL_Driver/Src/stm32f4xx_hal_sdram.c ****     return HAL_BUSY;
 662:Drivers/STM32F4xx_HAL_Driver/Src/stm32f4xx_hal_sdram.c ****   }
 663:Drivers/STM32F4xx_HAL_Driver/Src/stm32f4xx_hal_sdram.c ****   else if (hsdram->State == HAL_SDRAM_STATE_READY)
 664:Drivers/STM32F4xx_HAL_Driver/Src/stm32f4xx_hal_sdram.c ****   {
 665:Drivers/STM32F4xx_HAL_Driver/Src/stm32f4xx_hal_sdram.c ****     /* Process Locked */
 666:Drivers/STM32F4xx_HAL_Driver/Src/stm32f4xx_hal_sdram.c ****     __HAL_LOCK(hsdram);
 667:Drivers/STM32F4xx_HAL_Driver/Src/stm32f4xx_hal_sdram.c **** 
 668:Drivers/STM32F4xx_HAL_Driver/Src/stm32f4xx_hal_sdram.c ****     /* Update the SDRAM controller state */
 669:Drivers/STM32F4xx_HAL_Driver/Src/stm32f4xx_hal_sdram.c ****     hsdram->State = HAL_SDRAM_STATE_BUSY;
 670:Drivers/STM32F4xx_HAL_Driver/Src/stm32f4xx_hal_sdram.c **** 
 671:Drivers/STM32F4xx_HAL_Driver/Src/stm32f4xx_hal_sdram.c ****     /* Write data to memory */
 672:Drivers/STM32F4xx_HAL_Driver/Src/stm32f4xx_hal_sdram.c ****     for (size = BufferSize; size != 0U; size--)
 673:Drivers/STM32F4xx_HAL_Driver/Src/stm32f4xx_hal_sdram.c ****     {
 674:Drivers/STM32F4xx_HAL_Driver/Src/stm32f4xx_hal_sdram.c ****       *pSdramAddress = *psrcbuff;
 675:Drivers/STM32F4xx_HAL_Driver/Src/stm32f4xx_hal_sdram.c ****       psrcbuff++;
 676:Drivers/STM32F4xx_HAL_Driver/Src/stm32f4xx_hal_sdram.c ****       pSdramAddress++;
 677:Drivers/STM32F4xx_HAL_Driver/Src/stm32f4xx_hal_sdram.c ****     }
 678:Drivers/STM32F4xx_HAL_Driver/Src/stm32f4xx_hal_sdram.c **** 
 679:Drivers/STM32F4xx_HAL_Driver/Src/stm32f4xx_hal_sdram.c ****     /* Update the SDRAM controller state */
 680:Drivers/STM32F4xx_HAL_Driver/Src/stm32f4xx_hal_sdram.c ****     hsdram->State = HAL_SDRAM_STATE_READY;
 681:Drivers/STM32F4xx_HAL_Driver/Src/stm32f4xx_hal_sdram.c **** 
 682:Drivers/STM32F4xx_HAL_Driver/Src/stm32f4xx_hal_sdram.c ****     /* Process Unlocked */
 683:Drivers/STM32F4xx_HAL_Driver/Src/stm32f4xx_hal_sdram.c ****     __HAL_UNLOCK(hsdram);
 684:Drivers/STM32F4xx_HAL_Driver/Src/stm32f4xx_hal_sdram.c ****   }
 685:Drivers/STM32F4xx_HAL_Driver/Src/stm32f4xx_hal_sdram.c ****   else
 686:Drivers/STM32F4xx_HAL_Driver/Src/stm32f4xx_hal_sdram.c ****   {
 687:Drivers/STM32F4xx_HAL_Driver/Src/stm32f4xx_hal_sdram.c ****     return  HAL_ERROR;
 688:Drivers/STM32F4xx_HAL_Driver/Src/stm32f4xx_hal_sdram.c ****   }
 689:Drivers/STM32F4xx_HAL_Driver/Src/stm32f4xx_hal_sdram.c **** 
 690:Drivers/STM32F4xx_HAL_Driver/Src/stm32f4xx_hal_sdram.c ****   return HAL_OK;
 691:Drivers/STM32F4xx_HAL_Driver/Src/stm32f4xx_hal_sdram.c **** }
 692:Drivers/STM32F4xx_HAL_Driver/Src/stm32f4xx_hal_sdram.c **** 
 693:Drivers/STM32F4xx_HAL_Driver/Src/stm32f4xx_hal_sdram.c **** /**
 694:Drivers/STM32F4xx_HAL_Driver/Src/stm32f4xx_hal_sdram.c ****   * @brief  Reads a Words data from the SDRAM memory using DMA transfer.
 695:Drivers/STM32F4xx_HAL_Driver/Src/stm32f4xx_hal_sdram.c ****   * @param  hsdram pointer to a SDRAM_HandleTypeDef structure that contains
 696:Drivers/STM32F4xx_HAL_Driver/Src/stm32f4xx_hal_sdram.c ****   *                the configuration information for SDRAM module.
 697:Drivers/STM32F4xx_HAL_Driver/Src/stm32f4xx_hal_sdram.c ****   * @param  pAddress Pointer to read start address
 698:Drivers/STM32F4xx_HAL_Driver/Src/stm32f4xx_hal_sdram.c ****   * @param  pDstBuffer Pointer to destination buffer
 699:Drivers/STM32F4xx_HAL_Driver/Src/stm32f4xx_hal_sdram.c ****   * @param  BufferSize Size of the buffer to read from memory
 700:Drivers/STM32F4xx_HAL_Driver/Src/stm32f4xx_hal_sdram.c ****   * @retval HAL status
 701:Drivers/STM32F4xx_HAL_Driver/Src/stm32f4xx_hal_sdram.c ****   */
 702:Drivers/STM32F4xx_HAL_Driver/Src/stm32f4xx_hal_sdram.c **** HAL_StatusTypeDef HAL_SDRAM_Read_DMA(SDRAM_HandleTypeDef *hsdram, uint32_t *pAddress, uint32_t *pDs
 703:Drivers/STM32F4xx_HAL_Driver/Src/stm32f4xx_hal_sdram.c ****                                      uint32_t BufferSize)
 704:Drivers/STM32F4xx_HAL_Driver/Src/stm32f4xx_hal_sdram.c **** {
 705:Drivers/STM32F4xx_HAL_Driver/Src/stm32f4xx_hal_sdram.c ****   HAL_StatusTypeDef status;
 706:Drivers/STM32F4xx_HAL_Driver/Src/stm32f4xx_hal_sdram.c ****   HAL_SDRAM_StateTypeDef state = hsdram->State;
 707:Drivers/STM32F4xx_HAL_Driver/Src/stm32f4xx_hal_sdram.c **** 
 708:Drivers/STM32F4xx_HAL_Driver/Src/stm32f4xx_hal_sdram.c ****   /* Check the SDRAM controller state */
ARM GAS  /tmp/cc7nahFA.s 			page 19


 709:Drivers/STM32F4xx_HAL_Driver/Src/stm32f4xx_hal_sdram.c ****   if (state == HAL_SDRAM_STATE_BUSY)
 710:Drivers/STM32F4xx_HAL_Driver/Src/stm32f4xx_hal_sdram.c ****   {
 711:Drivers/STM32F4xx_HAL_Driver/Src/stm32f4xx_hal_sdram.c ****     status = HAL_BUSY;
 712:Drivers/STM32F4xx_HAL_Driver/Src/stm32f4xx_hal_sdram.c ****   }
 713:Drivers/STM32F4xx_HAL_Driver/Src/stm32f4xx_hal_sdram.c ****   else if ((state == HAL_SDRAM_STATE_READY) || (state == HAL_SDRAM_STATE_WRITE_PROTECTED))
 714:Drivers/STM32F4xx_HAL_Driver/Src/stm32f4xx_hal_sdram.c ****   {
 715:Drivers/STM32F4xx_HAL_Driver/Src/stm32f4xx_hal_sdram.c ****     /* Process Locked */
 716:Drivers/STM32F4xx_HAL_Driver/Src/stm32f4xx_hal_sdram.c ****     __HAL_LOCK(hsdram);
 717:Drivers/STM32F4xx_HAL_Driver/Src/stm32f4xx_hal_sdram.c **** 
 718:Drivers/STM32F4xx_HAL_Driver/Src/stm32f4xx_hal_sdram.c ****     /* Update the SDRAM controller state */
 719:Drivers/STM32F4xx_HAL_Driver/Src/stm32f4xx_hal_sdram.c ****     hsdram->State = HAL_SDRAM_STATE_BUSY;
 720:Drivers/STM32F4xx_HAL_Driver/Src/stm32f4xx_hal_sdram.c **** 
 721:Drivers/STM32F4xx_HAL_Driver/Src/stm32f4xx_hal_sdram.c ****     /* Configure DMA user callbacks */
 722:Drivers/STM32F4xx_HAL_Driver/Src/stm32f4xx_hal_sdram.c ****     if (state == HAL_SDRAM_STATE_READY)
 723:Drivers/STM32F4xx_HAL_Driver/Src/stm32f4xx_hal_sdram.c ****     {
 724:Drivers/STM32F4xx_HAL_Driver/Src/stm32f4xx_hal_sdram.c ****       hsdram->hdma->XferCpltCallback = SDRAM_DMACplt;
 725:Drivers/STM32F4xx_HAL_Driver/Src/stm32f4xx_hal_sdram.c ****     }
 726:Drivers/STM32F4xx_HAL_Driver/Src/stm32f4xx_hal_sdram.c ****     else
 727:Drivers/STM32F4xx_HAL_Driver/Src/stm32f4xx_hal_sdram.c ****     {
 728:Drivers/STM32F4xx_HAL_Driver/Src/stm32f4xx_hal_sdram.c ****       hsdram->hdma->XferCpltCallback = SDRAM_DMACpltProt;
 729:Drivers/STM32F4xx_HAL_Driver/Src/stm32f4xx_hal_sdram.c ****     }
 730:Drivers/STM32F4xx_HAL_Driver/Src/stm32f4xx_hal_sdram.c ****     hsdram->hdma->XferErrorCallback = SDRAM_DMAError;
 731:Drivers/STM32F4xx_HAL_Driver/Src/stm32f4xx_hal_sdram.c **** 
 732:Drivers/STM32F4xx_HAL_Driver/Src/stm32f4xx_hal_sdram.c ****     /* Enable the DMA Stream */
 733:Drivers/STM32F4xx_HAL_Driver/Src/stm32f4xx_hal_sdram.c ****     status = HAL_DMA_Start_IT(hsdram->hdma, (uint32_t)pAddress, (uint32_t)pDstBuffer, (uint32_t)Buf
 734:Drivers/STM32F4xx_HAL_Driver/Src/stm32f4xx_hal_sdram.c **** 
 735:Drivers/STM32F4xx_HAL_Driver/Src/stm32f4xx_hal_sdram.c ****     /* Process Unlocked */
 736:Drivers/STM32F4xx_HAL_Driver/Src/stm32f4xx_hal_sdram.c ****     __HAL_UNLOCK(hsdram);
 737:Drivers/STM32F4xx_HAL_Driver/Src/stm32f4xx_hal_sdram.c ****   }
 738:Drivers/STM32F4xx_HAL_Driver/Src/stm32f4xx_hal_sdram.c ****   else
 739:Drivers/STM32F4xx_HAL_Driver/Src/stm32f4xx_hal_sdram.c ****   {
 740:Drivers/STM32F4xx_HAL_Driver/Src/stm32f4xx_hal_sdram.c ****     status = HAL_ERROR;
 741:Drivers/STM32F4xx_HAL_Driver/Src/stm32f4xx_hal_sdram.c ****   }
 742:Drivers/STM32F4xx_HAL_Driver/Src/stm32f4xx_hal_sdram.c **** 
 743:Drivers/STM32F4xx_HAL_Driver/Src/stm32f4xx_hal_sdram.c ****   return status;
 744:Drivers/STM32F4xx_HAL_Driver/Src/stm32f4xx_hal_sdram.c **** }
 745:Drivers/STM32F4xx_HAL_Driver/Src/stm32f4xx_hal_sdram.c **** 
 746:Drivers/STM32F4xx_HAL_Driver/Src/stm32f4xx_hal_sdram.c **** /**
 747:Drivers/STM32F4xx_HAL_Driver/Src/stm32f4xx_hal_sdram.c ****   * @brief  Writes a Words data buffer to SDRAM memory using DMA transfer.
 748:Drivers/STM32F4xx_HAL_Driver/Src/stm32f4xx_hal_sdram.c ****   * @param  hsdram pointer to a SDRAM_HandleTypeDef structure that contains
 749:Drivers/STM32F4xx_HAL_Driver/Src/stm32f4xx_hal_sdram.c ****   *                the configuration information for SDRAM module.
 750:Drivers/STM32F4xx_HAL_Driver/Src/stm32f4xx_hal_sdram.c ****   * @param  pAddress Pointer to write start address
 751:Drivers/STM32F4xx_HAL_Driver/Src/stm32f4xx_hal_sdram.c ****   * @param  pSrcBuffer Pointer to source buffer to write
 752:Drivers/STM32F4xx_HAL_Driver/Src/stm32f4xx_hal_sdram.c ****   * @param  BufferSize Size of the buffer to write to memory
 753:Drivers/STM32F4xx_HAL_Driver/Src/stm32f4xx_hal_sdram.c ****   * @retval HAL status
 754:Drivers/STM32F4xx_HAL_Driver/Src/stm32f4xx_hal_sdram.c ****   */
 755:Drivers/STM32F4xx_HAL_Driver/Src/stm32f4xx_hal_sdram.c **** HAL_StatusTypeDef HAL_SDRAM_Write_DMA(SDRAM_HandleTypeDef *hsdram, uint32_t *pAddress, uint32_t *pS
 756:Drivers/STM32F4xx_HAL_Driver/Src/stm32f4xx_hal_sdram.c ****                                       uint32_t BufferSize)
 757:Drivers/STM32F4xx_HAL_Driver/Src/stm32f4xx_hal_sdram.c **** {
 758:Drivers/STM32F4xx_HAL_Driver/Src/stm32f4xx_hal_sdram.c ****   HAL_StatusTypeDef status;
 759:Drivers/STM32F4xx_HAL_Driver/Src/stm32f4xx_hal_sdram.c **** 
 760:Drivers/STM32F4xx_HAL_Driver/Src/stm32f4xx_hal_sdram.c ****   /* Check the SDRAM controller state */
 761:Drivers/STM32F4xx_HAL_Driver/Src/stm32f4xx_hal_sdram.c ****   if (hsdram->State == HAL_SDRAM_STATE_BUSY)
 762:Drivers/STM32F4xx_HAL_Driver/Src/stm32f4xx_hal_sdram.c ****   {
 763:Drivers/STM32F4xx_HAL_Driver/Src/stm32f4xx_hal_sdram.c ****     status = HAL_BUSY;
 764:Drivers/STM32F4xx_HAL_Driver/Src/stm32f4xx_hal_sdram.c ****   }
 765:Drivers/STM32F4xx_HAL_Driver/Src/stm32f4xx_hal_sdram.c ****   else if (hsdram->State == HAL_SDRAM_STATE_READY)
ARM GAS  /tmp/cc7nahFA.s 			page 20


 766:Drivers/STM32F4xx_HAL_Driver/Src/stm32f4xx_hal_sdram.c ****   {
 767:Drivers/STM32F4xx_HAL_Driver/Src/stm32f4xx_hal_sdram.c ****     /* Process Locked */
 768:Drivers/STM32F4xx_HAL_Driver/Src/stm32f4xx_hal_sdram.c ****     __HAL_LOCK(hsdram);
 769:Drivers/STM32F4xx_HAL_Driver/Src/stm32f4xx_hal_sdram.c **** 
 770:Drivers/STM32F4xx_HAL_Driver/Src/stm32f4xx_hal_sdram.c ****     /* Update the SDRAM controller state */
 771:Drivers/STM32F4xx_HAL_Driver/Src/stm32f4xx_hal_sdram.c ****     hsdram->State = HAL_SDRAM_STATE_BUSY;
 772:Drivers/STM32F4xx_HAL_Driver/Src/stm32f4xx_hal_sdram.c **** 
 773:Drivers/STM32F4xx_HAL_Driver/Src/stm32f4xx_hal_sdram.c ****     /* Configure DMA user callbacks */
 774:Drivers/STM32F4xx_HAL_Driver/Src/stm32f4xx_hal_sdram.c ****     hsdram->hdma->XferCpltCallback = SDRAM_DMACplt;
 775:Drivers/STM32F4xx_HAL_Driver/Src/stm32f4xx_hal_sdram.c ****     hsdram->hdma->XferErrorCallback = SDRAM_DMAError;
 776:Drivers/STM32F4xx_HAL_Driver/Src/stm32f4xx_hal_sdram.c **** 
 777:Drivers/STM32F4xx_HAL_Driver/Src/stm32f4xx_hal_sdram.c ****     /* Enable the DMA Stream */
 778:Drivers/STM32F4xx_HAL_Driver/Src/stm32f4xx_hal_sdram.c ****     status = HAL_DMA_Start_IT(hsdram->hdma, (uint32_t)pSrcBuffer, (uint32_t)pAddress, (uint32_t)Buf
 779:Drivers/STM32F4xx_HAL_Driver/Src/stm32f4xx_hal_sdram.c **** 
 780:Drivers/STM32F4xx_HAL_Driver/Src/stm32f4xx_hal_sdram.c ****     /* Process Unlocked */
 781:Drivers/STM32F4xx_HAL_Driver/Src/stm32f4xx_hal_sdram.c ****     __HAL_UNLOCK(hsdram);
 782:Drivers/STM32F4xx_HAL_Driver/Src/stm32f4xx_hal_sdram.c ****   }
 783:Drivers/STM32F4xx_HAL_Driver/Src/stm32f4xx_hal_sdram.c ****   else
 784:Drivers/STM32F4xx_HAL_Driver/Src/stm32f4xx_hal_sdram.c ****   {
 785:Drivers/STM32F4xx_HAL_Driver/Src/stm32f4xx_hal_sdram.c ****     status = HAL_ERROR;
 786:Drivers/STM32F4xx_HAL_Driver/Src/stm32f4xx_hal_sdram.c ****   }
 787:Drivers/STM32F4xx_HAL_Driver/Src/stm32f4xx_hal_sdram.c **** 
 788:Drivers/STM32F4xx_HAL_Driver/Src/stm32f4xx_hal_sdram.c ****   return status;
 789:Drivers/STM32F4xx_HAL_Driver/Src/stm32f4xx_hal_sdram.c **** }
 790:Drivers/STM32F4xx_HAL_Driver/Src/stm32f4xx_hal_sdram.c **** 
 791:Drivers/STM32F4xx_HAL_Driver/Src/stm32f4xx_hal_sdram.c **** #if (USE_HAL_SDRAM_REGISTER_CALLBACKS == 1)
 792:Drivers/STM32F4xx_HAL_Driver/Src/stm32f4xx_hal_sdram.c **** /**
 793:Drivers/STM32F4xx_HAL_Driver/Src/stm32f4xx_hal_sdram.c ****   * @brief  Register a User SDRAM Callback
 794:Drivers/STM32F4xx_HAL_Driver/Src/stm32f4xx_hal_sdram.c ****   *         To be used to override the weak predefined callback
 795:Drivers/STM32F4xx_HAL_Driver/Src/stm32f4xx_hal_sdram.c ****   * @param hsdram : SDRAM handle
 796:Drivers/STM32F4xx_HAL_Driver/Src/stm32f4xx_hal_sdram.c ****   * @param CallbackId : ID of the callback to be registered
 797:Drivers/STM32F4xx_HAL_Driver/Src/stm32f4xx_hal_sdram.c ****   *        This parameter can be one of the following values:
 798:Drivers/STM32F4xx_HAL_Driver/Src/stm32f4xx_hal_sdram.c ****   *          @arg @ref HAL_SDRAM_MSP_INIT_CB_ID       SDRAM MspInit callback ID
 799:Drivers/STM32F4xx_HAL_Driver/Src/stm32f4xx_hal_sdram.c ****   *          @arg @ref HAL_SDRAM_MSP_DEINIT_CB_ID     SDRAM MspDeInit callback ID
 800:Drivers/STM32F4xx_HAL_Driver/Src/stm32f4xx_hal_sdram.c ****   *          @arg @ref HAL_SDRAM_REFRESH_ERR_CB_ID    SDRAM Refresh Error callback ID
 801:Drivers/STM32F4xx_HAL_Driver/Src/stm32f4xx_hal_sdram.c ****   * @param pCallback : pointer to the Callback function
 802:Drivers/STM32F4xx_HAL_Driver/Src/stm32f4xx_hal_sdram.c ****   * @retval status
 803:Drivers/STM32F4xx_HAL_Driver/Src/stm32f4xx_hal_sdram.c ****   */
 804:Drivers/STM32F4xx_HAL_Driver/Src/stm32f4xx_hal_sdram.c **** HAL_StatusTypeDef HAL_SDRAM_RegisterCallback(SDRAM_HandleTypeDef *hsdram, HAL_SDRAM_CallbackIDTypeD
 805:Drivers/STM32F4xx_HAL_Driver/Src/stm32f4xx_hal_sdram.c ****                                              pSDRAM_CallbackTypeDef pCallback)
 806:Drivers/STM32F4xx_HAL_Driver/Src/stm32f4xx_hal_sdram.c **** {
 807:Drivers/STM32F4xx_HAL_Driver/Src/stm32f4xx_hal_sdram.c ****   HAL_StatusTypeDef status = HAL_OK;
 808:Drivers/STM32F4xx_HAL_Driver/Src/stm32f4xx_hal_sdram.c ****   HAL_SDRAM_StateTypeDef state;
 809:Drivers/STM32F4xx_HAL_Driver/Src/stm32f4xx_hal_sdram.c **** 
 810:Drivers/STM32F4xx_HAL_Driver/Src/stm32f4xx_hal_sdram.c ****   if (pCallback == NULL)
 811:Drivers/STM32F4xx_HAL_Driver/Src/stm32f4xx_hal_sdram.c ****   {
 812:Drivers/STM32F4xx_HAL_Driver/Src/stm32f4xx_hal_sdram.c ****     return HAL_ERROR;
 813:Drivers/STM32F4xx_HAL_Driver/Src/stm32f4xx_hal_sdram.c ****   }
 814:Drivers/STM32F4xx_HAL_Driver/Src/stm32f4xx_hal_sdram.c **** 
 815:Drivers/STM32F4xx_HAL_Driver/Src/stm32f4xx_hal_sdram.c ****   state = hsdram->State;
 816:Drivers/STM32F4xx_HAL_Driver/Src/stm32f4xx_hal_sdram.c ****   if ((state == HAL_SDRAM_STATE_READY) || (state == HAL_SDRAM_STATE_WRITE_PROTECTED))
 817:Drivers/STM32F4xx_HAL_Driver/Src/stm32f4xx_hal_sdram.c ****   {
 818:Drivers/STM32F4xx_HAL_Driver/Src/stm32f4xx_hal_sdram.c ****     switch (CallbackId)
 819:Drivers/STM32F4xx_HAL_Driver/Src/stm32f4xx_hal_sdram.c ****     {
 820:Drivers/STM32F4xx_HAL_Driver/Src/stm32f4xx_hal_sdram.c ****       case HAL_SDRAM_MSP_INIT_CB_ID :
 821:Drivers/STM32F4xx_HAL_Driver/Src/stm32f4xx_hal_sdram.c ****         hsdram->MspInitCallback = pCallback;
 822:Drivers/STM32F4xx_HAL_Driver/Src/stm32f4xx_hal_sdram.c ****         break;
ARM GAS  /tmp/cc7nahFA.s 			page 21


 823:Drivers/STM32F4xx_HAL_Driver/Src/stm32f4xx_hal_sdram.c ****       case HAL_SDRAM_MSP_DEINIT_CB_ID :
 824:Drivers/STM32F4xx_HAL_Driver/Src/stm32f4xx_hal_sdram.c ****         hsdram->MspDeInitCallback = pCallback;
 825:Drivers/STM32F4xx_HAL_Driver/Src/stm32f4xx_hal_sdram.c ****         break;
 826:Drivers/STM32F4xx_HAL_Driver/Src/stm32f4xx_hal_sdram.c ****       case HAL_SDRAM_REFRESH_ERR_CB_ID :
 827:Drivers/STM32F4xx_HAL_Driver/Src/stm32f4xx_hal_sdram.c ****         hsdram->RefreshErrorCallback = pCallback;
 828:Drivers/STM32F4xx_HAL_Driver/Src/stm32f4xx_hal_sdram.c ****         break;
 829:Drivers/STM32F4xx_HAL_Driver/Src/stm32f4xx_hal_sdram.c ****       default :
 830:Drivers/STM32F4xx_HAL_Driver/Src/stm32f4xx_hal_sdram.c ****         /* update return status */
 831:Drivers/STM32F4xx_HAL_Driver/Src/stm32f4xx_hal_sdram.c ****         status =  HAL_ERROR;
 832:Drivers/STM32F4xx_HAL_Driver/Src/stm32f4xx_hal_sdram.c ****         break;
 833:Drivers/STM32F4xx_HAL_Driver/Src/stm32f4xx_hal_sdram.c ****     }
 834:Drivers/STM32F4xx_HAL_Driver/Src/stm32f4xx_hal_sdram.c ****   }
 835:Drivers/STM32F4xx_HAL_Driver/Src/stm32f4xx_hal_sdram.c ****   else if (hsdram->State == HAL_SDRAM_STATE_RESET)
 836:Drivers/STM32F4xx_HAL_Driver/Src/stm32f4xx_hal_sdram.c ****   {
 837:Drivers/STM32F4xx_HAL_Driver/Src/stm32f4xx_hal_sdram.c ****     switch (CallbackId)
 838:Drivers/STM32F4xx_HAL_Driver/Src/stm32f4xx_hal_sdram.c ****     {
 839:Drivers/STM32F4xx_HAL_Driver/Src/stm32f4xx_hal_sdram.c ****       case HAL_SDRAM_MSP_INIT_CB_ID :
 840:Drivers/STM32F4xx_HAL_Driver/Src/stm32f4xx_hal_sdram.c ****         hsdram->MspInitCallback = pCallback;
 841:Drivers/STM32F4xx_HAL_Driver/Src/stm32f4xx_hal_sdram.c ****         break;
 842:Drivers/STM32F4xx_HAL_Driver/Src/stm32f4xx_hal_sdram.c ****       case HAL_SDRAM_MSP_DEINIT_CB_ID :
 843:Drivers/STM32F4xx_HAL_Driver/Src/stm32f4xx_hal_sdram.c ****         hsdram->MspDeInitCallback = pCallback;
 844:Drivers/STM32F4xx_HAL_Driver/Src/stm32f4xx_hal_sdram.c ****         break;
 845:Drivers/STM32F4xx_HAL_Driver/Src/stm32f4xx_hal_sdram.c ****       default :
 846:Drivers/STM32F4xx_HAL_Driver/Src/stm32f4xx_hal_sdram.c ****         /* update return status */
 847:Drivers/STM32F4xx_HAL_Driver/Src/stm32f4xx_hal_sdram.c ****         status =  HAL_ERROR;
 848:Drivers/STM32F4xx_HAL_Driver/Src/stm32f4xx_hal_sdram.c ****         break;
 849:Drivers/STM32F4xx_HAL_Driver/Src/stm32f4xx_hal_sdram.c ****     }
 850:Drivers/STM32F4xx_HAL_Driver/Src/stm32f4xx_hal_sdram.c ****   }
 851:Drivers/STM32F4xx_HAL_Driver/Src/stm32f4xx_hal_sdram.c ****   else
 852:Drivers/STM32F4xx_HAL_Driver/Src/stm32f4xx_hal_sdram.c ****   {
 853:Drivers/STM32F4xx_HAL_Driver/Src/stm32f4xx_hal_sdram.c ****     /* update return status */
 854:Drivers/STM32F4xx_HAL_Driver/Src/stm32f4xx_hal_sdram.c ****     status =  HAL_ERROR;
 855:Drivers/STM32F4xx_HAL_Driver/Src/stm32f4xx_hal_sdram.c ****   }
 856:Drivers/STM32F4xx_HAL_Driver/Src/stm32f4xx_hal_sdram.c **** 
 857:Drivers/STM32F4xx_HAL_Driver/Src/stm32f4xx_hal_sdram.c ****   return status;
 858:Drivers/STM32F4xx_HAL_Driver/Src/stm32f4xx_hal_sdram.c **** }
 859:Drivers/STM32F4xx_HAL_Driver/Src/stm32f4xx_hal_sdram.c **** 
 860:Drivers/STM32F4xx_HAL_Driver/Src/stm32f4xx_hal_sdram.c **** /**
 861:Drivers/STM32F4xx_HAL_Driver/Src/stm32f4xx_hal_sdram.c ****   * @brief  Unregister a User SDRAM Callback
 862:Drivers/STM32F4xx_HAL_Driver/Src/stm32f4xx_hal_sdram.c ****   *         SDRAM Callback is redirected to the weak predefined callback
 863:Drivers/STM32F4xx_HAL_Driver/Src/stm32f4xx_hal_sdram.c ****   * @param hsdram : SDRAM handle
 864:Drivers/STM32F4xx_HAL_Driver/Src/stm32f4xx_hal_sdram.c ****   * @param CallbackId : ID of the callback to be unregistered
 865:Drivers/STM32F4xx_HAL_Driver/Src/stm32f4xx_hal_sdram.c ****   *        This parameter can be one of the following values:
 866:Drivers/STM32F4xx_HAL_Driver/Src/stm32f4xx_hal_sdram.c ****   *          @arg @ref HAL_SDRAM_MSP_INIT_CB_ID       SDRAM MspInit callback ID
 867:Drivers/STM32F4xx_HAL_Driver/Src/stm32f4xx_hal_sdram.c ****   *          @arg @ref HAL_SDRAM_MSP_DEINIT_CB_ID     SDRAM MspDeInit callback ID
 868:Drivers/STM32F4xx_HAL_Driver/Src/stm32f4xx_hal_sdram.c ****   *          @arg @ref HAL_SDRAM_REFRESH_ERR_CB_ID    SDRAM Refresh Error callback ID
 869:Drivers/STM32F4xx_HAL_Driver/Src/stm32f4xx_hal_sdram.c ****   *          @arg @ref HAL_SDRAM_DMA_XFER_CPLT_CB_ID  SDRAM DMA Xfer Complete callback ID
 870:Drivers/STM32F4xx_HAL_Driver/Src/stm32f4xx_hal_sdram.c ****   *          @arg @ref HAL_SDRAM_DMA_XFER_ERR_CB_ID   SDRAM DMA Xfer Error callback ID
 871:Drivers/STM32F4xx_HAL_Driver/Src/stm32f4xx_hal_sdram.c ****   * @retval status
 872:Drivers/STM32F4xx_HAL_Driver/Src/stm32f4xx_hal_sdram.c ****   */
 873:Drivers/STM32F4xx_HAL_Driver/Src/stm32f4xx_hal_sdram.c **** HAL_StatusTypeDef HAL_SDRAM_UnRegisterCallback(SDRAM_HandleTypeDef *hsdram, HAL_SDRAM_CallbackIDTyp
 874:Drivers/STM32F4xx_HAL_Driver/Src/stm32f4xx_hal_sdram.c **** {
 875:Drivers/STM32F4xx_HAL_Driver/Src/stm32f4xx_hal_sdram.c ****   HAL_StatusTypeDef status = HAL_OK;
 876:Drivers/STM32F4xx_HAL_Driver/Src/stm32f4xx_hal_sdram.c ****   HAL_SDRAM_StateTypeDef state;
 877:Drivers/STM32F4xx_HAL_Driver/Src/stm32f4xx_hal_sdram.c **** 
 878:Drivers/STM32F4xx_HAL_Driver/Src/stm32f4xx_hal_sdram.c ****   state = hsdram->State;
 879:Drivers/STM32F4xx_HAL_Driver/Src/stm32f4xx_hal_sdram.c ****   if ((state == HAL_SDRAM_STATE_READY) || (state == HAL_SDRAM_STATE_WRITE_PROTECTED))
ARM GAS  /tmp/cc7nahFA.s 			page 22


 880:Drivers/STM32F4xx_HAL_Driver/Src/stm32f4xx_hal_sdram.c ****   {
 881:Drivers/STM32F4xx_HAL_Driver/Src/stm32f4xx_hal_sdram.c ****     switch (CallbackId)
 882:Drivers/STM32F4xx_HAL_Driver/Src/stm32f4xx_hal_sdram.c ****     {
 883:Drivers/STM32F4xx_HAL_Driver/Src/stm32f4xx_hal_sdram.c ****       case HAL_SDRAM_MSP_INIT_CB_ID :
 884:Drivers/STM32F4xx_HAL_Driver/Src/stm32f4xx_hal_sdram.c ****         hsdram->MspInitCallback = HAL_SDRAM_MspInit;
 885:Drivers/STM32F4xx_HAL_Driver/Src/stm32f4xx_hal_sdram.c ****         break;
 886:Drivers/STM32F4xx_HAL_Driver/Src/stm32f4xx_hal_sdram.c ****       case HAL_SDRAM_MSP_DEINIT_CB_ID :
 887:Drivers/STM32F4xx_HAL_Driver/Src/stm32f4xx_hal_sdram.c ****         hsdram->MspDeInitCallback = HAL_SDRAM_MspDeInit;
 888:Drivers/STM32F4xx_HAL_Driver/Src/stm32f4xx_hal_sdram.c ****         break;
 889:Drivers/STM32F4xx_HAL_Driver/Src/stm32f4xx_hal_sdram.c ****       case HAL_SDRAM_REFRESH_ERR_CB_ID :
 890:Drivers/STM32F4xx_HAL_Driver/Src/stm32f4xx_hal_sdram.c ****         hsdram->RefreshErrorCallback = HAL_SDRAM_RefreshErrorCallback;
 891:Drivers/STM32F4xx_HAL_Driver/Src/stm32f4xx_hal_sdram.c ****         break;
 892:Drivers/STM32F4xx_HAL_Driver/Src/stm32f4xx_hal_sdram.c ****       case HAL_SDRAM_DMA_XFER_CPLT_CB_ID :
 893:Drivers/STM32F4xx_HAL_Driver/Src/stm32f4xx_hal_sdram.c ****         hsdram->DmaXferCpltCallback = HAL_SDRAM_DMA_XferCpltCallback;
 894:Drivers/STM32F4xx_HAL_Driver/Src/stm32f4xx_hal_sdram.c ****         break;
 895:Drivers/STM32F4xx_HAL_Driver/Src/stm32f4xx_hal_sdram.c ****       case HAL_SDRAM_DMA_XFER_ERR_CB_ID :
 896:Drivers/STM32F4xx_HAL_Driver/Src/stm32f4xx_hal_sdram.c ****         hsdram->DmaXferErrorCallback = HAL_SDRAM_DMA_XferErrorCallback;
 897:Drivers/STM32F4xx_HAL_Driver/Src/stm32f4xx_hal_sdram.c ****         break;
 898:Drivers/STM32F4xx_HAL_Driver/Src/stm32f4xx_hal_sdram.c ****       default :
 899:Drivers/STM32F4xx_HAL_Driver/Src/stm32f4xx_hal_sdram.c ****         /* update return status */
 900:Drivers/STM32F4xx_HAL_Driver/Src/stm32f4xx_hal_sdram.c ****         status =  HAL_ERROR;
 901:Drivers/STM32F4xx_HAL_Driver/Src/stm32f4xx_hal_sdram.c ****         break;
 902:Drivers/STM32F4xx_HAL_Driver/Src/stm32f4xx_hal_sdram.c ****     }
 903:Drivers/STM32F4xx_HAL_Driver/Src/stm32f4xx_hal_sdram.c ****   }
 904:Drivers/STM32F4xx_HAL_Driver/Src/stm32f4xx_hal_sdram.c ****   else if (hsdram->State == HAL_SDRAM_STATE_RESET)
 905:Drivers/STM32F4xx_HAL_Driver/Src/stm32f4xx_hal_sdram.c ****   {
 906:Drivers/STM32F4xx_HAL_Driver/Src/stm32f4xx_hal_sdram.c ****     switch (CallbackId)
 907:Drivers/STM32F4xx_HAL_Driver/Src/stm32f4xx_hal_sdram.c ****     {
 908:Drivers/STM32F4xx_HAL_Driver/Src/stm32f4xx_hal_sdram.c ****       case HAL_SDRAM_MSP_INIT_CB_ID :
 909:Drivers/STM32F4xx_HAL_Driver/Src/stm32f4xx_hal_sdram.c ****         hsdram->MspInitCallback = HAL_SDRAM_MspInit;
 910:Drivers/STM32F4xx_HAL_Driver/Src/stm32f4xx_hal_sdram.c ****         break;
 911:Drivers/STM32F4xx_HAL_Driver/Src/stm32f4xx_hal_sdram.c ****       case HAL_SDRAM_MSP_DEINIT_CB_ID :
 912:Drivers/STM32F4xx_HAL_Driver/Src/stm32f4xx_hal_sdram.c ****         hsdram->MspDeInitCallback = HAL_SDRAM_MspDeInit;
 913:Drivers/STM32F4xx_HAL_Driver/Src/stm32f4xx_hal_sdram.c ****         break;
 914:Drivers/STM32F4xx_HAL_Driver/Src/stm32f4xx_hal_sdram.c ****       default :
 915:Drivers/STM32F4xx_HAL_Driver/Src/stm32f4xx_hal_sdram.c ****         /* update return status */
 916:Drivers/STM32F4xx_HAL_Driver/Src/stm32f4xx_hal_sdram.c ****         status =  HAL_ERROR;
 917:Drivers/STM32F4xx_HAL_Driver/Src/stm32f4xx_hal_sdram.c ****         break;
 918:Drivers/STM32F4xx_HAL_Driver/Src/stm32f4xx_hal_sdram.c ****     }
 919:Drivers/STM32F4xx_HAL_Driver/Src/stm32f4xx_hal_sdram.c ****   }
 920:Drivers/STM32F4xx_HAL_Driver/Src/stm32f4xx_hal_sdram.c ****   else
 921:Drivers/STM32F4xx_HAL_Driver/Src/stm32f4xx_hal_sdram.c ****   {
 922:Drivers/STM32F4xx_HAL_Driver/Src/stm32f4xx_hal_sdram.c ****     /* update return status */
 923:Drivers/STM32F4xx_HAL_Driver/Src/stm32f4xx_hal_sdram.c ****     status =  HAL_ERROR;
 924:Drivers/STM32F4xx_HAL_Driver/Src/stm32f4xx_hal_sdram.c ****   }
 925:Drivers/STM32F4xx_HAL_Driver/Src/stm32f4xx_hal_sdram.c **** 
 926:Drivers/STM32F4xx_HAL_Driver/Src/stm32f4xx_hal_sdram.c ****   return status;
 927:Drivers/STM32F4xx_HAL_Driver/Src/stm32f4xx_hal_sdram.c **** }
 928:Drivers/STM32F4xx_HAL_Driver/Src/stm32f4xx_hal_sdram.c **** 
 929:Drivers/STM32F4xx_HAL_Driver/Src/stm32f4xx_hal_sdram.c **** /**
 930:Drivers/STM32F4xx_HAL_Driver/Src/stm32f4xx_hal_sdram.c ****   * @brief  Register a User SDRAM Callback for DMA transfers
 931:Drivers/STM32F4xx_HAL_Driver/Src/stm32f4xx_hal_sdram.c ****   *         To be used to override the weak predefined callback
 932:Drivers/STM32F4xx_HAL_Driver/Src/stm32f4xx_hal_sdram.c ****   * @param hsdram : SDRAM handle
 933:Drivers/STM32F4xx_HAL_Driver/Src/stm32f4xx_hal_sdram.c ****   * @param CallbackId : ID of the callback to be registered
 934:Drivers/STM32F4xx_HAL_Driver/Src/stm32f4xx_hal_sdram.c ****   *        This parameter can be one of the following values:
 935:Drivers/STM32F4xx_HAL_Driver/Src/stm32f4xx_hal_sdram.c ****   *          @arg @ref HAL_SDRAM_DMA_XFER_CPLT_CB_ID  SDRAM DMA Xfer Complete callback ID
 936:Drivers/STM32F4xx_HAL_Driver/Src/stm32f4xx_hal_sdram.c ****   *          @arg @ref HAL_SDRAM_DMA_XFER_ERR_CB_ID   SDRAM DMA Xfer Error callback ID
ARM GAS  /tmp/cc7nahFA.s 			page 23


 937:Drivers/STM32F4xx_HAL_Driver/Src/stm32f4xx_hal_sdram.c ****   * @param pCallback : pointer to the Callback function
 938:Drivers/STM32F4xx_HAL_Driver/Src/stm32f4xx_hal_sdram.c ****   * @retval status
 939:Drivers/STM32F4xx_HAL_Driver/Src/stm32f4xx_hal_sdram.c ****   */
 940:Drivers/STM32F4xx_HAL_Driver/Src/stm32f4xx_hal_sdram.c **** HAL_StatusTypeDef HAL_SDRAM_RegisterDmaCallback(SDRAM_HandleTypeDef *hsdram, HAL_SDRAM_CallbackIDTy
 941:Drivers/STM32F4xx_HAL_Driver/Src/stm32f4xx_hal_sdram.c ****                                                 pSDRAM_DmaCallbackTypeDef pCallback)
 942:Drivers/STM32F4xx_HAL_Driver/Src/stm32f4xx_hal_sdram.c **** {
 943:Drivers/STM32F4xx_HAL_Driver/Src/stm32f4xx_hal_sdram.c ****   HAL_StatusTypeDef status = HAL_OK;
 944:Drivers/STM32F4xx_HAL_Driver/Src/stm32f4xx_hal_sdram.c ****   HAL_SDRAM_StateTypeDef state;
 945:Drivers/STM32F4xx_HAL_Driver/Src/stm32f4xx_hal_sdram.c **** 
 946:Drivers/STM32F4xx_HAL_Driver/Src/stm32f4xx_hal_sdram.c ****   if (pCallback == NULL)
 947:Drivers/STM32F4xx_HAL_Driver/Src/stm32f4xx_hal_sdram.c ****   {
 948:Drivers/STM32F4xx_HAL_Driver/Src/stm32f4xx_hal_sdram.c ****     return HAL_ERROR;
 949:Drivers/STM32F4xx_HAL_Driver/Src/stm32f4xx_hal_sdram.c ****   }
 950:Drivers/STM32F4xx_HAL_Driver/Src/stm32f4xx_hal_sdram.c **** 
 951:Drivers/STM32F4xx_HAL_Driver/Src/stm32f4xx_hal_sdram.c ****   /* Process locked */
 952:Drivers/STM32F4xx_HAL_Driver/Src/stm32f4xx_hal_sdram.c ****   __HAL_LOCK(hsdram);
 953:Drivers/STM32F4xx_HAL_Driver/Src/stm32f4xx_hal_sdram.c **** 
 954:Drivers/STM32F4xx_HAL_Driver/Src/stm32f4xx_hal_sdram.c ****   state = hsdram->State;
 955:Drivers/STM32F4xx_HAL_Driver/Src/stm32f4xx_hal_sdram.c ****   if ((state == HAL_SDRAM_STATE_READY) || (state == HAL_SDRAM_STATE_WRITE_PROTECTED))
 956:Drivers/STM32F4xx_HAL_Driver/Src/stm32f4xx_hal_sdram.c ****   {
 957:Drivers/STM32F4xx_HAL_Driver/Src/stm32f4xx_hal_sdram.c ****     switch (CallbackId)
 958:Drivers/STM32F4xx_HAL_Driver/Src/stm32f4xx_hal_sdram.c ****     {
 959:Drivers/STM32F4xx_HAL_Driver/Src/stm32f4xx_hal_sdram.c ****       case HAL_SDRAM_DMA_XFER_CPLT_CB_ID :
 960:Drivers/STM32F4xx_HAL_Driver/Src/stm32f4xx_hal_sdram.c ****         hsdram->DmaXferCpltCallback = pCallback;
 961:Drivers/STM32F4xx_HAL_Driver/Src/stm32f4xx_hal_sdram.c ****         break;
 962:Drivers/STM32F4xx_HAL_Driver/Src/stm32f4xx_hal_sdram.c ****       case HAL_SDRAM_DMA_XFER_ERR_CB_ID :
 963:Drivers/STM32F4xx_HAL_Driver/Src/stm32f4xx_hal_sdram.c ****         hsdram->DmaXferErrorCallback = pCallback;
 964:Drivers/STM32F4xx_HAL_Driver/Src/stm32f4xx_hal_sdram.c ****         break;
 965:Drivers/STM32F4xx_HAL_Driver/Src/stm32f4xx_hal_sdram.c ****       default :
 966:Drivers/STM32F4xx_HAL_Driver/Src/stm32f4xx_hal_sdram.c ****         /* update return status */
 967:Drivers/STM32F4xx_HAL_Driver/Src/stm32f4xx_hal_sdram.c ****         status =  HAL_ERROR;
 968:Drivers/STM32F4xx_HAL_Driver/Src/stm32f4xx_hal_sdram.c ****         break;
 969:Drivers/STM32F4xx_HAL_Driver/Src/stm32f4xx_hal_sdram.c ****     }
 970:Drivers/STM32F4xx_HAL_Driver/Src/stm32f4xx_hal_sdram.c ****   }
 971:Drivers/STM32F4xx_HAL_Driver/Src/stm32f4xx_hal_sdram.c ****   else
 972:Drivers/STM32F4xx_HAL_Driver/Src/stm32f4xx_hal_sdram.c ****   {
 973:Drivers/STM32F4xx_HAL_Driver/Src/stm32f4xx_hal_sdram.c ****     /* update return status */
 974:Drivers/STM32F4xx_HAL_Driver/Src/stm32f4xx_hal_sdram.c ****     status =  HAL_ERROR;
 975:Drivers/STM32F4xx_HAL_Driver/Src/stm32f4xx_hal_sdram.c ****   }
 976:Drivers/STM32F4xx_HAL_Driver/Src/stm32f4xx_hal_sdram.c **** 
 977:Drivers/STM32F4xx_HAL_Driver/Src/stm32f4xx_hal_sdram.c ****   /* Release Lock */
 978:Drivers/STM32F4xx_HAL_Driver/Src/stm32f4xx_hal_sdram.c ****   __HAL_UNLOCK(hsdram);
 979:Drivers/STM32F4xx_HAL_Driver/Src/stm32f4xx_hal_sdram.c ****   return status;
 980:Drivers/STM32F4xx_HAL_Driver/Src/stm32f4xx_hal_sdram.c **** }
 981:Drivers/STM32F4xx_HAL_Driver/Src/stm32f4xx_hal_sdram.c **** #endif /* USE_HAL_SDRAM_REGISTER_CALLBACKS */
 982:Drivers/STM32F4xx_HAL_Driver/Src/stm32f4xx_hal_sdram.c **** 
 983:Drivers/STM32F4xx_HAL_Driver/Src/stm32f4xx_hal_sdram.c **** /**
 984:Drivers/STM32F4xx_HAL_Driver/Src/stm32f4xx_hal_sdram.c ****   * @}
 985:Drivers/STM32F4xx_HAL_Driver/Src/stm32f4xx_hal_sdram.c ****   */
 986:Drivers/STM32F4xx_HAL_Driver/Src/stm32f4xx_hal_sdram.c **** 
 987:Drivers/STM32F4xx_HAL_Driver/Src/stm32f4xx_hal_sdram.c **** /** @defgroup SDRAM_Exported_Functions_Group3 Control functions
 988:Drivers/STM32F4xx_HAL_Driver/Src/stm32f4xx_hal_sdram.c ****   *  @brief   management functions
 989:Drivers/STM32F4xx_HAL_Driver/Src/stm32f4xx_hal_sdram.c ****   *
 990:Drivers/STM32F4xx_HAL_Driver/Src/stm32f4xx_hal_sdram.c **** @verbatim
 991:Drivers/STM32F4xx_HAL_Driver/Src/stm32f4xx_hal_sdram.c ****   ==============================================================================
 992:Drivers/STM32F4xx_HAL_Driver/Src/stm32f4xx_hal_sdram.c ****                          ##### SDRAM Control functions #####
 993:Drivers/STM32F4xx_HAL_Driver/Src/stm32f4xx_hal_sdram.c ****   ==============================================================================
ARM GAS  /tmp/cc7nahFA.s 			page 24


 994:Drivers/STM32F4xx_HAL_Driver/Src/stm32f4xx_hal_sdram.c ****   [..]
 995:Drivers/STM32F4xx_HAL_Driver/Src/stm32f4xx_hal_sdram.c ****     This subsection provides a set of functions allowing to control dynamically
 996:Drivers/STM32F4xx_HAL_Driver/Src/stm32f4xx_hal_sdram.c ****     the SDRAM interface.
 997:Drivers/STM32F4xx_HAL_Driver/Src/stm32f4xx_hal_sdram.c **** 
 998:Drivers/STM32F4xx_HAL_Driver/Src/stm32f4xx_hal_sdram.c **** @endverbatim
 999:Drivers/STM32F4xx_HAL_Driver/Src/stm32f4xx_hal_sdram.c ****   * @{
1000:Drivers/STM32F4xx_HAL_Driver/Src/stm32f4xx_hal_sdram.c ****   */
1001:Drivers/STM32F4xx_HAL_Driver/Src/stm32f4xx_hal_sdram.c **** 
1002:Drivers/STM32F4xx_HAL_Driver/Src/stm32f4xx_hal_sdram.c **** /**
1003:Drivers/STM32F4xx_HAL_Driver/Src/stm32f4xx_hal_sdram.c ****   * @brief  Enables dynamically SDRAM write protection.
1004:Drivers/STM32F4xx_HAL_Driver/Src/stm32f4xx_hal_sdram.c ****   * @param  hsdram pointer to a SDRAM_HandleTypeDef structure that contains
1005:Drivers/STM32F4xx_HAL_Driver/Src/stm32f4xx_hal_sdram.c ****   *                the configuration information for SDRAM module.
1006:Drivers/STM32F4xx_HAL_Driver/Src/stm32f4xx_hal_sdram.c ****   * @retval HAL status
1007:Drivers/STM32F4xx_HAL_Driver/Src/stm32f4xx_hal_sdram.c ****   */
1008:Drivers/STM32F4xx_HAL_Driver/Src/stm32f4xx_hal_sdram.c **** HAL_StatusTypeDef HAL_SDRAM_WriteProtection_Enable(SDRAM_HandleTypeDef *hsdram)
1009:Drivers/STM32F4xx_HAL_Driver/Src/stm32f4xx_hal_sdram.c **** {
1010:Drivers/STM32F4xx_HAL_Driver/Src/stm32f4xx_hal_sdram.c ****   /* Check the SDRAM controller state */
1011:Drivers/STM32F4xx_HAL_Driver/Src/stm32f4xx_hal_sdram.c ****   if (hsdram->State == HAL_SDRAM_STATE_BUSY)
1012:Drivers/STM32F4xx_HAL_Driver/Src/stm32f4xx_hal_sdram.c ****   {
1013:Drivers/STM32F4xx_HAL_Driver/Src/stm32f4xx_hal_sdram.c ****     return HAL_BUSY;
1014:Drivers/STM32F4xx_HAL_Driver/Src/stm32f4xx_hal_sdram.c ****   }
1015:Drivers/STM32F4xx_HAL_Driver/Src/stm32f4xx_hal_sdram.c ****   else if (hsdram->State == HAL_SDRAM_STATE_READY)
1016:Drivers/STM32F4xx_HAL_Driver/Src/stm32f4xx_hal_sdram.c ****   {
1017:Drivers/STM32F4xx_HAL_Driver/Src/stm32f4xx_hal_sdram.c ****     /* Update the SDRAM state */
1018:Drivers/STM32F4xx_HAL_Driver/Src/stm32f4xx_hal_sdram.c ****     hsdram->State = HAL_SDRAM_STATE_BUSY;
1019:Drivers/STM32F4xx_HAL_Driver/Src/stm32f4xx_hal_sdram.c **** 
1020:Drivers/STM32F4xx_HAL_Driver/Src/stm32f4xx_hal_sdram.c ****     /* Enable write protection */
1021:Drivers/STM32F4xx_HAL_Driver/Src/stm32f4xx_hal_sdram.c ****     (void)FMC_SDRAM_WriteProtection_Enable(hsdram->Instance, hsdram->Init.SDBank);
1022:Drivers/STM32F4xx_HAL_Driver/Src/stm32f4xx_hal_sdram.c **** 
1023:Drivers/STM32F4xx_HAL_Driver/Src/stm32f4xx_hal_sdram.c ****     /* Update the SDRAM state */
1024:Drivers/STM32F4xx_HAL_Driver/Src/stm32f4xx_hal_sdram.c ****     hsdram->State = HAL_SDRAM_STATE_WRITE_PROTECTED;
1025:Drivers/STM32F4xx_HAL_Driver/Src/stm32f4xx_hal_sdram.c ****   }
1026:Drivers/STM32F4xx_HAL_Driver/Src/stm32f4xx_hal_sdram.c ****   else
1027:Drivers/STM32F4xx_HAL_Driver/Src/stm32f4xx_hal_sdram.c ****   {
1028:Drivers/STM32F4xx_HAL_Driver/Src/stm32f4xx_hal_sdram.c ****     return HAL_ERROR;
1029:Drivers/STM32F4xx_HAL_Driver/Src/stm32f4xx_hal_sdram.c ****   }
1030:Drivers/STM32F4xx_HAL_Driver/Src/stm32f4xx_hal_sdram.c **** 
1031:Drivers/STM32F4xx_HAL_Driver/Src/stm32f4xx_hal_sdram.c ****   return HAL_OK;
1032:Drivers/STM32F4xx_HAL_Driver/Src/stm32f4xx_hal_sdram.c **** }
1033:Drivers/STM32F4xx_HAL_Driver/Src/stm32f4xx_hal_sdram.c **** 
1034:Drivers/STM32F4xx_HAL_Driver/Src/stm32f4xx_hal_sdram.c **** /**
1035:Drivers/STM32F4xx_HAL_Driver/Src/stm32f4xx_hal_sdram.c ****   * @brief  Disables dynamically SDRAM write protection.
1036:Drivers/STM32F4xx_HAL_Driver/Src/stm32f4xx_hal_sdram.c ****   * @param  hsdram pointer to a SDRAM_HandleTypeDef structure that contains
1037:Drivers/STM32F4xx_HAL_Driver/Src/stm32f4xx_hal_sdram.c ****   *                the configuration information for SDRAM module.
1038:Drivers/STM32F4xx_HAL_Driver/Src/stm32f4xx_hal_sdram.c ****   * @retval HAL status
1039:Drivers/STM32F4xx_HAL_Driver/Src/stm32f4xx_hal_sdram.c ****   */
1040:Drivers/STM32F4xx_HAL_Driver/Src/stm32f4xx_hal_sdram.c **** HAL_StatusTypeDef HAL_SDRAM_WriteProtection_Disable(SDRAM_HandleTypeDef *hsdram)
1041:Drivers/STM32F4xx_HAL_Driver/Src/stm32f4xx_hal_sdram.c **** {
1042:Drivers/STM32F4xx_HAL_Driver/Src/stm32f4xx_hal_sdram.c ****   HAL_SDRAM_StateTypeDef state = hsdram->State;
1043:Drivers/STM32F4xx_HAL_Driver/Src/stm32f4xx_hal_sdram.c **** 
1044:Drivers/STM32F4xx_HAL_Driver/Src/stm32f4xx_hal_sdram.c ****   /* Check the SDRAM controller state */
1045:Drivers/STM32F4xx_HAL_Driver/Src/stm32f4xx_hal_sdram.c ****   if (state == HAL_SDRAM_STATE_BUSY)
1046:Drivers/STM32F4xx_HAL_Driver/Src/stm32f4xx_hal_sdram.c ****   {
1047:Drivers/STM32F4xx_HAL_Driver/Src/stm32f4xx_hal_sdram.c ****     return HAL_BUSY;
1048:Drivers/STM32F4xx_HAL_Driver/Src/stm32f4xx_hal_sdram.c ****   }
1049:Drivers/STM32F4xx_HAL_Driver/Src/stm32f4xx_hal_sdram.c ****   else if (state == HAL_SDRAM_STATE_WRITE_PROTECTED)
1050:Drivers/STM32F4xx_HAL_Driver/Src/stm32f4xx_hal_sdram.c ****   {
ARM GAS  /tmp/cc7nahFA.s 			page 25


1051:Drivers/STM32F4xx_HAL_Driver/Src/stm32f4xx_hal_sdram.c ****     /* Update the SDRAM state */
1052:Drivers/STM32F4xx_HAL_Driver/Src/stm32f4xx_hal_sdram.c ****     hsdram->State = HAL_SDRAM_STATE_BUSY;
1053:Drivers/STM32F4xx_HAL_Driver/Src/stm32f4xx_hal_sdram.c **** 
1054:Drivers/STM32F4xx_HAL_Driver/Src/stm32f4xx_hal_sdram.c ****     /* Disable write protection */
1055:Drivers/STM32F4xx_HAL_Driver/Src/stm32f4xx_hal_sdram.c ****     (void)FMC_SDRAM_WriteProtection_Disable(hsdram->Instance, hsdram->Init.SDBank);
1056:Drivers/STM32F4xx_HAL_Driver/Src/stm32f4xx_hal_sdram.c **** 
1057:Drivers/STM32F4xx_HAL_Driver/Src/stm32f4xx_hal_sdram.c ****     /* Update the SDRAM state */
1058:Drivers/STM32F4xx_HAL_Driver/Src/stm32f4xx_hal_sdram.c ****     hsdram->State = HAL_SDRAM_STATE_READY;
1059:Drivers/STM32F4xx_HAL_Driver/Src/stm32f4xx_hal_sdram.c ****   }
1060:Drivers/STM32F4xx_HAL_Driver/Src/stm32f4xx_hal_sdram.c ****   else
1061:Drivers/STM32F4xx_HAL_Driver/Src/stm32f4xx_hal_sdram.c ****   {
1062:Drivers/STM32F4xx_HAL_Driver/Src/stm32f4xx_hal_sdram.c ****     return HAL_ERROR;
1063:Drivers/STM32F4xx_HAL_Driver/Src/stm32f4xx_hal_sdram.c ****   }
1064:Drivers/STM32F4xx_HAL_Driver/Src/stm32f4xx_hal_sdram.c **** 
1065:Drivers/STM32F4xx_HAL_Driver/Src/stm32f4xx_hal_sdram.c ****   return HAL_OK;
1066:Drivers/STM32F4xx_HAL_Driver/Src/stm32f4xx_hal_sdram.c **** }
1067:Drivers/STM32F4xx_HAL_Driver/Src/stm32f4xx_hal_sdram.c **** 
1068:Drivers/STM32F4xx_HAL_Driver/Src/stm32f4xx_hal_sdram.c **** /**
1069:Drivers/STM32F4xx_HAL_Driver/Src/stm32f4xx_hal_sdram.c ****   * @brief  Sends Command to the SDRAM bank.
1070:Drivers/STM32F4xx_HAL_Driver/Src/stm32f4xx_hal_sdram.c ****   * @param  hsdram pointer to a SDRAM_HandleTypeDef structure that contains
1071:Drivers/STM32F4xx_HAL_Driver/Src/stm32f4xx_hal_sdram.c ****   *                the configuration information for SDRAM module.
1072:Drivers/STM32F4xx_HAL_Driver/Src/stm32f4xx_hal_sdram.c ****   * @param  Command SDRAM command structure
1073:Drivers/STM32F4xx_HAL_Driver/Src/stm32f4xx_hal_sdram.c ****   * @param  Timeout Timeout duration
1074:Drivers/STM32F4xx_HAL_Driver/Src/stm32f4xx_hal_sdram.c ****   * @retval HAL status
1075:Drivers/STM32F4xx_HAL_Driver/Src/stm32f4xx_hal_sdram.c ****   */
1076:Drivers/STM32F4xx_HAL_Driver/Src/stm32f4xx_hal_sdram.c **** HAL_StatusTypeDef HAL_SDRAM_SendCommand(SDRAM_HandleTypeDef *hsdram, FMC_SDRAM_CommandTypeDef *Comm
1077:Drivers/STM32F4xx_HAL_Driver/Src/stm32f4xx_hal_sdram.c ****                                         uint32_t Timeout)
1078:Drivers/STM32F4xx_HAL_Driver/Src/stm32f4xx_hal_sdram.c **** {
1079:Drivers/STM32F4xx_HAL_Driver/Src/stm32f4xx_hal_sdram.c ****   HAL_SDRAM_StateTypeDef state = hsdram->State;
1080:Drivers/STM32F4xx_HAL_Driver/Src/stm32f4xx_hal_sdram.c **** 
1081:Drivers/STM32F4xx_HAL_Driver/Src/stm32f4xx_hal_sdram.c ****   /* Check the SDRAM controller state */
1082:Drivers/STM32F4xx_HAL_Driver/Src/stm32f4xx_hal_sdram.c ****   if (state == HAL_SDRAM_STATE_BUSY)
1083:Drivers/STM32F4xx_HAL_Driver/Src/stm32f4xx_hal_sdram.c ****   {
1084:Drivers/STM32F4xx_HAL_Driver/Src/stm32f4xx_hal_sdram.c ****     return HAL_BUSY;
1085:Drivers/STM32F4xx_HAL_Driver/Src/stm32f4xx_hal_sdram.c ****   }
1086:Drivers/STM32F4xx_HAL_Driver/Src/stm32f4xx_hal_sdram.c ****   else if ((state == HAL_SDRAM_STATE_READY) || (state == HAL_SDRAM_STATE_PRECHARGED))
1087:Drivers/STM32F4xx_HAL_Driver/Src/stm32f4xx_hal_sdram.c ****   {
1088:Drivers/STM32F4xx_HAL_Driver/Src/stm32f4xx_hal_sdram.c ****     /* Update the SDRAM state */
1089:Drivers/STM32F4xx_HAL_Driver/Src/stm32f4xx_hal_sdram.c ****     hsdram->State = HAL_SDRAM_STATE_BUSY;
1090:Drivers/STM32F4xx_HAL_Driver/Src/stm32f4xx_hal_sdram.c **** 
1091:Drivers/STM32F4xx_HAL_Driver/Src/stm32f4xx_hal_sdram.c ****     /* Send SDRAM command */
1092:Drivers/STM32F4xx_HAL_Driver/Src/stm32f4xx_hal_sdram.c ****     (void)FMC_SDRAM_SendCommand(hsdram->Instance, Command, Timeout);
1093:Drivers/STM32F4xx_HAL_Driver/Src/stm32f4xx_hal_sdram.c **** 
1094:Drivers/STM32F4xx_HAL_Driver/Src/stm32f4xx_hal_sdram.c ****     /* Update the SDRAM controller state state */
1095:Drivers/STM32F4xx_HAL_Driver/Src/stm32f4xx_hal_sdram.c ****     if (Command->CommandMode == FMC_SDRAM_CMD_PALL)
1096:Drivers/STM32F4xx_HAL_Driver/Src/stm32f4xx_hal_sdram.c ****     {
1097:Drivers/STM32F4xx_HAL_Driver/Src/stm32f4xx_hal_sdram.c ****       hsdram->State = HAL_SDRAM_STATE_PRECHARGED;
1098:Drivers/STM32F4xx_HAL_Driver/Src/stm32f4xx_hal_sdram.c ****     }
1099:Drivers/STM32F4xx_HAL_Driver/Src/stm32f4xx_hal_sdram.c ****     else
1100:Drivers/STM32F4xx_HAL_Driver/Src/stm32f4xx_hal_sdram.c ****     {
1101:Drivers/STM32F4xx_HAL_Driver/Src/stm32f4xx_hal_sdram.c ****       hsdram->State = HAL_SDRAM_STATE_READY;
1102:Drivers/STM32F4xx_HAL_Driver/Src/stm32f4xx_hal_sdram.c ****     }
1103:Drivers/STM32F4xx_HAL_Driver/Src/stm32f4xx_hal_sdram.c ****   }
1104:Drivers/STM32F4xx_HAL_Driver/Src/stm32f4xx_hal_sdram.c ****   else
1105:Drivers/STM32F4xx_HAL_Driver/Src/stm32f4xx_hal_sdram.c ****   {
1106:Drivers/STM32F4xx_HAL_Driver/Src/stm32f4xx_hal_sdram.c ****     return HAL_ERROR;
1107:Drivers/STM32F4xx_HAL_Driver/Src/stm32f4xx_hal_sdram.c ****   }
ARM GAS  /tmp/cc7nahFA.s 			page 26


1108:Drivers/STM32F4xx_HAL_Driver/Src/stm32f4xx_hal_sdram.c **** 
1109:Drivers/STM32F4xx_HAL_Driver/Src/stm32f4xx_hal_sdram.c ****   return HAL_OK;
1110:Drivers/STM32F4xx_HAL_Driver/Src/stm32f4xx_hal_sdram.c **** }
1111:Drivers/STM32F4xx_HAL_Driver/Src/stm32f4xx_hal_sdram.c **** 
1112:Drivers/STM32F4xx_HAL_Driver/Src/stm32f4xx_hal_sdram.c **** /**
1113:Drivers/STM32F4xx_HAL_Driver/Src/stm32f4xx_hal_sdram.c ****   * @brief  Programs the SDRAM Memory Refresh rate.
1114:Drivers/STM32F4xx_HAL_Driver/Src/stm32f4xx_hal_sdram.c ****   * @param  hsdram pointer to a SDRAM_HandleTypeDef structure that contains
1115:Drivers/STM32F4xx_HAL_Driver/Src/stm32f4xx_hal_sdram.c ****   *                the configuration information for SDRAM module.
1116:Drivers/STM32F4xx_HAL_Driver/Src/stm32f4xx_hal_sdram.c ****   * @param  RefreshRate The SDRAM refresh rate value
1117:Drivers/STM32F4xx_HAL_Driver/Src/stm32f4xx_hal_sdram.c ****   * @retval HAL status
1118:Drivers/STM32F4xx_HAL_Driver/Src/stm32f4xx_hal_sdram.c ****   */
1119:Drivers/STM32F4xx_HAL_Driver/Src/stm32f4xx_hal_sdram.c **** HAL_StatusTypeDef HAL_SDRAM_ProgramRefreshRate(SDRAM_HandleTypeDef *hsdram, uint32_t RefreshRate)
1120:Drivers/STM32F4xx_HAL_Driver/Src/stm32f4xx_hal_sdram.c **** {
1121:Drivers/STM32F4xx_HAL_Driver/Src/stm32f4xx_hal_sdram.c ****   /* Check the SDRAM controller state */
1122:Drivers/STM32F4xx_HAL_Driver/Src/stm32f4xx_hal_sdram.c ****   if (hsdram->State == HAL_SDRAM_STATE_BUSY)
1123:Drivers/STM32F4xx_HAL_Driver/Src/stm32f4xx_hal_sdram.c ****   {
1124:Drivers/STM32F4xx_HAL_Driver/Src/stm32f4xx_hal_sdram.c ****     return HAL_BUSY;
1125:Drivers/STM32F4xx_HAL_Driver/Src/stm32f4xx_hal_sdram.c ****   }
1126:Drivers/STM32F4xx_HAL_Driver/Src/stm32f4xx_hal_sdram.c ****   else if (hsdram->State == HAL_SDRAM_STATE_READY)
1127:Drivers/STM32F4xx_HAL_Driver/Src/stm32f4xx_hal_sdram.c ****   {
1128:Drivers/STM32F4xx_HAL_Driver/Src/stm32f4xx_hal_sdram.c ****     /* Update the SDRAM state */
1129:Drivers/STM32F4xx_HAL_Driver/Src/stm32f4xx_hal_sdram.c ****     hsdram->State = HAL_SDRAM_STATE_BUSY;
1130:Drivers/STM32F4xx_HAL_Driver/Src/stm32f4xx_hal_sdram.c **** 
1131:Drivers/STM32F4xx_HAL_Driver/Src/stm32f4xx_hal_sdram.c ****     /* Program the refresh rate */
1132:Drivers/STM32F4xx_HAL_Driver/Src/stm32f4xx_hal_sdram.c ****     (void)FMC_SDRAM_ProgramRefreshRate(hsdram->Instance, RefreshRate);
1133:Drivers/STM32F4xx_HAL_Driver/Src/stm32f4xx_hal_sdram.c **** 
1134:Drivers/STM32F4xx_HAL_Driver/Src/stm32f4xx_hal_sdram.c ****     /* Update the SDRAM state */
1135:Drivers/STM32F4xx_HAL_Driver/Src/stm32f4xx_hal_sdram.c ****     hsdram->State = HAL_SDRAM_STATE_READY;
1136:Drivers/STM32F4xx_HAL_Driver/Src/stm32f4xx_hal_sdram.c ****   }
1137:Drivers/STM32F4xx_HAL_Driver/Src/stm32f4xx_hal_sdram.c ****   else
1138:Drivers/STM32F4xx_HAL_Driver/Src/stm32f4xx_hal_sdram.c ****   {
1139:Drivers/STM32F4xx_HAL_Driver/Src/stm32f4xx_hal_sdram.c ****     return HAL_ERROR;
1140:Drivers/STM32F4xx_HAL_Driver/Src/stm32f4xx_hal_sdram.c ****   }
1141:Drivers/STM32F4xx_HAL_Driver/Src/stm32f4xx_hal_sdram.c **** 
1142:Drivers/STM32F4xx_HAL_Driver/Src/stm32f4xx_hal_sdram.c ****   return HAL_OK;
1143:Drivers/STM32F4xx_HAL_Driver/Src/stm32f4xx_hal_sdram.c **** }
1144:Drivers/STM32F4xx_HAL_Driver/Src/stm32f4xx_hal_sdram.c **** 
1145:Drivers/STM32F4xx_HAL_Driver/Src/stm32f4xx_hal_sdram.c **** /**
1146:Drivers/STM32F4xx_HAL_Driver/Src/stm32f4xx_hal_sdram.c ****   * @brief  Sets the Number of consecutive SDRAM Memory auto Refresh commands.
1147:Drivers/STM32F4xx_HAL_Driver/Src/stm32f4xx_hal_sdram.c ****   * @param  hsdram pointer to a SDRAM_HandleTypeDef structure that contains
1148:Drivers/STM32F4xx_HAL_Driver/Src/stm32f4xx_hal_sdram.c ****   *                the configuration information for SDRAM module.
1149:Drivers/STM32F4xx_HAL_Driver/Src/stm32f4xx_hal_sdram.c ****   * @param  AutoRefreshNumber The SDRAM auto Refresh number
1150:Drivers/STM32F4xx_HAL_Driver/Src/stm32f4xx_hal_sdram.c ****   * @retval HAL status
1151:Drivers/STM32F4xx_HAL_Driver/Src/stm32f4xx_hal_sdram.c ****   */
1152:Drivers/STM32F4xx_HAL_Driver/Src/stm32f4xx_hal_sdram.c **** HAL_StatusTypeDef HAL_SDRAM_SetAutoRefreshNumber(SDRAM_HandleTypeDef *hsdram, uint32_t AutoRefreshN
1153:Drivers/STM32F4xx_HAL_Driver/Src/stm32f4xx_hal_sdram.c **** {
1154:Drivers/STM32F4xx_HAL_Driver/Src/stm32f4xx_hal_sdram.c ****   /* Check the SDRAM controller state */
1155:Drivers/STM32F4xx_HAL_Driver/Src/stm32f4xx_hal_sdram.c ****   if (hsdram->State == HAL_SDRAM_STATE_BUSY)
1156:Drivers/STM32F4xx_HAL_Driver/Src/stm32f4xx_hal_sdram.c ****   {
1157:Drivers/STM32F4xx_HAL_Driver/Src/stm32f4xx_hal_sdram.c ****     return HAL_BUSY;
1158:Drivers/STM32F4xx_HAL_Driver/Src/stm32f4xx_hal_sdram.c ****   }
1159:Drivers/STM32F4xx_HAL_Driver/Src/stm32f4xx_hal_sdram.c ****   else if (hsdram->State == HAL_SDRAM_STATE_READY)
1160:Drivers/STM32F4xx_HAL_Driver/Src/stm32f4xx_hal_sdram.c ****   {
1161:Drivers/STM32F4xx_HAL_Driver/Src/stm32f4xx_hal_sdram.c ****     /* Update the SDRAM state */
1162:Drivers/STM32F4xx_HAL_Driver/Src/stm32f4xx_hal_sdram.c ****     hsdram->State = HAL_SDRAM_STATE_BUSY;
1163:Drivers/STM32F4xx_HAL_Driver/Src/stm32f4xx_hal_sdram.c **** 
1164:Drivers/STM32F4xx_HAL_Driver/Src/stm32f4xx_hal_sdram.c ****     /* Set the Auto-Refresh number */
ARM GAS  /tmp/cc7nahFA.s 			page 27


1165:Drivers/STM32F4xx_HAL_Driver/Src/stm32f4xx_hal_sdram.c ****     (void)FMC_SDRAM_SetAutoRefreshNumber(hsdram->Instance, AutoRefreshNumber);
1166:Drivers/STM32F4xx_HAL_Driver/Src/stm32f4xx_hal_sdram.c **** 
1167:Drivers/STM32F4xx_HAL_Driver/Src/stm32f4xx_hal_sdram.c ****     /* Update the SDRAM state */
1168:Drivers/STM32F4xx_HAL_Driver/Src/stm32f4xx_hal_sdram.c ****     hsdram->State = HAL_SDRAM_STATE_READY;
1169:Drivers/STM32F4xx_HAL_Driver/Src/stm32f4xx_hal_sdram.c ****   }
1170:Drivers/STM32F4xx_HAL_Driver/Src/stm32f4xx_hal_sdram.c ****   else
1171:Drivers/STM32F4xx_HAL_Driver/Src/stm32f4xx_hal_sdram.c ****   {
1172:Drivers/STM32F4xx_HAL_Driver/Src/stm32f4xx_hal_sdram.c ****     return HAL_ERROR;
1173:Drivers/STM32F4xx_HAL_Driver/Src/stm32f4xx_hal_sdram.c ****   }
1174:Drivers/STM32F4xx_HAL_Driver/Src/stm32f4xx_hal_sdram.c **** 
1175:Drivers/STM32F4xx_HAL_Driver/Src/stm32f4xx_hal_sdram.c ****   return HAL_OK;
1176:Drivers/STM32F4xx_HAL_Driver/Src/stm32f4xx_hal_sdram.c **** }
1177:Drivers/STM32F4xx_HAL_Driver/Src/stm32f4xx_hal_sdram.c **** 
1178:Drivers/STM32F4xx_HAL_Driver/Src/stm32f4xx_hal_sdram.c **** /**
1179:Drivers/STM32F4xx_HAL_Driver/Src/stm32f4xx_hal_sdram.c ****   * @brief  Returns the SDRAM memory current mode.
1180:Drivers/STM32F4xx_HAL_Driver/Src/stm32f4xx_hal_sdram.c ****   * @param  hsdram pointer to a SDRAM_HandleTypeDef structure that contains
1181:Drivers/STM32F4xx_HAL_Driver/Src/stm32f4xx_hal_sdram.c ****   *                the configuration information for SDRAM module.
1182:Drivers/STM32F4xx_HAL_Driver/Src/stm32f4xx_hal_sdram.c ****   * @retval The SDRAM memory mode.
1183:Drivers/STM32F4xx_HAL_Driver/Src/stm32f4xx_hal_sdram.c ****   */
1184:Drivers/STM32F4xx_HAL_Driver/Src/stm32f4xx_hal_sdram.c **** uint32_t HAL_SDRAM_GetModeStatus(SDRAM_HandleTypeDef *hsdram)
1185:Drivers/STM32F4xx_HAL_Driver/Src/stm32f4xx_hal_sdram.c **** {
1186:Drivers/STM32F4xx_HAL_Driver/Src/stm32f4xx_hal_sdram.c ****   /* Return the SDRAM memory current mode */
1187:Drivers/STM32F4xx_HAL_Driver/Src/stm32f4xx_hal_sdram.c ****   return (FMC_SDRAM_GetModeStatus(hsdram->Instance, hsdram->Init.SDBank));
1188:Drivers/STM32F4xx_HAL_Driver/Src/stm32f4xx_hal_sdram.c **** }
1189:Drivers/STM32F4xx_HAL_Driver/Src/stm32f4xx_hal_sdram.c **** 
1190:Drivers/STM32F4xx_HAL_Driver/Src/stm32f4xx_hal_sdram.c **** /**
1191:Drivers/STM32F4xx_HAL_Driver/Src/stm32f4xx_hal_sdram.c ****   * @}
1192:Drivers/STM32F4xx_HAL_Driver/Src/stm32f4xx_hal_sdram.c ****   */
1193:Drivers/STM32F4xx_HAL_Driver/Src/stm32f4xx_hal_sdram.c **** 
1194:Drivers/STM32F4xx_HAL_Driver/Src/stm32f4xx_hal_sdram.c **** /** @defgroup SDRAM_Exported_Functions_Group4 State functions
1195:Drivers/STM32F4xx_HAL_Driver/Src/stm32f4xx_hal_sdram.c ****   *  @brief   Peripheral State functions
1196:Drivers/STM32F4xx_HAL_Driver/Src/stm32f4xx_hal_sdram.c ****   *
1197:Drivers/STM32F4xx_HAL_Driver/Src/stm32f4xx_hal_sdram.c **** @verbatim
1198:Drivers/STM32F4xx_HAL_Driver/Src/stm32f4xx_hal_sdram.c ****   ==============================================================================
1199:Drivers/STM32F4xx_HAL_Driver/Src/stm32f4xx_hal_sdram.c ****                       ##### SDRAM State functions #####
1200:Drivers/STM32F4xx_HAL_Driver/Src/stm32f4xx_hal_sdram.c ****   ==============================================================================
1201:Drivers/STM32F4xx_HAL_Driver/Src/stm32f4xx_hal_sdram.c ****   [..]
1202:Drivers/STM32F4xx_HAL_Driver/Src/stm32f4xx_hal_sdram.c ****     This subsection permits to get in run-time the status of the SDRAM controller
1203:Drivers/STM32F4xx_HAL_Driver/Src/stm32f4xx_hal_sdram.c ****     and the data flow.
1204:Drivers/STM32F4xx_HAL_Driver/Src/stm32f4xx_hal_sdram.c **** 
1205:Drivers/STM32F4xx_HAL_Driver/Src/stm32f4xx_hal_sdram.c **** @endverbatim
1206:Drivers/STM32F4xx_HAL_Driver/Src/stm32f4xx_hal_sdram.c ****   * @{
1207:Drivers/STM32F4xx_HAL_Driver/Src/stm32f4xx_hal_sdram.c ****   */
1208:Drivers/STM32F4xx_HAL_Driver/Src/stm32f4xx_hal_sdram.c **** 
1209:Drivers/STM32F4xx_HAL_Driver/Src/stm32f4xx_hal_sdram.c **** /**
1210:Drivers/STM32F4xx_HAL_Driver/Src/stm32f4xx_hal_sdram.c ****   * @brief  Returns the SDRAM state.
1211:Drivers/STM32F4xx_HAL_Driver/Src/stm32f4xx_hal_sdram.c ****   * @param  hsdram pointer to a SDRAM_HandleTypeDef structure that contains
1212:Drivers/STM32F4xx_HAL_Driver/Src/stm32f4xx_hal_sdram.c ****   *                the configuration information for SDRAM module.
1213:Drivers/STM32F4xx_HAL_Driver/Src/stm32f4xx_hal_sdram.c ****   * @retval HAL state
1214:Drivers/STM32F4xx_HAL_Driver/Src/stm32f4xx_hal_sdram.c ****   */
1215:Drivers/STM32F4xx_HAL_Driver/Src/stm32f4xx_hal_sdram.c **** HAL_SDRAM_StateTypeDef HAL_SDRAM_GetState(SDRAM_HandleTypeDef *hsdram)
1216:Drivers/STM32F4xx_HAL_Driver/Src/stm32f4xx_hal_sdram.c **** {
1217:Drivers/STM32F4xx_HAL_Driver/Src/stm32f4xx_hal_sdram.c ****   return hsdram->State;
1218:Drivers/STM32F4xx_HAL_Driver/Src/stm32f4xx_hal_sdram.c **** }
1219:Drivers/STM32F4xx_HAL_Driver/Src/stm32f4xx_hal_sdram.c **** 
1220:Drivers/STM32F4xx_HAL_Driver/Src/stm32f4xx_hal_sdram.c **** /**
1221:Drivers/STM32F4xx_HAL_Driver/Src/stm32f4xx_hal_sdram.c ****   * @}
ARM GAS  /tmp/cc7nahFA.s 			page 28


1222:Drivers/STM32F4xx_HAL_Driver/Src/stm32f4xx_hal_sdram.c ****   */
1223:Drivers/STM32F4xx_HAL_Driver/Src/stm32f4xx_hal_sdram.c **** 
1224:Drivers/STM32F4xx_HAL_Driver/Src/stm32f4xx_hal_sdram.c **** /**
1225:Drivers/STM32F4xx_HAL_Driver/Src/stm32f4xx_hal_sdram.c ****   * @}
1226:Drivers/STM32F4xx_HAL_Driver/Src/stm32f4xx_hal_sdram.c ****   */
1227:Drivers/STM32F4xx_HAL_Driver/Src/stm32f4xx_hal_sdram.c **** 
1228:Drivers/STM32F4xx_HAL_Driver/Src/stm32f4xx_hal_sdram.c **** /** @addtogroup SDRAM_Private_Functions SDRAM Private Functions
1229:Drivers/STM32F4xx_HAL_Driver/Src/stm32f4xx_hal_sdram.c ****   * @{
1230:Drivers/STM32F4xx_HAL_Driver/Src/stm32f4xx_hal_sdram.c ****   */
1231:Drivers/STM32F4xx_HAL_Driver/Src/stm32f4xx_hal_sdram.c **** /**
1232:Drivers/STM32F4xx_HAL_Driver/Src/stm32f4xx_hal_sdram.c ****   * @brief  DMA SDRAM process complete callback.
1233:Drivers/STM32F4xx_HAL_Driver/Src/stm32f4xx_hal_sdram.c ****   * @param  hdma : DMA handle
1234:Drivers/STM32F4xx_HAL_Driver/Src/stm32f4xx_hal_sdram.c ****   * @retval None
1235:Drivers/STM32F4xx_HAL_Driver/Src/stm32f4xx_hal_sdram.c ****   */
1236:Drivers/STM32F4xx_HAL_Driver/Src/stm32f4xx_hal_sdram.c **** static void SDRAM_DMACplt(DMA_HandleTypeDef *hdma)
1237:Drivers/STM32F4xx_HAL_Driver/Src/stm32f4xx_hal_sdram.c **** {
1238:Drivers/STM32F4xx_HAL_Driver/Src/stm32f4xx_hal_sdram.c ****   SDRAM_HandleTypeDef *hsdram = (SDRAM_HandleTypeDef *)(hdma->Parent);
1239:Drivers/STM32F4xx_HAL_Driver/Src/stm32f4xx_hal_sdram.c **** 
1240:Drivers/STM32F4xx_HAL_Driver/Src/stm32f4xx_hal_sdram.c ****   /* Disable the DMA channel */
1241:Drivers/STM32F4xx_HAL_Driver/Src/stm32f4xx_hal_sdram.c ****   __HAL_DMA_DISABLE(hdma);
1242:Drivers/STM32F4xx_HAL_Driver/Src/stm32f4xx_hal_sdram.c **** 
1243:Drivers/STM32F4xx_HAL_Driver/Src/stm32f4xx_hal_sdram.c ****   /* Update the SDRAM controller state */
1244:Drivers/STM32F4xx_HAL_Driver/Src/stm32f4xx_hal_sdram.c ****   hsdram->State = HAL_SDRAM_STATE_READY;
1245:Drivers/STM32F4xx_HAL_Driver/Src/stm32f4xx_hal_sdram.c **** 
1246:Drivers/STM32F4xx_HAL_Driver/Src/stm32f4xx_hal_sdram.c **** #if (USE_HAL_SDRAM_REGISTER_CALLBACKS == 1)
1247:Drivers/STM32F4xx_HAL_Driver/Src/stm32f4xx_hal_sdram.c ****   hsdram->DmaXferCpltCallback(hdma);
1248:Drivers/STM32F4xx_HAL_Driver/Src/stm32f4xx_hal_sdram.c **** #else
1249:Drivers/STM32F4xx_HAL_Driver/Src/stm32f4xx_hal_sdram.c ****   HAL_SDRAM_DMA_XferCpltCallback(hdma);
1250:Drivers/STM32F4xx_HAL_Driver/Src/stm32f4xx_hal_sdram.c **** #endif /* USE_HAL_SDRAM_REGISTER_CALLBACKS */
1251:Drivers/STM32F4xx_HAL_Driver/Src/stm32f4xx_hal_sdram.c **** }
1252:Drivers/STM32F4xx_HAL_Driver/Src/stm32f4xx_hal_sdram.c **** 
1253:Drivers/STM32F4xx_HAL_Driver/Src/stm32f4xx_hal_sdram.c **** /**
1254:Drivers/STM32F4xx_HAL_Driver/Src/stm32f4xx_hal_sdram.c ****   * @brief  DMA SRAM process complete callback.
1255:Drivers/STM32F4xx_HAL_Driver/Src/stm32f4xx_hal_sdram.c ****   * @param  hdma : DMA handle
1256:Drivers/STM32F4xx_HAL_Driver/Src/stm32f4xx_hal_sdram.c ****   * @retval None
1257:Drivers/STM32F4xx_HAL_Driver/Src/stm32f4xx_hal_sdram.c ****   */
1258:Drivers/STM32F4xx_HAL_Driver/Src/stm32f4xx_hal_sdram.c **** static void SDRAM_DMACpltProt(DMA_HandleTypeDef *hdma)
1259:Drivers/STM32F4xx_HAL_Driver/Src/stm32f4xx_hal_sdram.c **** {
 288              		.loc 1 1259 1 is_stmt 1 view -0
 289              		.cfi_startproc
 290              		@ args = 0, pretend = 0, frame = 0
 291              		@ frame_needed = 0, uses_anonymous_args = 0
 292              		.loc 1 1259 1 is_stmt 0 view .LVU59
 293 0000 08B5     		push	{r3, lr}
 294              	.LCFI4:
 295              		.cfi_def_cfa_offset 8
 296              		.cfi_offset 3, -8
 297              		.cfi_offset 14, -4
1260:Drivers/STM32F4xx_HAL_Driver/Src/stm32f4xx_hal_sdram.c ****   SDRAM_HandleTypeDef *hsdram = (SDRAM_HandleTypeDef *)(hdma->Parent);
 298              		.loc 1 1260 3 is_stmt 1 view .LVU60
 299              		.loc 1 1260 24 is_stmt 0 view .LVU61
 300 0002 816B     		ldr	r1, [r0, #56]
 301              	.LVL18:
1261:Drivers/STM32F4xx_HAL_Driver/Src/stm32f4xx_hal_sdram.c **** 
1262:Drivers/STM32F4xx_HAL_Driver/Src/stm32f4xx_hal_sdram.c ****   /* Disable the DMA channel */
1263:Drivers/STM32F4xx_HAL_Driver/Src/stm32f4xx_hal_sdram.c ****   __HAL_DMA_DISABLE(hdma);
 302              		.loc 1 1263 3 is_stmt 1 view .LVU62
ARM GAS  /tmp/cc7nahFA.s 			page 29


 303 0004 0268     		ldr	r2, [r0]
 304 0006 1368     		ldr	r3, [r2]
 305 0008 23F00103 		bic	r3, r3, #1
 306 000c 1360     		str	r3, [r2]
1264:Drivers/STM32F4xx_HAL_Driver/Src/stm32f4xx_hal_sdram.c **** 
1265:Drivers/STM32F4xx_HAL_Driver/Src/stm32f4xx_hal_sdram.c ****   /* Update the SDRAM controller state */
1266:Drivers/STM32F4xx_HAL_Driver/Src/stm32f4xx_hal_sdram.c ****   hsdram->State = HAL_SDRAM_STATE_WRITE_PROTECTED;
 307              		.loc 1 1266 3 view .LVU63
 308              		.loc 1 1266 17 is_stmt 0 view .LVU64
 309 000e 0423     		movs	r3, #4
 310 0010 81F82C30 		strb	r3, [r1, #44]
1267:Drivers/STM32F4xx_HAL_Driver/Src/stm32f4xx_hal_sdram.c **** 
1268:Drivers/STM32F4xx_HAL_Driver/Src/stm32f4xx_hal_sdram.c **** #if (USE_HAL_SDRAM_REGISTER_CALLBACKS == 1)
1269:Drivers/STM32F4xx_HAL_Driver/Src/stm32f4xx_hal_sdram.c ****   hsdram->DmaXferCpltCallback(hdma);
1270:Drivers/STM32F4xx_HAL_Driver/Src/stm32f4xx_hal_sdram.c **** #else
1271:Drivers/STM32F4xx_HAL_Driver/Src/stm32f4xx_hal_sdram.c ****   HAL_SDRAM_DMA_XferCpltCallback(hdma);
 311              		.loc 1 1271 3 is_stmt 1 view .LVU65
 312 0014 FFF7FEFF 		bl	HAL_SDRAM_DMA_XferCpltCallback
 313              	.LVL19:
1272:Drivers/STM32F4xx_HAL_Driver/Src/stm32f4xx_hal_sdram.c **** #endif /* USE_HAL_SDRAM_REGISTER_CALLBACKS */
1273:Drivers/STM32F4xx_HAL_Driver/Src/stm32f4xx_hal_sdram.c **** }
 314              		.loc 1 1273 1 is_stmt 0 view .LVU66
 315 0018 08BD     		pop	{r3, pc}
 316              		.cfi_endproc
 317              	.LFE158:
 319              		.section	.text.SDRAM_DMACplt,"ax",%progbits
 320              		.align	1
 321              		.syntax unified
 322              		.thumb
 323              		.thumb_func
 325              	SDRAM_DMACplt:
 326              	.LVL20:
 327              	.LFB157:
1237:Drivers/STM32F4xx_HAL_Driver/Src/stm32f4xx_hal_sdram.c ****   SDRAM_HandleTypeDef *hsdram = (SDRAM_HandleTypeDef *)(hdma->Parent);
 328              		.loc 1 1237 1 is_stmt 1 view -0
 329              		.cfi_startproc
 330              		@ args = 0, pretend = 0, frame = 0
 331              		@ frame_needed = 0, uses_anonymous_args = 0
1237:Drivers/STM32F4xx_HAL_Driver/Src/stm32f4xx_hal_sdram.c ****   SDRAM_HandleTypeDef *hsdram = (SDRAM_HandleTypeDef *)(hdma->Parent);
 332              		.loc 1 1237 1 is_stmt 0 view .LVU68
 333 0000 08B5     		push	{r3, lr}
 334              	.LCFI5:
 335              		.cfi_def_cfa_offset 8
 336              		.cfi_offset 3, -8
 337              		.cfi_offset 14, -4
1238:Drivers/STM32F4xx_HAL_Driver/Src/stm32f4xx_hal_sdram.c **** 
 338              		.loc 1 1238 3 is_stmt 1 view .LVU69
1238:Drivers/STM32F4xx_HAL_Driver/Src/stm32f4xx_hal_sdram.c **** 
 339              		.loc 1 1238 24 is_stmt 0 view .LVU70
 340 0002 816B     		ldr	r1, [r0, #56]
 341              	.LVL21:
1241:Drivers/STM32F4xx_HAL_Driver/Src/stm32f4xx_hal_sdram.c **** 
 342              		.loc 1 1241 3 is_stmt 1 view .LVU71
 343 0004 0268     		ldr	r2, [r0]
 344 0006 1368     		ldr	r3, [r2]
 345 0008 23F00103 		bic	r3, r3, #1
 346 000c 1360     		str	r3, [r2]
ARM GAS  /tmp/cc7nahFA.s 			page 30


1244:Drivers/STM32F4xx_HAL_Driver/Src/stm32f4xx_hal_sdram.c **** 
 347              		.loc 1 1244 3 view .LVU72
1244:Drivers/STM32F4xx_HAL_Driver/Src/stm32f4xx_hal_sdram.c **** 
 348              		.loc 1 1244 17 is_stmt 0 view .LVU73
 349 000e 0123     		movs	r3, #1
 350 0010 81F82C30 		strb	r3, [r1, #44]
1249:Drivers/STM32F4xx_HAL_Driver/Src/stm32f4xx_hal_sdram.c **** #endif /* USE_HAL_SDRAM_REGISTER_CALLBACKS */
 351              		.loc 1 1249 3 is_stmt 1 view .LVU74
 352 0014 FFF7FEFF 		bl	HAL_SDRAM_DMA_XferCpltCallback
 353              	.LVL22:
1251:Drivers/STM32F4xx_HAL_Driver/Src/stm32f4xx_hal_sdram.c **** 
 354              		.loc 1 1251 1 is_stmt 0 view .LVU75
 355 0018 08BD     		pop	{r3, pc}
 356              		.cfi_endproc
 357              	.LFE157:
 359              		.section	.text.HAL_SDRAM_DMA_XferErrorCallback,"ax",%progbits
 360              		.align	1
 361              		.weak	HAL_SDRAM_DMA_XferErrorCallback
 362              		.syntax unified
 363              		.thumb
 364              		.thumb_func
 366              	HAL_SDRAM_DMA_XferErrorCallback:
 367              	.LVL23:
 368              	.LFB141:
 341:Drivers/STM32F4xx_HAL_Driver/Src/stm32f4xx_hal_sdram.c ****   /* Prevent unused argument(s) compilation warning */
 369              		.loc 1 341 1 is_stmt 1 view -0
 370              		.cfi_startproc
 371              		@ args = 0, pretend = 0, frame = 0
 372              		@ frame_needed = 0, uses_anonymous_args = 0
 373              		@ link register save eliminated.
 343:Drivers/STM32F4xx_HAL_Driver/Src/stm32f4xx_hal_sdram.c **** 
 374              		.loc 1 343 3 view .LVU77
 348:Drivers/STM32F4xx_HAL_Driver/Src/stm32f4xx_hal_sdram.c **** 
 375              		.loc 1 348 1 is_stmt 0 view .LVU78
 376 0000 7047     		bx	lr
 377              		.cfi_endproc
 378              	.LFE141:
 380              		.section	.text.SDRAM_DMAError,"ax",%progbits
 381              		.align	1
 382              		.syntax unified
 383              		.thumb
 384              		.thumb_func
 386              	SDRAM_DMAError:
 387              	.LVL24:
 388              	.LFB159:
1274:Drivers/STM32F4xx_HAL_Driver/Src/stm32f4xx_hal_sdram.c **** 
1275:Drivers/STM32F4xx_HAL_Driver/Src/stm32f4xx_hal_sdram.c **** /**
1276:Drivers/STM32F4xx_HAL_Driver/Src/stm32f4xx_hal_sdram.c ****   * @brief  DMA SDRAM error callback.
1277:Drivers/STM32F4xx_HAL_Driver/Src/stm32f4xx_hal_sdram.c ****   * @param  hdma : DMA handle
1278:Drivers/STM32F4xx_HAL_Driver/Src/stm32f4xx_hal_sdram.c ****   * @retval None
1279:Drivers/STM32F4xx_HAL_Driver/Src/stm32f4xx_hal_sdram.c ****   */
1280:Drivers/STM32F4xx_HAL_Driver/Src/stm32f4xx_hal_sdram.c **** static void SDRAM_DMAError(DMA_HandleTypeDef *hdma)
1281:Drivers/STM32F4xx_HAL_Driver/Src/stm32f4xx_hal_sdram.c **** {
 389              		.loc 1 1281 1 is_stmt 1 view -0
 390              		.cfi_startproc
 391              		@ args = 0, pretend = 0, frame = 0
 392              		@ frame_needed = 0, uses_anonymous_args = 0
ARM GAS  /tmp/cc7nahFA.s 			page 31


 393              		.loc 1 1281 1 is_stmt 0 view .LVU80
 394 0000 08B5     		push	{r3, lr}
 395              	.LCFI6:
 396              		.cfi_def_cfa_offset 8
 397              		.cfi_offset 3, -8
 398              		.cfi_offset 14, -4
1282:Drivers/STM32F4xx_HAL_Driver/Src/stm32f4xx_hal_sdram.c ****   SDRAM_HandleTypeDef *hsdram = (SDRAM_HandleTypeDef *)(hdma->Parent);
 399              		.loc 1 1282 3 is_stmt 1 view .LVU81
 400              		.loc 1 1282 24 is_stmt 0 view .LVU82
 401 0002 816B     		ldr	r1, [r0, #56]
 402              	.LVL25:
1283:Drivers/STM32F4xx_HAL_Driver/Src/stm32f4xx_hal_sdram.c **** 
1284:Drivers/STM32F4xx_HAL_Driver/Src/stm32f4xx_hal_sdram.c ****   /* Disable the DMA channel */
1285:Drivers/STM32F4xx_HAL_Driver/Src/stm32f4xx_hal_sdram.c ****   __HAL_DMA_DISABLE(hdma);
 403              		.loc 1 1285 3 is_stmt 1 view .LVU83
 404 0004 0268     		ldr	r2, [r0]
 405 0006 1368     		ldr	r3, [r2]
 406 0008 23F00103 		bic	r3, r3, #1
 407 000c 1360     		str	r3, [r2]
1286:Drivers/STM32F4xx_HAL_Driver/Src/stm32f4xx_hal_sdram.c **** 
1287:Drivers/STM32F4xx_HAL_Driver/Src/stm32f4xx_hal_sdram.c ****   /* Update the SDRAM controller state */
1288:Drivers/STM32F4xx_HAL_Driver/Src/stm32f4xx_hal_sdram.c ****   hsdram->State = HAL_SDRAM_STATE_ERROR;
 408              		.loc 1 1288 3 view .LVU84
 409              		.loc 1 1288 17 is_stmt 0 view .LVU85
 410 000e 0323     		movs	r3, #3
 411 0010 81F82C30 		strb	r3, [r1, #44]
1289:Drivers/STM32F4xx_HAL_Driver/Src/stm32f4xx_hal_sdram.c **** 
1290:Drivers/STM32F4xx_HAL_Driver/Src/stm32f4xx_hal_sdram.c **** #if (USE_HAL_SDRAM_REGISTER_CALLBACKS == 1)
1291:Drivers/STM32F4xx_HAL_Driver/Src/stm32f4xx_hal_sdram.c ****   hsdram->DmaXferErrorCallback(hdma);
1292:Drivers/STM32F4xx_HAL_Driver/Src/stm32f4xx_hal_sdram.c **** #else
1293:Drivers/STM32F4xx_HAL_Driver/Src/stm32f4xx_hal_sdram.c ****   HAL_SDRAM_DMA_XferErrorCallback(hdma);
 412              		.loc 1 1293 3 is_stmt 1 view .LVU86
 413 0014 FFF7FEFF 		bl	HAL_SDRAM_DMA_XferErrorCallback
 414              	.LVL26:
1294:Drivers/STM32F4xx_HAL_Driver/Src/stm32f4xx_hal_sdram.c **** #endif /* USE_HAL_SDRAM_REGISTER_CALLBACKS */
1295:Drivers/STM32F4xx_HAL_Driver/Src/stm32f4xx_hal_sdram.c **** }
 415              		.loc 1 1295 1 is_stmt 0 view .LVU87
 416 0018 08BD     		pop	{r3, pc}
 417              		.cfi_endproc
 418              	.LFE159:
 420              		.section	.text.HAL_SDRAM_Read_8b,"ax",%progbits
 421              		.align	1
 422              		.global	HAL_SDRAM_Read_8b
 423              		.syntax unified
 424              		.thumb
 425              		.thumb_func
 427              	HAL_SDRAM_Read_8b:
 428              	.LVL27:
 429              	.LFB142:
 379:Drivers/STM32F4xx_HAL_Driver/Src/stm32f4xx_hal_sdram.c ****   uint32_t size;
 430              		.loc 1 379 1 is_stmt 1 view -0
 431              		.cfi_startproc
 432              		@ args = 0, pretend = 0, frame = 0
 433              		@ frame_needed = 0, uses_anonymous_args = 0
 379:Drivers/STM32F4xx_HAL_Driver/Src/stm32f4xx_hal_sdram.c ****   uint32_t size;
 434              		.loc 1 379 1 is_stmt 0 view .LVU89
 435 0000 00B5     		push	{lr}
ARM GAS  /tmp/cc7nahFA.s 			page 32


 436              	.LCFI7:
 437              		.cfi_def_cfa_offset 4
 438              		.cfi_offset 14, -4
 439 0002 8646     		mov	lr, r0
 380:Drivers/STM32F4xx_HAL_Driver/Src/stm32f4xx_hal_sdram.c ****   __IO uint8_t *pSdramAddress = (uint8_t *)pAddress;
 440              		.loc 1 380 3 is_stmt 1 view .LVU90
 381:Drivers/STM32F4xx_HAL_Driver/Src/stm32f4xx_hal_sdram.c ****   uint8_t *pdestbuff = pDstBuffer;
 441              		.loc 1 381 3 view .LVU91
 442              	.LVL28:
 382:Drivers/STM32F4xx_HAL_Driver/Src/stm32f4xx_hal_sdram.c ****   HAL_SDRAM_StateTypeDef state = hsdram->State;
 443              		.loc 1 382 3 view .LVU92
 383:Drivers/STM32F4xx_HAL_Driver/Src/stm32f4xx_hal_sdram.c **** 
 444              		.loc 1 383 3 view .LVU93
 383:Drivers/STM32F4xx_HAL_Driver/Src/stm32f4xx_hal_sdram.c **** 
 445              		.loc 1 383 26 is_stmt 0 view .LVU94
 446 0004 90F82CC0 		ldrb	ip, [r0, #44]	@ zero_extendqisi2
 447 0008 5FFA8CF0 		uxtb	r0, ip
 448              	.LVL29:
 386:Drivers/STM32F4xx_HAL_Driver/Src/stm32f4xx_hal_sdram.c ****   {
 449              		.loc 1 386 3 is_stmt 1 view .LVU95
 386:Drivers/STM32F4xx_HAL_Driver/Src/stm32f4xx_hal_sdram.c ****   {
 450              		.loc 1 386 6 is_stmt 0 view .LVU96
 451 000c 0228     		cmp	r0, #2
 452 000e 1DD0     		beq	.L31
 390:Drivers/STM32F4xx_HAL_Driver/Src/stm32f4xx_hal_sdram.c ****   {
 453              		.loc 1 390 8 is_stmt 1 view .LVU97
 390:Drivers/STM32F4xx_HAL_Driver/Src/stm32f4xx_hal_sdram.c ****   {
 454              		.loc 1 390 11 is_stmt 0 view .LVU98
 455 0010 0128     		cmp	r0, #1
 456 0012 01D0     		beq	.L32
 390:Drivers/STM32F4xx_HAL_Driver/Src/stm32f4xx_hal_sdram.c ****   {
 457              		.loc 1 390 45 discriminator 1 view .LVU99
 458 0014 0428     		cmp	r0, #4
 459 0016 1BD1     		bne	.L35
 460              	.L32:
 393:Drivers/STM32F4xx_HAL_Driver/Src/stm32f4xx_hal_sdram.c **** 
 461              		.loc 1 393 5 is_stmt 1 view .LVU100
 393:Drivers/STM32F4xx_HAL_Driver/Src/stm32f4xx_hal_sdram.c **** 
 462              		.loc 1 393 5 view .LVU101
 463 0018 9EF82DC0 		ldrb	ip, [lr, #45]	@ zero_extendqisi2
 464 001c BCF1010F 		cmp	ip, #1
 465 0020 18D0     		beq	.L36
 393:Drivers/STM32F4xx_HAL_Driver/Src/stm32f4xx_hal_sdram.c **** 
 466              		.loc 1 393 5 discriminator 2 view .LVU102
 467 0022 4FF0010C 		mov	ip, #1
 468 0026 8EF82DC0 		strb	ip, [lr, #45]
 393:Drivers/STM32F4xx_HAL_Driver/Src/stm32f4xx_hal_sdram.c **** 
 469              		.loc 1 393 5 discriminator 2 view .LVU103
 396:Drivers/STM32F4xx_HAL_Driver/Src/stm32f4xx_hal_sdram.c **** 
 470              		.loc 1 396 5 discriminator 2 view .LVU104
 396:Drivers/STM32F4xx_HAL_Driver/Src/stm32f4xx_hal_sdram.c **** 
 471              		.loc 1 396 19 is_stmt 0 discriminator 2 view .LVU105
 472 002a 4FF0020C 		mov	ip, #2
 473 002e 8EF82CC0 		strb	ip, [lr, #44]
 399:Drivers/STM32F4xx_HAL_Driver/Src/stm32f4xx_hal_sdram.c ****     {
 474              		.loc 1 399 5 is_stmt 1 discriminator 2 view .LVU106
 475              	.LVL30:
ARM GAS  /tmp/cc7nahFA.s 			page 33


 399:Drivers/STM32F4xx_HAL_Driver/Src/stm32f4xx_hal_sdram.c ****     {
 476              		.loc 1 399 5 is_stmt 0 discriminator 2 view .LVU107
 477 0032 04E0     		b	.L33
 478              	.LVL31:
 479              	.L34:
 401:Drivers/STM32F4xx_HAL_Driver/Src/stm32f4xx_hal_sdram.c ****       pdestbuff++;
 480              		.loc 1 401 7 is_stmt 1 discriminator 3 view .LVU108
 401:Drivers/STM32F4xx_HAL_Driver/Src/stm32f4xx_hal_sdram.c ****       pdestbuff++;
 481              		.loc 1 401 20 is_stmt 0 discriminator 3 view .LVU109
 482 0034 11F801CB 		ldrb	ip, [r1], #1	@ zero_extendqisi2
 483              	.LVL32:
 401:Drivers/STM32F4xx_HAL_Driver/Src/stm32f4xx_hal_sdram.c ****       pdestbuff++;
 484              		.loc 1 401 18 discriminator 3 view .LVU110
 485 0038 02F801CB 		strb	ip, [r2], #1
 486              	.LVL33:
 402:Drivers/STM32F4xx_HAL_Driver/Src/stm32f4xx_hal_sdram.c ****       pSdramAddress++;
 487              		.loc 1 402 7 is_stmt 1 discriminator 3 view .LVU111
 403:Drivers/STM32F4xx_HAL_Driver/Src/stm32f4xx_hal_sdram.c ****     }
 488              		.loc 1 403 7 discriminator 3 view .LVU112
 399:Drivers/STM32F4xx_HAL_Driver/Src/stm32f4xx_hal_sdram.c ****     {
 489              		.loc 1 399 45 discriminator 3 view .LVU113
 490 003c 013B     		subs	r3, r3, #1
 491              	.LVL34:
 492              	.L33:
 399:Drivers/STM32F4xx_HAL_Driver/Src/stm32f4xx_hal_sdram.c ****     {
 493              		.loc 1 399 34 discriminator 1 view .LVU114
 494 003e 002B     		cmp	r3, #0
 495 0040 F8D1     		bne	.L34
 407:Drivers/STM32F4xx_HAL_Driver/Src/stm32f4xx_hal_sdram.c **** 
 496              		.loc 1 407 5 view .LVU115
 407:Drivers/STM32F4xx_HAL_Driver/Src/stm32f4xx_hal_sdram.c **** 
 497              		.loc 1 407 19 is_stmt 0 view .LVU116
 498 0042 8EF82C00 		strb	r0, [lr, #44]
 410:Drivers/STM32F4xx_HAL_Driver/Src/stm32f4xx_hal_sdram.c ****   }
 499              		.loc 1 410 5 is_stmt 1 view .LVU117
 410:Drivers/STM32F4xx_HAL_Driver/Src/stm32f4xx_hal_sdram.c ****   }
 500              		.loc 1 410 5 view .LVU118
 501 0046 0020     		movs	r0, #0
 502              	.LVL35:
 410:Drivers/STM32F4xx_HAL_Driver/Src/stm32f4xx_hal_sdram.c ****   }
 503              		.loc 1 410 5 is_stmt 0 view .LVU119
 504 0048 8EF82D00 		strb	r0, [lr, #45]
 410:Drivers/STM32F4xx_HAL_Driver/Src/stm32f4xx_hal_sdram.c ****   }
 505              		.loc 1 410 5 is_stmt 1 view .LVU120
 417:Drivers/STM32F4xx_HAL_Driver/Src/stm32f4xx_hal_sdram.c **** }
 506              		.loc 1 417 3 view .LVU121
 507              	.LVL36:
 508              	.L31:
 418:Drivers/STM32F4xx_HAL_Driver/Src/stm32f4xx_hal_sdram.c **** 
 509              		.loc 1 418 1 is_stmt 0 view .LVU122
 510 004c 5DF804FB 		ldr	pc, [sp], #4
 511              	.LVL37:
 512              	.L35:
 414:Drivers/STM32F4xx_HAL_Driver/Src/stm32f4xx_hal_sdram.c ****   }
 513              		.loc 1 414 13 view .LVU123
 514 0050 0120     		movs	r0, #1
 515              	.LVL38:
ARM GAS  /tmp/cc7nahFA.s 			page 34


 414:Drivers/STM32F4xx_HAL_Driver/Src/stm32f4xx_hal_sdram.c ****   }
 516              		.loc 1 414 13 view .LVU124
 517 0052 FBE7     		b	.L31
 518              	.LVL39:
 519              	.L36:
 393:Drivers/STM32F4xx_HAL_Driver/Src/stm32f4xx_hal_sdram.c **** 
 520              		.loc 1 393 5 view .LVU125
 521 0054 0220     		movs	r0, #2
 522              	.LVL40:
 393:Drivers/STM32F4xx_HAL_Driver/Src/stm32f4xx_hal_sdram.c **** 
 523              		.loc 1 393 5 view .LVU126
 524 0056 F9E7     		b	.L31
 525              		.cfi_endproc
 526              	.LFE142:
 528              		.section	.text.HAL_SDRAM_Write_8b,"ax",%progbits
 529              		.align	1
 530              		.global	HAL_SDRAM_Write_8b
 531              		.syntax unified
 532              		.thumb
 533              		.thumb_func
 535              	HAL_SDRAM_Write_8b:
 536              	.LVL41:
 537              	.LFB143:
 431:Drivers/STM32F4xx_HAL_Driver/Src/stm32f4xx_hal_sdram.c ****   uint32_t size;
 538              		.loc 1 431 1 is_stmt 1 view -0
 539              		.cfi_startproc
 540              		@ args = 0, pretend = 0, frame = 0
 541              		@ frame_needed = 0, uses_anonymous_args = 0
 431:Drivers/STM32F4xx_HAL_Driver/Src/stm32f4xx_hal_sdram.c ****   uint32_t size;
 542              		.loc 1 431 1 is_stmt 0 view .LVU128
 543 0000 00B5     		push	{lr}
 544              	.LCFI8:
 545              		.cfi_def_cfa_offset 4
 546              		.cfi_offset 14, -4
 547 0002 8646     		mov	lr, r0
 432:Drivers/STM32F4xx_HAL_Driver/Src/stm32f4xx_hal_sdram.c ****   __IO uint8_t *pSdramAddress = (uint8_t *)pAddress;
 548              		.loc 1 432 3 is_stmt 1 view .LVU129
 433:Drivers/STM32F4xx_HAL_Driver/Src/stm32f4xx_hal_sdram.c ****   uint8_t *psrcbuff = pSrcBuffer;
 549              		.loc 1 433 3 view .LVU130
 550              	.LVL42:
 434:Drivers/STM32F4xx_HAL_Driver/Src/stm32f4xx_hal_sdram.c **** 
 551              		.loc 1 434 3 view .LVU131
 437:Drivers/STM32F4xx_HAL_Driver/Src/stm32f4xx_hal_sdram.c ****   {
 552              		.loc 1 437 3 view .LVU132
 437:Drivers/STM32F4xx_HAL_Driver/Src/stm32f4xx_hal_sdram.c ****   {
 553              		.loc 1 437 13 is_stmt 0 view .LVU133
 554 0004 90F82CC0 		ldrb	ip, [r0, #44]	@ zero_extendqisi2
 555 0008 5FFA8CF0 		uxtb	r0, ip
 556              	.LVL43:
 437:Drivers/STM32F4xx_HAL_Driver/Src/stm32f4xx_hal_sdram.c ****   {
 557              		.loc 1 437 6 view .LVU134
 558 000c 0228     		cmp	r0, #2
 559 000e 1ED0     		beq	.L39
 441:Drivers/STM32F4xx_HAL_Driver/Src/stm32f4xx_hal_sdram.c ****   {
 560              		.loc 1 441 8 is_stmt 1 view .LVU135
 441:Drivers/STM32F4xx_HAL_Driver/Src/stm32f4xx_hal_sdram.c ****   {
 561              		.loc 1 441 18 is_stmt 0 view .LVU136
ARM GAS  /tmp/cc7nahFA.s 			page 35


 562 0010 9EF82C00 		ldrb	r0, [lr, #44]	@ zero_extendqisi2
 563 0014 C0B2     		uxtb	r0, r0
 441:Drivers/STM32F4xx_HAL_Driver/Src/stm32f4xx_hal_sdram.c ****   {
 564              		.loc 1 441 11 view .LVU137
 565 0016 0128     		cmp	r0, #1
 566 0018 18D1     		bne	.L42
 444:Drivers/STM32F4xx_HAL_Driver/Src/stm32f4xx_hal_sdram.c **** 
 567              		.loc 1 444 5 is_stmt 1 view .LVU138
 444:Drivers/STM32F4xx_HAL_Driver/Src/stm32f4xx_hal_sdram.c **** 
 568              		.loc 1 444 5 view .LVU139
 569 001a 9EF82D00 		ldrb	r0, [lr, #45]	@ zero_extendqisi2
 570 001e 0128     		cmp	r0, #1
 571 0020 17D0     		beq	.L43
 444:Drivers/STM32F4xx_HAL_Driver/Src/stm32f4xx_hal_sdram.c **** 
 572              		.loc 1 444 5 discriminator 2 view .LVU140
 573 0022 0120     		movs	r0, #1
 574 0024 8EF82D00 		strb	r0, [lr, #45]
 444:Drivers/STM32F4xx_HAL_Driver/Src/stm32f4xx_hal_sdram.c **** 
 575              		.loc 1 444 5 discriminator 2 view .LVU141
 447:Drivers/STM32F4xx_HAL_Driver/Src/stm32f4xx_hal_sdram.c **** 
 576              		.loc 1 447 5 discriminator 2 view .LVU142
 447:Drivers/STM32F4xx_HAL_Driver/Src/stm32f4xx_hal_sdram.c **** 
 577              		.loc 1 447 19 is_stmt 0 discriminator 2 view .LVU143
 578 0028 0220     		movs	r0, #2
 579 002a 8EF82C00 		strb	r0, [lr, #44]
 450:Drivers/STM32F4xx_HAL_Driver/Src/stm32f4xx_hal_sdram.c ****     {
 580              		.loc 1 450 5 is_stmt 1 discriminator 2 view .LVU144
 581              	.LVL44:
 450:Drivers/STM32F4xx_HAL_Driver/Src/stm32f4xx_hal_sdram.c ****     {
 582              		.loc 1 450 5 is_stmt 0 discriminator 2 view .LVU145
 583 002e 04E0     		b	.L40
 584              	.LVL45:
 585              	.L41:
 452:Drivers/STM32F4xx_HAL_Driver/Src/stm32f4xx_hal_sdram.c ****       psrcbuff++;
 586              		.loc 1 452 7 is_stmt 1 discriminator 3 view .LVU146
 452:Drivers/STM32F4xx_HAL_Driver/Src/stm32f4xx_hal_sdram.c ****       psrcbuff++;
 587              		.loc 1 452 40 is_stmt 0 discriminator 3 view .LVU147
 588 0030 12F8010B 		ldrb	r0, [r2], #1	@ zero_extendqisi2
 589              	.LVL46:
 452:Drivers/STM32F4xx_HAL_Driver/Src/stm32f4xx_hal_sdram.c ****       psrcbuff++;
 590              		.loc 1 452 38 discriminator 3 view .LVU148
 591 0034 01F8010B 		strb	r0, [r1], #1
 592              	.LVL47:
 453:Drivers/STM32F4xx_HAL_Driver/Src/stm32f4xx_hal_sdram.c ****       pSdramAddress++;
 593              		.loc 1 453 7 is_stmt 1 discriminator 3 view .LVU149
 454:Drivers/STM32F4xx_HAL_Driver/Src/stm32f4xx_hal_sdram.c ****     }
 594              		.loc 1 454 7 discriminator 3 view .LVU150
 450:Drivers/STM32F4xx_HAL_Driver/Src/stm32f4xx_hal_sdram.c ****     {
 595              		.loc 1 450 45 discriminator 3 view .LVU151
 596 0038 013B     		subs	r3, r3, #1
 597              	.LVL48:
 598              	.L40:
 450:Drivers/STM32F4xx_HAL_Driver/Src/stm32f4xx_hal_sdram.c ****     {
 599              		.loc 1 450 34 discriminator 1 view .LVU152
 600 003a 002B     		cmp	r3, #0
 601 003c F8D1     		bne	.L41
 458:Drivers/STM32F4xx_HAL_Driver/Src/stm32f4xx_hal_sdram.c **** 
ARM GAS  /tmp/cc7nahFA.s 			page 36


 602              		.loc 1 458 5 view .LVU153
 458:Drivers/STM32F4xx_HAL_Driver/Src/stm32f4xx_hal_sdram.c **** 
 603              		.loc 1 458 19 is_stmt 0 view .LVU154
 604 003e 0123     		movs	r3, #1
 605              	.LVL49:
 458:Drivers/STM32F4xx_HAL_Driver/Src/stm32f4xx_hal_sdram.c **** 
 606              		.loc 1 458 19 view .LVU155
 607 0040 8EF82C30 		strb	r3, [lr, #44]
 461:Drivers/STM32F4xx_HAL_Driver/Src/stm32f4xx_hal_sdram.c ****   }
 608              		.loc 1 461 5 is_stmt 1 view .LVU156
 461:Drivers/STM32F4xx_HAL_Driver/Src/stm32f4xx_hal_sdram.c ****   }
 609              		.loc 1 461 5 view .LVU157
 610 0044 0020     		movs	r0, #0
 611 0046 8EF82D00 		strb	r0, [lr, #45]
 461:Drivers/STM32F4xx_HAL_Driver/Src/stm32f4xx_hal_sdram.c ****   }
 612              		.loc 1 461 5 view .LVU158
 468:Drivers/STM32F4xx_HAL_Driver/Src/stm32f4xx_hal_sdram.c **** }
 613              		.loc 1 468 3 view .LVU159
 468:Drivers/STM32F4xx_HAL_Driver/Src/stm32f4xx_hal_sdram.c **** }
 614              		.loc 1 468 10 is_stmt 0 view .LVU160
 615 004a 00E0     		b	.L39
 616              	.LVL50:
 617              	.L42:
 465:Drivers/STM32F4xx_HAL_Driver/Src/stm32f4xx_hal_sdram.c ****   }
 618              		.loc 1 465 13 view .LVU161
 619 004c 0120     		movs	r0, #1
 620              	.LVL51:
 621              	.L39:
 469:Drivers/STM32F4xx_HAL_Driver/Src/stm32f4xx_hal_sdram.c **** 
 622              		.loc 1 469 1 view .LVU162
 623 004e 5DF804FB 		ldr	pc, [sp], #4
 624              	.LVL52:
 625              	.L43:
 444:Drivers/STM32F4xx_HAL_Driver/Src/stm32f4xx_hal_sdram.c **** 
 626              		.loc 1 444 5 view .LVU163
 627 0052 0220     		movs	r0, #2
 628 0054 FBE7     		b	.L39
 629              		.cfi_endproc
 630              	.LFE143:
 632              		.section	.text.HAL_SDRAM_Read_16b,"ax",%progbits
 633              		.align	1
 634              		.global	HAL_SDRAM_Read_16b
 635              		.syntax unified
 636              		.thumb
 637              		.thumb_func
 639              	HAL_SDRAM_Read_16b:
 640              	.LVL53:
 641              	.LFB144:
 482:Drivers/STM32F4xx_HAL_Driver/Src/stm32f4xx_hal_sdram.c ****   uint32_t size;
 642              		.loc 1 482 1 is_stmt 1 view -0
 643              		.cfi_startproc
 644              		@ args = 0, pretend = 0, frame = 0
 645              		@ frame_needed = 0, uses_anonymous_args = 0
 482:Drivers/STM32F4xx_HAL_Driver/Src/stm32f4xx_hal_sdram.c ****   uint32_t size;
 646              		.loc 1 482 1 is_stmt 0 view .LVU165
 647 0000 30B5     		push	{r4, r5, lr}
 648              	.LCFI9:
ARM GAS  /tmp/cc7nahFA.s 			page 37


 649              		.cfi_def_cfa_offset 12
 650              		.cfi_offset 4, -12
 651              		.cfi_offset 5, -8
 652              		.cfi_offset 14, -4
 653 0002 0546     		mov	r5, r0
 483:Drivers/STM32F4xx_HAL_Driver/Src/stm32f4xx_hal_sdram.c ****   __IO uint32_t *pSdramAddress = pAddress;
 654              		.loc 1 483 3 is_stmt 1 view .LVU166
 484:Drivers/STM32F4xx_HAL_Driver/Src/stm32f4xx_hal_sdram.c ****   uint16_t *pdestbuff = pDstBuffer;
 655              		.loc 1 484 3 view .LVU167
 656              	.LVL54:
 485:Drivers/STM32F4xx_HAL_Driver/Src/stm32f4xx_hal_sdram.c ****   HAL_SDRAM_StateTypeDef state = hsdram->State;
 657              		.loc 1 485 3 view .LVU168
 486:Drivers/STM32F4xx_HAL_Driver/Src/stm32f4xx_hal_sdram.c **** 
 658              		.loc 1 486 3 view .LVU169
 486:Drivers/STM32F4xx_HAL_Driver/Src/stm32f4xx_hal_sdram.c **** 
 659              		.loc 1 486 26 is_stmt 0 view .LVU170
 660 0004 90F82C40 		ldrb	r4, [r0, #44]	@ zero_extendqisi2
 661 0008 E0B2     		uxtb	r0, r4
 662              	.LVL55:
 489:Drivers/STM32F4xx_HAL_Driver/Src/stm32f4xx_hal_sdram.c ****   {
 663              		.loc 1 489 3 is_stmt 1 view .LVU171
 489:Drivers/STM32F4xx_HAL_Driver/Src/stm32f4xx_hal_sdram.c ****   {
 664              		.loc 1 489 6 is_stmt 0 view .LVU172
 665 000a 0228     		cmp	r0, #2
 666 000c 27D0     		beq	.L46
 493:Drivers/STM32F4xx_HAL_Driver/Src/stm32f4xx_hal_sdram.c ****   {
 667              		.loc 1 493 8 is_stmt 1 view .LVU173
 493:Drivers/STM32F4xx_HAL_Driver/Src/stm32f4xx_hal_sdram.c ****   {
 668              		.loc 1 493 11 is_stmt 0 view .LVU174
 669 000e 0128     		cmp	r0, #1
 670 0010 01D0     		beq	.L47
 493:Drivers/STM32F4xx_HAL_Driver/Src/stm32f4xx_hal_sdram.c ****   {
 671              		.loc 1 493 45 discriminator 1 view .LVU175
 672 0012 0428     		cmp	r0, #4
 673 0014 24D1     		bne	.L51
 674              	.L47:
 496:Drivers/STM32F4xx_HAL_Driver/Src/stm32f4xx_hal_sdram.c **** 
 675              		.loc 1 496 5 is_stmt 1 view .LVU176
 496:Drivers/STM32F4xx_HAL_Driver/Src/stm32f4xx_hal_sdram.c **** 
 676              		.loc 1 496 5 view .LVU177
 677 0016 95F82D40 		ldrb	r4, [r5, #45]	@ zero_extendqisi2
 678 001a 012C     		cmp	r4, #1
 679 001c 22D0     		beq	.L52
 496:Drivers/STM32F4xx_HAL_Driver/Src/stm32f4xx_hal_sdram.c **** 
 680              		.loc 1 496 5 discriminator 2 view .LVU178
 681 001e 0124     		movs	r4, #1
 682 0020 85F82D40 		strb	r4, [r5, #45]
 496:Drivers/STM32F4xx_HAL_Driver/Src/stm32f4xx_hal_sdram.c **** 
 683              		.loc 1 496 5 discriminator 2 view .LVU179
 499:Drivers/STM32F4xx_HAL_Driver/Src/stm32f4xx_hal_sdram.c **** 
 684              		.loc 1 499 5 discriminator 2 view .LVU180
 499:Drivers/STM32F4xx_HAL_Driver/Src/stm32f4xx_hal_sdram.c **** 
 685              		.loc 1 499 19 is_stmt 0 discriminator 2 view .LVU181
 686 0024 0224     		movs	r4, #2
 687 0026 85F82C40 		strb	r4, [r5, #44]
 502:Drivers/STM32F4xx_HAL_Driver/Src/stm32f4xx_hal_sdram.c ****     {
 688              		.loc 1 502 5 is_stmt 1 discriminator 2 view .LVU182
ARM GAS  /tmp/cc7nahFA.s 			page 38


 689              	.LVL56:
 502:Drivers/STM32F4xx_HAL_Driver/Src/stm32f4xx_hal_sdram.c ****     {
 690              		.loc 1 502 15 is_stmt 0 discriminator 2 view .LVU183
 691 002a 9E46     		mov	lr, r3
 502:Drivers/STM32F4xx_HAL_Driver/Src/stm32f4xx_hal_sdram.c ****     {
 692              		.loc 1 502 5 discriminator 2 view .LVU184
 693 002c 0AE0     		b	.L48
 694              	.LVL57:
 695              	.L49:
 504:Drivers/STM32F4xx_HAL_Driver/Src/stm32f4xx_hal_sdram.c ****       pdestbuff++;
 696              		.loc 1 504 7 is_stmt 1 discriminator 3 view .LVU185
 504:Drivers/STM32F4xx_HAL_Driver/Src/stm32f4xx_hal_sdram.c ****       pdestbuff++;
 697              		.loc 1 504 32 is_stmt 0 discriminator 3 view .LVU186
 698 002e 0C68     		ldr	r4, [r1]
 504:Drivers/STM32F4xx_HAL_Driver/Src/stm32f4xx_hal_sdram.c ****       pdestbuff++;
 699              		.loc 1 504 18 discriminator 3 view .LVU187
 700 0030 1480     		strh	r4, [r2]	@ movhi
 505:Drivers/STM32F4xx_HAL_Driver/Src/stm32f4xx_hal_sdram.c ****       *pdestbuff = (uint16_t)(((*pSdramAddress) & 0xFFFF0000U) >> 16U);
 701              		.loc 1 505 7 is_stmt 1 discriminator 3 view .LVU188
 702              	.LVL58:
 506:Drivers/STM32F4xx_HAL_Driver/Src/stm32f4xx_hal_sdram.c ****       pdestbuff++;
 703              		.loc 1 506 7 discriminator 3 view .LVU189
 506:Drivers/STM32F4xx_HAL_Driver/Src/stm32f4xx_hal_sdram.c ****       pdestbuff++;
 704              		.loc 1 506 33 is_stmt 0 discriminator 3 view .LVU190
 705 0032 51F8044B 		ldr	r4, [r1], #4
 706              	.LVL59:
 506:Drivers/STM32F4xx_HAL_Driver/Src/stm32f4xx_hal_sdram.c ****       pdestbuff++;
 707              		.loc 1 506 20 discriminator 3 view .LVU191
 708 0036 4FEA144C 		lsr	ip, r4, #16
 506:Drivers/STM32F4xx_HAL_Driver/Src/stm32f4xx_hal_sdram.c ****       pdestbuff++;
 709              		.loc 1 506 18 discriminator 3 view .LVU192
 710 003a A2F802C0 		strh	ip, [r2, #2]	@ movhi
 507:Drivers/STM32F4xx_HAL_Driver/Src/stm32f4xx_hal_sdram.c ****       pSdramAddress++;
 711              		.loc 1 507 7 is_stmt 1 discriminator 3 view .LVU193
 507:Drivers/STM32F4xx_HAL_Driver/Src/stm32f4xx_hal_sdram.c ****       pSdramAddress++;
 712              		.loc 1 507 16 is_stmt 0 discriminator 3 view .LVU194
 713 003e 0432     		adds	r2, r2, #4
 714              	.LVL60:
 508:Drivers/STM32F4xx_HAL_Driver/Src/stm32f4xx_hal_sdram.c ****     }
 715              		.loc 1 508 7 is_stmt 1 discriminator 3 view .LVU195
 502:Drivers/STM32F4xx_HAL_Driver/Src/stm32f4xx_hal_sdram.c ****     {
 716              		.loc 1 502 47 discriminator 3 view .LVU196
 717 0040 AEF1020E 		sub	lr, lr, #2
 718              	.LVL61:
 719              	.L48:
 502:Drivers/STM32F4xx_HAL_Driver/Src/stm32f4xx_hal_sdram.c ****     {
 720              		.loc 1 502 34 discriminator 1 view .LVU197
 721 0044 BEF1010F 		cmp	lr, #1
 722 0048 F1D8     		bhi	.L49
 512:Drivers/STM32F4xx_HAL_Driver/Src/stm32f4xx_hal_sdram.c ****     {
 723              		.loc 1 512 5 view .LVU198
 512:Drivers/STM32F4xx_HAL_Driver/Src/stm32f4xx_hal_sdram.c ****     {
 724              		.loc 1 512 8 is_stmt 0 view .LVU199
 725 004a 13F0010F 		tst	r3, #1
 726 004e 01D0     		beq	.L50
 514:Drivers/STM32F4xx_HAL_Driver/Src/stm32f4xx_hal_sdram.c ****     }
 727              		.loc 1 514 7 is_stmt 1 view .LVU200
ARM GAS  /tmp/cc7nahFA.s 			page 39


 514:Drivers/STM32F4xx_HAL_Driver/Src/stm32f4xx_hal_sdram.c ****     }
 728              		.loc 1 514 32 is_stmt 0 view .LVU201
 729 0050 0B68     		ldr	r3, [r1]
 730              	.LVL62:
 514:Drivers/STM32F4xx_HAL_Driver/Src/stm32f4xx_hal_sdram.c ****     }
 731              		.loc 1 514 18 view .LVU202
 732 0052 1380     		strh	r3, [r2]	@ movhi
 733              	.L50:
 518:Drivers/STM32F4xx_HAL_Driver/Src/stm32f4xx_hal_sdram.c **** 
 734              		.loc 1 518 5 is_stmt 1 view .LVU203
 518:Drivers/STM32F4xx_HAL_Driver/Src/stm32f4xx_hal_sdram.c **** 
 735              		.loc 1 518 19 is_stmt 0 view .LVU204
 736 0054 85F82C00 		strb	r0, [r5, #44]
 521:Drivers/STM32F4xx_HAL_Driver/Src/stm32f4xx_hal_sdram.c ****   }
 737              		.loc 1 521 5 is_stmt 1 view .LVU205
 521:Drivers/STM32F4xx_HAL_Driver/Src/stm32f4xx_hal_sdram.c ****   }
 738              		.loc 1 521 5 view .LVU206
 739 0058 0020     		movs	r0, #0
 740              	.LVL63:
 521:Drivers/STM32F4xx_HAL_Driver/Src/stm32f4xx_hal_sdram.c ****   }
 741              		.loc 1 521 5 is_stmt 0 view .LVU207
 742 005a 85F82D00 		strb	r0, [r5, #45]
 521:Drivers/STM32F4xx_HAL_Driver/Src/stm32f4xx_hal_sdram.c ****   }
 743              		.loc 1 521 5 is_stmt 1 view .LVU208
 528:Drivers/STM32F4xx_HAL_Driver/Src/stm32f4xx_hal_sdram.c **** }
 744              		.loc 1 528 3 view .LVU209
 745              	.LVL64:
 746              	.L46:
 529:Drivers/STM32F4xx_HAL_Driver/Src/stm32f4xx_hal_sdram.c **** 
 747              		.loc 1 529 1 is_stmt 0 view .LVU210
 748 005e 30BD     		pop	{r4, r5, pc}
 749              	.LVL65:
 750              	.L51:
 525:Drivers/STM32F4xx_HAL_Driver/Src/stm32f4xx_hal_sdram.c ****   }
 751              		.loc 1 525 13 view .LVU211
 752 0060 0120     		movs	r0, #1
 753              	.LVL66:
 525:Drivers/STM32F4xx_HAL_Driver/Src/stm32f4xx_hal_sdram.c ****   }
 754              		.loc 1 525 13 view .LVU212
 755 0062 FCE7     		b	.L46
 756              	.LVL67:
 757              	.L52:
 496:Drivers/STM32F4xx_HAL_Driver/Src/stm32f4xx_hal_sdram.c **** 
 758              		.loc 1 496 5 view .LVU213
 759 0064 0220     		movs	r0, #2
 760              	.LVL68:
 496:Drivers/STM32F4xx_HAL_Driver/Src/stm32f4xx_hal_sdram.c **** 
 761              		.loc 1 496 5 view .LVU214
 762 0066 FAE7     		b	.L46
 763              		.cfi_endproc
 764              	.LFE144:
 766              		.section	.text.HAL_SDRAM_Write_16b,"ax",%progbits
 767              		.align	1
 768              		.global	HAL_SDRAM_Write_16b
 769              		.syntax unified
 770              		.thumb
 771              		.thumb_func
ARM GAS  /tmp/cc7nahFA.s 			page 40


 773              	HAL_SDRAM_Write_16b:
 774              	.LVL69:
 775              	.LFB145:
 542:Drivers/STM32F4xx_HAL_Driver/Src/stm32f4xx_hal_sdram.c ****   uint32_t size;
 776              		.loc 1 542 1 is_stmt 1 view -0
 777              		.cfi_startproc
 778              		@ args = 0, pretend = 0, frame = 0
 779              		@ frame_needed = 0, uses_anonymous_args = 0
 542:Drivers/STM32F4xx_HAL_Driver/Src/stm32f4xx_hal_sdram.c ****   uint32_t size;
 780              		.loc 1 542 1 is_stmt 0 view .LVU216
 781 0000 10B5     		push	{r4, lr}
 782              	.LCFI10:
 783              		.cfi_def_cfa_offset 8
 784              		.cfi_offset 4, -8
 785              		.cfi_offset 14, -4
 786 0002 8646     		mov	lr, r0
 543:Drivers/STM32F4xx_HAL_Driver/Src/stm32f4xx_hal_sdram.c ****   __IO uint32_t *psdramaddress = pAddress;
 787              		.loc 1 543 3 is_stmt 1 view .LVU217
 544:Drivers/STM32F4xx_HAL_Driver/Src/stm32f4xx_hal_sdram.c ****   uint16_t *psrcbuff = pSrcBuffer;
 788              		.loc 1 544 3 view .LVU218
 789              	.LVL70:
 545:Drivers/STM32F4xx_HAL_Driver/Src/stm32f4xx_hal_sdram.c **** 
 790              		.loc 1 545 3 view .LVU219
 548:Drivers/STM32F4xx_HAL_Driver/Src/stm32f4xx_hal_sdram.c ****   {
 791              		.loc 1 548 3 view .LVU220
 548:Drivers/STM32F4xx_HAL_Driver/Src/stm32f4xx_hal_sdram.c ****   {
 792              		.loc 1 548 13 is_stmt 0 view .LVU221
 793 0004 90F82C40 		ldrb	r4, [r0, #44]	@ zero_extendqisi2
 794 0008 E0B2     		uxtb	r0, r4
 795              	.LVL71:
 548:Drivers/STM32F4xx_HAL_Driver/Src/stm32f4xx_hal_sdram.c ****   {
 796              		.loc 1 548 6 view .LVU222
 797 000a 0228     		cmp	r0, #2
 798 000c 2FD0     		beq	.L55
 552:Drivers/STM32F4xx_HAL_Driver/Src/stm32f4xx_hal_sdram.c ****   {
 799              		.loc 1 552 8 is_stmt 1 view .LVU223
 552:Drivers/STM32F4xx_HAL_Driver/Src/stm32f4xx_hal_sdram.c ****   {
 800              		.loc 1 552 18 is_stmt 0 view .LVU224
 801 000e 9EF82C00 		ldrb	r0, [lr, #44]	@ zero_extendqisi2
 802 0012 C0B2     		uxtb	r0, r0
 552:Drivers/STM32F4xx_HAL_Driver/Src/stm32f4xx_hal_sdram.c ****   {
 803              		.loc 1 552 11 view .LVU225
 804 0014 0128     		cmp	r0, #1
 805 0016 29D1     		bne	.L59
 555:Drivers/STM32F4xx_HAL_Driver/Src/stm32f4xx_hal_sdram.c **** 
 806              		.loc 1 555 5 is_stmt 1 view .LVU226
 555:Drivers/STM32F4xx_HAL_Driver/Src/stm32f4xx_hal_sdram.c **** 
 807              		.loc 1 555 5 view .LVU227
 808 0018 9EF82D00 		ldrb	r0, [lr, #45]	@ zero_extendqisi2
 809 001c 0128     		cmp	r0, #1
 810 001e 27D0     		beq	.L60
 555:Drivers/STM32F4xx_HAL_Driver/Src/stm32f4xx_hal_sdram.c **** 
 811              		.loc 1 555 5 discriminator 2 view .LVU228
 812 0020 0120     		movs	r0, #1
 813 0022 8EF82D00 		strb	r0, [lr, #45]
 555:Drivers/STM32F4xx_HAL_Driver/Src/stm32f4xx_hal_sdram.c **** 
 814              		.loc 1 555 5 discriminator 2 view .LVU229
ARM GAS  /tmp/cc7nahFA.s 			page 41


 558:Drivers/STM32F4xx_HAL_Driver/Src/stm32f4xx_hal_sdram.c **** 
 815              		.loc 1 558 5 discriminator 2 view .LVU230
 558:Drivers/STM32F4xx_HAL_Driver/Src/stm32f4xx_hal_sdram.c **** 
 816              		.loc 1 558 19 is_stmt 0 discriminator 2 view .LVU231
 817 0026 0220     		movs	r0, #2
 818 0028 8EF82C00 		strb	r0, [lr, #44]
 561:Drivers/STM32F4xx_HAL_Driver/Src/stm32f4xx_hal_sdram.c ****     {
 819              		.loc 1 561 5 is_stmt 1 discriminator 2 view .LVU232
 820              	.LVL72:
 561:Drivers/STM32F4xx_HAL_Driver/Src/stm32f4xx_hal_sdram.c ****     {
 821              		.loc 1 561 15 is_stmt 0 discriminator 2 view .LVU233
 822 002c 9C46     		mov	ip, r3
 561:Drivers/STM32F4xx_HAL_Driver/Src/stm32f4xx_hal_sdram.c ****     {
 823              		.loc 1 561 5 discriminator 2 view .LVU234
 824 002e 0AE0     		b	.L56
 825              	.LVL73:
 826              	.L57:
 563:Drivers/STM32F4xx_HAL_Driver/Src/stm32f4xx_hal_sdram.c ****       psrcbuff++;
 827              		.loc 1 563 7 is_stmt 1 discriminator 3 view .LVU235
 563:Drivers/STM32F4xx_HAL_Driver/Src/stm32f4xx_hal_sdram.c ****       psrcbuff++;
 828              		.loc 1 563 35 is_stmt 0 discriminator 3 view .LVU236
 829 0030 1088     		ldrh	r0, [r2]
 563:Drivers/STM32F4xx_HAL_Driver/Src/stm32f4xx_hal_sdram.c ****       psrcbuff++;
 830              		.loc 1 563 22 discriminator 3 view .LVU237
 831 0032 0860     		str	r0, [r1]
 564:Drivers/STM32F4xx_HAL_Driver/Src/stm32f4xx_hal_sdram.c ****       *psdramaddress |= ((uint32_t)(*psrcbuff) << 16U);
 832              		.loc 1 564 7 is_stmt 1 discriminator 3 view .LVU238
 833              	.LVL74:
 565:Drivers/STM32F4xx_HAL_Driver/Src/stm32f4xx_hal_sdram.c ****       psrcbuff++;
 834              		.loc 1 565 7 discriminator 3 view .LVU239
 835 0034 0C68     		ldr	r4, [r1]
 565:Drivers/STM32F4xx_HAL_Driver/Src/stm32f4xx_hal_sdram.c ****       psrcbuff++;
 836              		.loc 1 565 37 is_stmt 0 discriminator 3 view .LVU240
 837 0036 5088     		ldrh	r0, [r2, #2]
 565:Drivers/STM32F4xx_HAL_Driver/Src/stm32f4xx_hal_sdram.c ****       psrcbuff++;
 838              		.loc 1 565 22 discriminator 3 view .LVU241
 839 0038 44EA0044 		orr	r4, r4, r0, lsl #16
 840 003c 41F8044B 		str	r4, [r1], #4
 841              	.LVL75:
 566:Drivers/STM32F4xx_HAL_Driver/Src/stm32f4xx_hal_sdram.c ****       psdramaddress++;
 842              		.loc 1 566 7 is_stmt 1 discriminator 3 view .LVU242
 566:Drivers/STM32F4xx_HAL_Driver/Src/stm32f4xx_hal_sdram.c ****       psdramaddress++;
 843              		.loc 1 566 15 is_stmt 0 discriminator 3 view .LVU243
 844 0040 0432     		adds	r2, r2, #4
 845              	.LVL76:
 567:Drivers/STM32F4xx_HAL_Driver/Src/stm32f4xx_hal_sdram.c ****     }
 846              		.loc 1 567 7 is_stmt 1 discriminator 3 view .LVU244
 561:Drivers/STM32F4xx_HAL_Driver/Src/stm32f4xx_hal_sdram.c ****     {
 847              		.loc 1 561 47 discriminator 3 view .LVU245
 848 0042 ACF1020C 		sub	ip, ip, #2
 849              	.LVL77:
 850              	.L56:
 561:Drivers/STM32F4xx_HAL_Driver/Src/stm32f4xx_hal_sdram.c ****     {
 851              		.loc 1 561 34 discriminator 1 view .LVU246
 852 0046 BCF1010F 		cmp	ip, #1
 853 004a F1D8     		bhi	.L57
 571:Drivers/STM32F4xx_HAL_Driver/Src/stm32f4xx_hal_sdram.c ****     {
ARM GAS  /tmp/cc7nahFA.s 			page 42


 854              		.loc 1 571 5 view .LVU247
 571:Drivers/STM32F4xx_HAL_Driver/Src/stm32f4xx_hal_sdram.c ****     {
 855              		.loc 1 571 8 is_stmt 0 view .LVU248
 856 004c 13F0010F 		tst	r3, #1
 857 0050 05D0     		beq	.L58
 573:Drivers/STM32F4xx_HAL_Driver/Src/stm32f4xx_hal_sdram.c ****     }
 858              		.loc 1 573 7 is_stmt 1 view .LVU249
 573:Drivers/STM32F4xx_HAL_Driver/Src/stm32f4xx_hal_sdram.c ****     }
 859              		.loc 1 573 36 is_stmt 0 view .LVU250
 860 0052 1288     		ldrh	r2, [r2]
 861              	.LVL78:
 573:Drivers/STM32F4xx_HAL_Driver/Src/stm32f4xx_hal_sdram.c ****     }
 862              		.loc 1 573 66 view .LVU251
 863 0054 0B68     		ldr	r3, [r1]
 864              	.LVL79:
 573:Drivers/STM32F4xx_HAL_Driver/Src/stm32f4xx_hal_sdram.c ****     }
 865              		.loc 1 573 82 view .LVU252
 866 0056 1B0C     		lsrs	r3, r3, #16
 867 0058 1B04     		lsls	r3, r3, #16
 573:Drivers/STM32F4xx_HAL_Driver/Src/stm32f4xx_hal_sdram.c ****     }
 868              		.loc 1 573 62 view .LVU253
 869 005a 1343     		orrs	r3, r3, r2
 573:Drivers/STM32F4xx_HAL_Driver/Src/stm32f4xx_hal_sdram.c ****     }
 870              		.loc 1 573 22 view .LVU254
 871 005c 0B60     		str	r3, [r1]
 872              	.L58:
 577:Drivers/STM32F4xx_HAL_Driver/Src/stm32f4xx_hal_sdram.c **** 
 873              		.loc 1 577 5 is_stmt 1 view .LVU255
 577:Drivers/STM32F4xx_HAL_Driver/Src/stm32f4xx_hal_sdram.c **** 
 874              		.loc 1 577 19 is_stmt 0 view .LVU256
 875 005e 0123     		movs	r3, #1
 876 0060 8EF82C30 		strb	r3, [lr, #44]
 580:Drivers/STM32F4xx_HAL_Driver/Src/stm32f4xx_hal_sdram.c ****   }
 877              		.loc 1 580 5 is_stmt 1 view .LVU257
 580:Drivers/STM32F4xx_HAL_Driver/Src/stm32f4xx_hal_sdram.c ****   }
 878              		.loc 1 580 5 view .LVU258
 879 0064 0020     		movs	r0, #0
 880 0066 8EF82D00 		strb	r0, [lr, #45]
 580:Drivers/STM32F4xx_HAL_Driver/Src/stm32f4xx_hal_sdram.c ****   }
 881              		.loc 1 580 5 view .LVU259
 587:Drivers/STM32F4xx_HAL_Driver/Src/stm32f4xx_hal_sdram.c **** }
 882              		.loc 1 587 3 view .LVU260
 587:Drivers/STM32F4xx_HAL_Driver/Src/stm32f4xx_hal_sdram.c **** }
 883              		.loc 1 587 10 is_stmt 0 view .LVU261
 884 006a 00E0     		b	.L55
 885              	.LVL80:
 886              	.L59:
 584:Drivers/STM32F4xx_HAL_Driver/Src/stm32f4xx_hal_sdram.c ****   }
 887              		.loc 1 584 13 view .LVU262
 888 006c 0120     		movs	r0, #1
 889              	.LVL81:
 890              	.L55:
 588:Drivers/STM32F4xx_HAL_Driver/Src/stm32f4xx_hal_sdram.c **** 
 891              		.loc 1 588 1 view .LVU263
 892 006e 10BD     		pop	{r4, pc}
 893              	.LVL82:
 894              	.L60:
ARM GAS  /tmp/cc7nahFA.s 			page 43


 555:Drivers/STM32F4xx_HAL_Driver/Src/stm32f4xx_hal_sdram.c **** 
 895              		.loc 1 555 5 view .LVU264
 896 0070 0220     		movs	r0, #2
 897 0072 FCE7     		b	.L55
 898              		.cfi_endproc
 899              	.LFE145:
 901              		.section	.text.HAL_SDRAM_Read_32b,"ax",%progbits
 902              		.align	1
 903              		.global	HAL_SDRAM_Read_32b
 904              		.syntax unified
 905              		.thumb
 906              		.thumb_func
 908              	HAL_SDRAM_Read_32b:
 909              	.LVL83:
 910              	.LFB146:
 601:Drivers/STM32F4xx_HAL_Driver/Src/stm32f4xx_hal_sdram.c ****   uint32_t size;
 911              		.loc 1 601 1 is_stmt 1 view -0
 912              		.cfi_startproc
 913              		@ args = 0, pretend = 0, frame = 0
 914              		@ frame_needed = 0, uses_anonymous_args = 0
 601:Drivers/STM32F4xx_HAL_Driver/Src/stm32f4xx_hal_sdram.c ****   uint32_t size;
 915              		.loc 1 601 1 is_stmt 0 view .LVU266
 916 0000 10B5     		push	{r4, lr}
 917              	.LCFI11:
 918              		.cfi_def_cfa_offset 8
 919              		.cfi_offset 4, -8
 920              		.cfi_offset 14, -4
 921 0002 8646     		mov	lr, r0
 602:Drivers/STM32F4xx_HAL_Driver/Src/stm32f4xx_hal_sdram.c ****   __IO uint32_t *pSdramAddress = (uint32_t *)pAddress;
 922              		.loc 1 602 3 is_stmt 1 view .LVU267
 603:Drivers/STM32F4xx_HAL_Driver/Src/stm32f4xx_hal_sdram.c ****   uint32_t *pdestbuff = pDstBuffer;
 923              		.loc 1 603 3 view .LVU268
 924              	.LVL84:
 604:Drivers/STM32F4xx_HAL_Driver/Src/stm32f4xx_hal_sdram.c ****   HAL_SDRAM_StateTypeDef state = hsdram->State;
 925              		.loc 1 604 3 view .LVU269
 605:Drivers/STM32F4xx_HAL_Driver/Src/stm32f4xx_hal_sdram.c **** 
 926              		.loc 1 605 3 view .LVU270
 605:Drivers/STM32F4xx_HAL_Driver/Src/stm32f4xx_hal_sdram.c **** 
 927              		.loc 1 605 26 is_stmt 0 view .LVU271
 928 0004 90F82CC0 		ldrb	ip, [r0, #44]	@ zero_extendqisi2
 929 0008 5FFA8CF0 		uxtb	r0, ip
 930              	.LVL85:
 608:Drivers/STM32F4xx_HAL_Driver/Src/stm32f4xx_hal_sdram.c ****   {
 931              		.loc 1 608 3 is_stmt 1 view .LVU272
 608:Drivers/STM32F4xx_HAL_Driver/Src/stm32f4xx_hal_sdram.c ****   {
 932              		.loc 1 608 6 is_stmt 0 view .LVU273
 933 000c 0228     		cmp	r0, #2
 934 000e 1AD0     		beq	.L63
 612:Drivers/STM32F4xx_HAL_Driver/Src/stm32f4xx_hal_sdram.c ****   {
 935              		.loc 1 612 8 is_stmt 1 view .LVU274
 612:Drivers/STM32F4xx_HAL_Driver/Src/stm32f4xx_hal_sdram.c ****   {
 936              		.loc 1 612 11 is_stmt 0 view .LVU275
 937 0010 0128     		cmp	r0, #1
 938 0012 01D0     		beq	.L64
 612:Drivers/STM32F4xx_HAL_Driver/Src/stm32f4xx_hal_sdram.c ****   {
 939              		.loc 1 612 45 discriminator 1 view .LVU276
 940 0014 0428     		cmp	r0, #4
ARM GAS  /tmp/cc7nahFA.s 			page 44


 941 0016 17D1     		bne	.L67
 942              	.L64:
 615:Drivers/STM32F4xx_HAL_Driver/Src/stm32f4xx_hal_sdram.c **** 
 943              		.loc 1 615 5 is_stmt 1 view .LVU277
 615:Drivers/STM32F4xx_HAL_Driver/Src/stm32f4xx_hal_sdram.c **** 
 944              		.loc 1 615 5 view .LVU278
 945 0018 9EF82D40 		ldrb	r4, [lr, #45]	@ zero_extendqisi2
 946 001c 012C     		cmp	r4, #1
 947 001e 15D0     		beq	.L68
 615:Drivers/STM32F4xx_HAL_Driver/Src/stm32f4xx_hal_sdram.c **** 
 948              		.loc 1 615 5 discriminator 2 view .LVU279
 949 0020 0124     		movs	r4, #1
 950 0022 8EF82D40 		strb	r4, [lr, #45]
 615:Drivers/STM32F4xx_HAL_Driver/Src/stm32f4xx_hal_sdram.c **** 
 951              		.loc 1 615 5 discriminator 2 view .LVU280
 618:Drivers/STM32F4xx_HAL_Driver/Src/stm32f4xx_hal_sdram.c **** 
 952              		.loc 1 618 5 discriminator 2 view .LVU281
 618:Drivers/STM32F4xx_HAL_Driver/Src/stm32f4xx_hal_sdram.c **** 
 953              		.loc 1 618 19 is_stmt 0 discriminator 2 view .LVU282
 954 0026 0224     		movs	r4, #2
 955 0028 8EF82C40 		strb	r4, [lr, #44]
 621:Drivers/STM32F4xx_HAL_Driver/Src/stm32f4xx_hal_sdram.c ****     {
 956              		.loc 1 621 5 is_stmt 1 discriminator 2 view .LVU283
 957              	.LVL86:
 621:Drivers/STM32F4xx_HAL_Driver/Src/stm32f4xx_hal_sdram.c ****     {
 958              		.loc 1 621 5 is_stmt 0 discriminator 2 view .LVU284
 959 002c 04E0     		b	.L65
 960              	.LVL87:
 961              	.L66:
 623:Drivers/STM32F4xx_HAL_Driver/Src/stm32f4xx_hal_sdram.c ****       pdestbuff++;
 962              		.loc 1 623 7 is_stmt 1 discriminator 3 view .LVU285
 623:Drivers/STM32F4xx_HAL_Driver/Src/stm32f4xx_hal_sdram.c ****       pdestbuff++;
 963              		.loc 1 623 20 is_stmt 0 discriminator 3 view .LVU286
 964 002e 51F8044B 		ldr	r4, [r1], #4
 965              	.LVL88:
 623:Drivers/STM32F4xx_HAL_Driver/Src/stm32f4xx_hal_sdram.c ****       pdestbuff++;
 966              		.loc 1 623 18 discriminator 3 view .LVU287
 967 0032 42F8044B 		str	r4, [r2], #4
 968              	.LVL89:
 624:Drivers/STM32F4xx_HAL_Driver/Src/stm32f4xx_hal_sdram.c ****       pSdramAddress++;
 969              		.loc 1 624 7 is_stmt 1 discriminator 3 view .LVU288
 625:Drivers/STM32F4xx_HAL_Driver/Src/stm32f4xx_hal_sdram.c ****     }
 970              		.loc 1 625 7 discriminator 3 view .LVU289
 621:Drivers/STM32F4xx_HAL_Driver/Src/stm32f4xx_hal_sdram.c ****     {
 971              		.loc 1 621 45 discriminator 3 view .LVU290
 972 0036 013B     		subs	r3, r3, #1
 973              	.LVL90:
 974              	.L65:
 621:Drivers/STM32F4xx_HAL_Driver/Src/stm32f4xx_hal_sdram.c ****     {
 975              		.loc 1 621 34 discriminator 1 view .LVU291
 976 0038 002B     		cmp	r3, #0
 977 003a F8D1     		bne	.L66
 629:Drivers/STM32F4xx_HAL_Driver/Src/stm32f4xx_hal_sdram.c **** 
 978              		.loc 1 629 5 view .LVU292
 629:Drivers/STM32F4xx_HAL_Driver/Src/stm32f4xx_hal_sdram.c **** 
 979              		.loc 1 629 19 is_stmt 0 view .LVU293
 980 003c 8EF82C00 		strb	r0, [lr, #44]
ARM GAS  /tmp/cc7nahFA.s 			page 45


 632:Drivers/STM32F4xx_HAL_Driver/Src/stm32f4xx_hal_sdram.c ****   }
 981              		.loc 1 632 5 is_stmt 1 view .LVU294
 632:Drivers/STM32F4xx_HAL_Driver/Src/stm32f4xx_hal_sdram.c ****   }
 982              		.loc 1 632 5 view .LVU295
 983 0040 0020     		movs	r0, #0
 984              	.LVL91:
 632:Drivers/STM32F4xx_HAL_Driver/Src/stm32f4xx_hal_sdram.c ****   }
 985              		.loc 1 632 5 is_stmt 0 view .LVU296
 986 0042 8EF82D00 		strb	r0, [lr, #45]
 632:Drivers/STM32F4xx_HAL_Driver/Src/stm32f4xx_hal_sdram.c ****   }
 987              		.loc 1 632 5 is_stmt 1 view .LVU297
 639:Drivers/STM32F4xx_HAL_Driver/Src/stm32f4xx_hal_sdram.c **** }
 988              		.loc 1 639 3 view .LVU298
 989              	.LVL92:
 990              	.L63:
 640:Drivers/STM32F4xx_HAL_Driver/Src/stm32f4xx_hal_sdram.c **** 
 991              		.loc 1 640 1 is_stmt 0 view .LVU299
 992 0046 10BD     		pop	{r4, pc}
 993              	.LVL93:
 994              	.L67:
 636:Drivers/STM32F4xx_HAL_Driver/Src/stm32f4xx_hal_sdram.c ****   }
 995              		.loc 1 636 13 view .LVU300
 996 0048 0120     		movs	r0, #1
 997              	.LVL94:
 636:Drivers/STM32F4xx_HAL_Driver/Src/stm32f4xx_hal_sdram.c ****   }
 998              		.loc 1 636 13 view .LVU301
 999 004a FCE7     		b	.L63
 1000              	.LVL95:
 1001              	.L68:
 615:Drivers/STM32F4xx_HAL_Driver/Src/stm32f4xx_hal_sdram.c **** 
 1002              		.loc 1 615 5 view .LVU302
 1003 004c 0220     		movs	r0, #2
 1004              	.LVL96:
 615:Drivers/STM32F4xx_HAL_Driver/Src/stm32f4xx_hal_sdram.c **** 
 1005              		.loc 1 615 5 view .LVU303
 1006 004e FAE7     		b	.L63
 1007              		.cfi_endproc
 1008              	.LFE146:
 1010              		.section	.text.HAL_SDRAM_Write_32b,"ax",%progbits
 1011              		.align	1
 1012              		.global	HAL_SDRAM_Write_32b
 1013              		.syntax unified
 1014              		.thumb
 1015              		.thumb_func
 1017              	HAL_SDRAM_Write_32b:
 1018              	.LVL97:
 1019              	.LFB147:
 653:Drivers/STM32F4xx_HAL_Driver/Src/stm32f4xx_hal_sdram.c ****   uint32_t size;
 1020              		.loc 1 653 1 is_stmt 1 view -0
 1021              		.cfi_startproc
 1022              		@ args = 0, pretend = 0, frame = 0
 1023              		@ frame_needed = 0, uses_anonymous_args = 0
 653:Drivers/STM32F4xx_HAL_Driver/Src/stm32f4xx_hal_sdram.c ****   uint32_t size;
 1024              		.loc 1 653 1 is_stmt 0 view .LVU305
 1025 0000 00B5     		push	{lr}
 1026              	.LCFI12:
 1027              		.cfi_def_cfa_offset 4
ARM GAS  /tmp/cc7nahFA.s 			page 46


 1028              		.cfi_offset 14, -4
 1029 0002 8646     		mov	lr, r0
 654:Drivers/STM32F4xx_HAL_Driver/Src/stm32f4xx_hal_sdram.c ****   __IO uint32_t *pSdramAddress = pAddress;
 1030              		.loc 1 654 3 is_stmt 1 view .LVU306
 655:Drivers/STM32F4xx_HAL_Driver/Src/stm32f4xx_hal_sdram.c ****   uint32_t *psrcbuff = pSrcBuffer;
 1031              		.loc 1 655 3 view .LVU307
 1032              	.LVL98:
 656:Drivers/STM32F4xx_HAL_Driver/Src/stm32f4xx_hal_sdram.c **** 
 1033              		.loc 1 656 3 view .LVU308
 659:Drivers/STM32F4xx_HAL_Driver/Src/stm32f4xx_hal_sdram.c ****   {
 1034              		.loc 1 659 3 view .LVU309
 659:Drivers/STM32F4xx_HAL_Driver/Src/stm32f4xx_hal_sdram.c ****   {
 1035              		.loc 1 659 13 is_stmt 0 view .LVU310
 1036 0004 90F82CC0 		ldrb	ip, [r0, #44]	@ zero_extendqisi2
 1037 0008 5FFA8CF0 		uxtb	r0, ip
 1038              	.LVL99:
 659:Drivers/STM32F4xx_HAL_Driver/Src/stm32f4xx_hal_sdram.c ****   {
 1039              		.loc 1 659 6 view .LVU311
 1040 000c 0228     		cmp	r0, #2
 1041 000e 1ED0     		beq	.L71
 663:Drivers/STM32F4xx_HAL_Driver/Src/stm32f4xx_hal_sdram.c ****   {
 1042              		.loc 1 663 8 is_stmt 1 view .LVU312
 663:Drivers/STM32F4xx_HAL_Driver/Src/stm32f4xx_hal_sdram.c ****   {
 1043              		.loc 1 663 18 is_stmt 0 view .LVU313
 1044 0010 9EF82C00 		ldrb	r0, [lr, #44]	@ zero_extendqisi2
 1045 0014 C0B2     		uxtb	r0, r0
 663:Drivers/STM32F4xx_HAL_Driver/Src/stm32f4xx_hal_sdram.c ****   {
 1046              		.loc 1 663 11 view .LVU314
 1047 0016 0128     		cmp	r0, #1
 1048 0018 18D1     		bne	.L74
 666:Drivers/STM32F4xx_HAL_Driver/Src/stm32f4xx_hal_sdram.c **** 
 1049              		.loc 1 666 5 is_stmt 1 view .LVU315
 666:Drivers/STM32F4xx_HAL_Driver/Src/stm32f4xx_hal_sdram.c **** 
 1050              		.loc 1 666 5 view .LVU316
 1051 001a 9EF82D00 		ldrb	r0, [lr, #45]	@ zero_extendqisi2
 1052 001e 0128     		cmp	r0, #1
 1053 0020 17D0     		beq	.L75
 666:Drivers/STM32F4xx_HAL_Driver/Src/stm32f4xx_hal_sdram.c **** 
 1054              		.loc 1 666 5 discriminator 2 view .LVU317
 1055 0022 0120     		movs	r0, #1
 1056 0024 8EF82D00 		strb	r0, [lr, #45]
 666:Drivers/STM32F4xx_HAL_Driver/Src/stm32f4xx_hal_sdram.c **** 
 1057              		.loc 1 666 5 discriminator 2 view .LVU318
 669:Drivers/STM32F4xx_HAL_Driver/Src/stm32f4xx_hal_sdram.c **** 
 1058              		.loc 1 669 5 discriminator 2 view .LVU319
 669:Drivers/STM32F4xx_HAL_Driver/Src/stm32f4xx_hal_sdram.c **** 
 1059              		.loc 1 669 19 is_stmt 0 discriminator 2 view .LVU320
 1060 0028 0220     		movs	r0, #2
 1061 002a 8EF82C00 		strb	r0, [lr, #44]
 672:Drivers/STM32F4xx_HAL_Driver/Src/stm32f4xx_hal_sdram.c ****     {
 1062              		.loc 1 672 5 is_stmt 1 discriminator 2 view .LVU321
 1063              	.LVL100:
 672:Drivers/STM32F4xx_HAL_Driver/Src/stm32f4xx_hal_sdram.c ****     {
 1064              		.loc 1 672 5 is_stmt 0 discriminator 2 view .LVU322
 1065 002e 04E0     		b	.L72
 1066              	.LVL101:
 1067              	.L73:
ARM GAS  /tmp/cc7nahFA.s 			page 47


 674:Drivers/STM32F4xx_HAL_Driver/Src/stm32f4xx_hal_sdram.c ****       psrcbuff++;
 1068              		.loc 1 674 7 is_stmt 1 discriminator 3 view .LVU323
 674:Drivers/STM32F4xx_HAL_Driver/Src/stm32f4xx_hal_sdram.c ****       psrcbuff++;
 1069              		.loc 1 674 24 is_stmt 0 discriminator 3 view .LVU324
 1070 0030 52F8040B 		ldr	r0, [r2], #4
 1071              	.LVL102:
 674:Drivers/STM32F4xx_HAL_Driver/Src/stm32f4xx_hal_sdram.c ****       psrcbuff++;
 1072              		.loc 1 674 22 discriminator 3 view .LVU325
 1073 0034 41F8040B 		str	r0, [r1], #4
 1074              	.LVL103:
 675:Drivers/STM32F4xx_HAL_Driver/Src/stm32f4xx_hal_sdram.c ****       pSdramAddress++;
 1075              		.loc 1 675 7 is_stmt 1 discriminator 3 view .LVU326
 676:Drivers/STM32F4xx_HAL_Driver/Src/stm32f4xx_hal_sdram.c ****     }
 1076              		.loc 1 676 7 discriminator 3 view .LVU327
 672:Drivers/STM32F4xx_HAL_Driver/Src/stm32f4xx_hal_sdram.c ****     {
 1077              		.loc 1 672 45 discriminator 3 view .LVU328
 1078 0038 013B     		subs	r3, r3, #1
 1079              	.LVL104:
 1080              	.L72:
 672:Drivers/STM32F4xx_HAL_Driver/Src/stm32f4xx_hal_sdram.c ****     {
 1081              		.loc 1 672 34 discriminator 1 view .LVU329
 1082 003a 002B     		cmp	r3, #0
 1083 003c F8D1     		bne	.L73
 680:Drivers/STM32F4xx_HAL_Driver/Src/stm32f4xx_hal_sdram.c **** 
 1084              		.loc 1 680 5 view .LVU330
 680:Drivers/STM32F4xx_HAL_Driver/Src/stm32f4xx_hal_sdram.c **** 
 1085              		.loc 1 680 19 is_stmt 0 view .LVU331
 1086 003e 0123     		movs	r3, #1
 1087              	.LVL105:
 680:Drivers/STM32F4xx_HAL_Driver/Src/stm32f4xx_hal_sdram.c **** 
 1088              		.loc 1 680 19 view .LVU332
 1089 0040 8EF82C30 		strb	r3, [lr, #44]
 683:Drivers/STM32F4xx_HAL_Driver/Src/stm32f4xx_hal_sdram.c ****   }
 1090              		.loc 1 683 5 is_stmt 1 view .LVU333
 683:Drivers/STM32F4xx_HAL_Driver/Src/stm32f4xx_hal_sdram.c ****   }
 1091              		.loc 1 683 5 view .LVU334
 1092 0044 0020     		movs	r0, #0
 1093 0046 8EF82D00 		strb	r0, [lr, #45]
 683:Drivers/STM32F4xx_HAL_Driver/Src/stm32f4xx_hal_sdram.c ****   }
 1094              		.loc 1 683 5 view .LVU335
 690:Drivers/STM32F4xx_HAL_Driver/Src/stm32f4xx_hal_sdram.c **** }
 1095              		.loc 1 690 3 view .LVU336
 690:Drivers/STM32F4xx_HAL_Driver/Src/stm32f4xx_hal_sdram.c **** }
 1096              		.loc 1 690 10 is_stmt 0 view .LVU337
 1097 004a 00E0     		b	.L71
 1098              	.LVL106:
 1099              	.L74:
 687:Drivers/STM32F4xx_HAL_Driver/Src/stm32f4xx_hal_sdram.c ****   }
 1100              		.loc 1 687 13 view .LVU338
 1101 004c 0120     		movs	r0, #1
 1102              	.LVL107:
 1103              	.L71:
 691:Drivers/STM32F4xx_HAL_Driver/Src/stm32f4xx_hal_sdram.c **** 
 1104              		.loc 1 691 1 view .LVU339
 1105 004e 5DF804FB 		ldr	pc, [sp], #4
 1106              	.LVL108:
 1107              	.L75:
ARM GAS  /tmp/cc7nahFA.s 			page 48


 666:Drivers/STM32F4xx_HAL_Driver/Src/stm32f4xx_hal_sdram.c **** 
 1108              		.loc 1 666 5 view .LVU340
 1109 0052 0220     		movs	r0, #2
 1110 0054 FBE7     		b	.L71
 1111              		.cfi_endproc
 1112              	.LFE147:
 1114              		.section	.text.HAL_SDRAM_Read_DMA,"ax",%progbits
 1115              		.align	1
 1116              		.global	HAL_SDRAM_Read_DMA
 1117              		.syntax unified
 1118              		.thumb
 1119              		.thumb_func
 1121              	HAL_SDRAM_Read_DMA:
 1122              	.LVL109:
 1123              	.LFB148:
 704:Drivers/STM32F4xx_HAL_Driver/Src/stm32f4xx_hal_sdram.c ****   HAL_StatusTypeDef status;
 1124              		.loc 1 704 1 is_stmt 1 view -0
 1125              		.cfi_startproc
 1126              		@ args = 0, pretend = 0, frame = 0
 1127              		@ frame_needed = 0, uses_anonymous_args = 0
 704:Drivers/STM32F4xx_HAL_Driver/Src/stm32f4xx_hal_sdram.c ****   HAL_StatusTypeDef status;
 1128              		.loc 1 704 1 is_stmt 0 view .LVU342
 1129 0000 38B5     		push	{r3, r4, r5, lr}
 1130              	.LCFI13:
 1131              		.cfi_def_cfa_offset 16
 1132              		.cfi_offset 3, -16
 1133              		.cfi_offset 4, -12
 1134              		.cfi_offset 5, -8
 1135              		.cfi_offset 14, -4
 1136 0002 0446     		mov	r4, r0
 705:Drivers/STM32F4xx_HAL_Driver/Src/stm32f4xx_hal_sdram.c ****   HAL_SDRAM_StateTypeDef state = hsdram->State;
 1137              		.loc 1 705 3 is_stmt 1 view .LVU343
 706:Drivers/STM32F4xx_HAL_Driver/Src/stm32f4xx_hal_sdram.c **** 
 1138              		.loc 1 706 3 view .LVU344
 706:Drivers/STM32F4xx_HAL_Driver/Src/stm32f4xx_hal_sdram.c **** 
 1139              		.loc 1 706 26 is_stmt 0 view .LVU345
 1140 0004 90F82CC0 		ldrb	ip, [r0, #44]	@ zero_extendqisi2
 1141 0008 5FFA8CF0 		uxtb	r0, ip
 1142              	.LVL110:
 709:Drivers/STM32F4xx_HAL_Driver/Src/stm32f4xx_hal_sdram.c ****   {
 1143              		.loc 1 709 3 is_stmt 1 view .LVU346
 709:Drivers/STM32F4xx_HAL_Driver/Src/stm32f4xx_hal_sdram.c ****   {
 1144              		.loc 1 709 6 is_stmt 0 view .LVU347
 1145 000c 0228     		cmp	r0, #2
 1146 000e 1ED0     		beq	.L78
 713:Drivers/STM32F4xx_HAL_Driver/Src/stm32f4xx_hal_sdram.c ****   {
 1147              		.loc 1 713 8 is_stmt 1 view .LVU348
 713:Drivers/STM32F4xx_HAL_Driver/Src/stm32f4xx_hal_sdram.c ****   {
 1148              		.loc 1 713 11 is_stmt 0 view .LVU349
 1149 0010 0128     		cmp	r0, #1
 1150 0012 03D0     		beq	.L79
 713:Drivers/STM32F4xx_HAL_Driver/Src/stm32f4xx_hal_sdram.c ****   {
 1151              		.loc 1 713 45 discriminator 1 view .LVU350
 1152 0014 0428     		cmp	r0, #4
 1153 0016 01D0     		beq	.L79
 740:Drivers/STM32F4xx_HAL_Driver/Src/stm32f4xx_hal_sdram.c ****   }
 1154              		.loc 1 740 12 view .LVU351
ARM GAS  /tmp/cc7nahFA.s 			page 49


 1155 0018 0120     		movs	r0, #1
 1156              	.LVL111:
 740:Drivers/STM32F4xx_HAL_Driver/Src/stm32f4xx_hal_sdram.c ****   }
 1157              		.loc 1 740 12 view .LVU352
 1158 001a 18E0     		b	.L78
 1159              	.LVL112:
 1160              	.L79:
 716:Drivers/STM32F4xx_HAL_Driver/Src/stm32f4xx_hal_sdram.c **** 
 1161              		.loc 1 716 5 is_stmt 1 view .LVU353
 716:Drivers/STM32F4xx_HAL_Driver/Src/stm32f4xx_hal_sdram.c **** 
 1162              		.loc 1 716 5 view .LVU354
 1163 001c 94F82DC0 		ldrb	ip, [r4, #45]	@ zero_extendqisi2
 1164 0020 BCF1010F 		cmp	ip, #1
 1165 0024 18D0     		beq	.L83
 716:Drivers/STM32F4xx_HAL_Driver/Src/stm32f4xx_hal_sdram.c **** 
 1166              		.loc 1 716 5 discriminator 2 view .LVU355
 1167 0026 0125     		movs	r5, #1
 1168 0028 84F82D50 		strb	r5, [r4, #45]
 716:Drivers/STM32F4xx_HAL_Driver/Src/stm32f4xx_hal_sdram.c **** 
 1169              		.loc 1 716 5 discriminator 2 view .LVU356
 719:Drivers/STM32F4xx_HAL_Driver/Src/stm32f4xx_hal_sdram.c **** 
 1170              		.loc 1 719 5 discriminator 2 view .LVU357
 719:Drivers/STM32F4xx_HAL_Driver/Src/stm32f4xx_hal_sdram.c **** 
 1171              		.loc 1 719 19 is_stmt 0 discriminator 2 view .LVU358
 1172 002c 0225     		movs	r5, #2
 1173 002e 84F82C50 		strb	r5, [r4, #44]
 722:Drivers/STM32F4xx_HAL_Driver/Src/stm32f4xx_hal_sdram.c ****     {
 1174              		.loc 1 722 5 is_stmt 1 discriminator 2 view .LVU359
 722:Drivers/STM32F4xx_HAL_Driver/Src/stm32f4xx_hal_sdram.c ****     {
 1175              		.loc 1 722 8 is_stmt 0 discriminator 2 view .LVU360
 1176 0032 0128     		cmp	r0, #1
 1177 0034 0CD0     		beq	.L85
 728:Drivers/STM32F4xx_HAL_Driver/Src/stm32f4xx_hal_sdram.c ****     }
 1178              		.loc 1 728 7 is_stmt 1 view .LVU361
 728:Drivers/STM32F4xx_HAL_Driver/Src/stm32f4xx_hal_sdram.c ****     }
 1179              		.loc 1 728 13 is_stmt 0 view .LVU362
 1180 0036 206B     		ldr	r0, [r4, #48]
 1181              	.LVL113:
 728:Drivers/STM32F4xx_HAL_Driver/Src/stm32f4xx_hal_sdram.c ****     }
 1182              		.loc 1 728 38 view .LVU363
 1183 0038 084D     		ldr	r5, .L86
 1184 003a C563     		str	r5, [r0, #60]
 1185              	.L81:
 730:Drivers/STM32F4xx_HAL_Driver/Src/stm32f4xx_hal_sdram.c **** 
 1186              		.loc 1 730 5 is_stmt 1 view .LVU364
 730:Drivers/STM32F4xx_HAL_Driver/Src/stm32f4xx_hal_sdram.c **** 
 1187              		.loc 1 730 11 is_stmt 0 view .LVU365
 1188 003c 206B     		ldr	r0, [r4, #48]
 730:Drivers/STM32F4xx_HAL_Driver/Src/stm32f4xx_hal_sdram.c **** 
 1189              		.loc 1 730 37 view .LVU366
 1190 003e 084D     		ldr	r5, .L86+4
 1191 0040 C564     		str	r5, [r0, #76]
 733:Drivers/STM32F4xx_HAL_Driver/Src/stm32f4xx_hal_sdram.c **** 
 1192              		.loc 1 733 5 is_stmt 1 view .LVU367
 733:Drivers/STM32F4xx_HAL_Driver/Src/stm32f4xx_hal_sdram.c **** 
 1193              		.loc 1 733 14 is_stmt 0 view .LVU368
 1194 0042 206B     		ldr	r0, [r4, #48]
ARM GAS  /tmp/cc7nahFA.s 			page 50


 1195 0044 FFF7FEFF 		bl	HAL_DMA_Start_IT
 1196              	.LVL114:
 736:Drivers/STM32F4xx_HAL_Driver/Src/stm32f4xx_hal_sdram.c ****   }
 1197              		.loc 1 736 5 is_stmt 1 view .LVU369
 736:Drivers/STM32F4xx_HAL_Driver/Src/stm32f4xx_hal_sdram.c ****   }
 1198              		.loc 1 736 5 view .LVU370
 1199 0048 0023     		movs	r3, #0
 1200 004a 84F82D30 		strb	r3, [r4, #45]
 736:Drivers/STM32F4xx_HAL_Driver/Src/stm32f4xx_hal_sdram.c ****   }
 1201              		.loc 1 736 5 view .LVU371
 1202              	.LVL115:
 1203              	.L78:
 744:Drivers/STM32F4xx_HAL_Driver/Src/stm32f4xx_hal_sdram.c **** 
 1204              		.loc 1 744 1 is_stmt 0 view .LVU372
 1205 004e 38BD     		pop	{r3, r4, r5, pc}
 1206              	.LVL116:
 1207              	.L85:
 724:Drivers/STM32F4xx_HAL_Driver/Src/stm32f4xx_hal_sdram.c ****     }
 1208              		.loc 1 724 7 is_stmt 1 view .LVU373
 724:Drivers/STM32F4xx_HAL_Driver/Src/stm32f4xx_hal_sdram.c ****     }
 1209              		.loc 1 724 13 is_stmt 0 view .LVU374
 1210 0050 206B     		ldr	r0, [r4, #48]
 1211              	.LVL117:
 724:Drivers/STM32F4xx_HAL_Driver/Src/stm32f4xx_hal_sdram.c ****     }
 1212              		.loc 1 724 38 view .LVU375
 1213 0052 044D     		ldr	r5, .L86+8
 1214 0054 C563     		str	r5, [r0, #60]
 1215 0056 F1E7     		b	.L81
 1216              	.LVL118:
 1217              	.L83:
 716:Drivers/STM32F4xx_HAL_Driver/Src/stm32f4xx_hal_sdram.c **** 
 1218              		.loc 1 716 5 view .LVU376
 1219 0058 0220     		movs	r0, #2
 1220              	.LVL119:
 716:Drivers/STM32F4xx_HAL_Driver/Src/stm32f4xx_hal_sdram.c **** 
 1221              		.loc 1 716 5 view .LVU377
 1222 005a F8E7     		b	.L78
 1223              	.L87:
 1224              		.align	2
 1225              	.L86:
 1226 005c 00000000 		.word	SDRAM_DMACpltProt
 1227 0060 00000000 		.word	SDRAM_DMAError
 1228 0064 00000000 		.word	SDRAM_DMACplt
 1229              		.cfi_endproc
 1230              	.LFE148:
 1232              		.section	.text.HAL_SDRAM_Write_DMA,"ax",%progbits
 1233              		.align	1
 1234              		.global	HAL_SDRAM_Write_DMA
 1235              		.syntax unified
 1236              		.thumb
 1237              		.thumb_func
 1239              	HAL_SDRAM_Write_DMA:
 1240              	.LVL120:
 1241              	.LFB149:
 757:Drivers/STM32F4xx_HAL_Driver/Src/stm32f4xx_hal_sdram.c ****   HAL_StatusTypeDef status;
 1242              		.loc 1 757 1 is_stmt 1 view -0
 1243              		.cfi_startproc
ARM GAS  /tmp/cc7nahFA.s 			page 51


 1244              		@ args = 0, pretend = 0, frame = 0
 1245              		@ frame_needed = 0, uses_anonymous_args = 0
 757:Drivers/STM32F4xx_HAL_Driver/Src/stm32f4xx_hal_sdram.c ****   HAL_StatusTypeDef status;
 1246              		.loc 1 757 1 is_stmt 0 view .LVU379
 1247 0000 10B5     		push	{r4, lr}
 1248              	.LCFI14:
 1249              		.cfi_def_cfa_offset 8
 1250              		.cfi_offset 4, -8
 1251              		.cfi_offset 14, -4
 1252 0002 0446     		mov	r4, r0
 758:Drivers/STM32F4xx_HAL_Driver/Src/stm32f4xx_hal_sdram.c **** 
 1253              		.loc 1 758 3 is_stmt 1 view .LVU380
 761:Drivers/STM32F4xx_HAL_Driver/Src/stm32f4xx_hal_sdram.c ****   {
 1254              		.loc 1 761 3 view .LVU381
 761:Drivers/STM32F4xx_HAL_Driver/Src/stm32f4xx_hal_sdram.c ****   {
 1255              		.loc 1 761 13 is_stmt 0 view .LVU382
 1256 0004 90F82C00 		ldrb	r0, [r0, #44]	@ zero_extendqisi2
 1257              	.LVL121:
 761:Drivers/STM32F4xx_HAL_Driver/Src/stm32f4xx_hal_sdram.c ****   {
 1258              		.loc 1 761 13 view .LVU383
 1259 0008 C0B2     		uxtb	r0, r0
 761:Drivers/STM32F4xx_HAL_Driver/Src/stm32f4xx_hal_sdram.c ****   {
 1260              		.loc 1 761 6 view .LVU384
 1261 000a 0228     		cmp	r0, #2
 1262 000c 07D0     		beq	.L89
 1263 000e 8C46     		mov	ip, r1
 1264 0010 1146     		mov	r1, r2
 1265              	.LVL122:
 765:Drivers/STM32F4xx_HAL_Driver/Src/stm32f4xx_hal_sdram.c ****   {
 1266              		.loc 1 765 8 is_stmt 1 view .LVU385
 765:Drivers/STM32F4xx_HAL_Driver/Src/stm32f4xx_hal_sdram.c ****   {
 1267              		.loc 1 765 18 is_stmt 0 view .LVU386
 1268 0012 94F82C00 		ldrb	r0, [r4, #44]	@ zero_extendqisi2
 1269 0016 C0B2     		uxtb	r0, r0
 765:Drivers/STM32F4xx_HAL_Driver/Src/stm32f4xx_hal_sdram.c ****   {
 1270              		.loc 1 765 11 view .LVU387
 1271 0018 0128     		cmp	r0, #1
 1272 001a 01D0     		beq	.L93
 785:Drivers/STM32F4xx_HAL_Driver/Src/stm32f4xx_hal_sdram.c ****   }
 1273              		.loc 1 785 12 view .LVU388
 1274 001c 0120     		movs	r0, #1
 1275              	.LVL123:
 1276              	.L89:
 789:Drivers/STM32F4xx_HAL_Driver/Src/stm32f4xx_hal_sdram.c **** 
 1277              		.loc 1 789 1 view .LVU389
 1278 001e 10BD     		pop	{r4, pc}
 1279              	.LVL124:
 1280              	.L93:
 768:Drivers/STM32F4xx_HAL_Driver/Src/stm32f4xx_hal_sdram.c **** 
 1281              		.loc 1 768 5 is_stmt 1 view .LVU390
 768:Drivers/STM32F4xx_HAL_Driver/Src/stm32f4xx_hal_sdram.c **** 
 1282              		.loc 1 768 5 view .LVU391
 1283 0020 94F82D20 		ldrb	r2, [r4, #45]	@ zero_extendqisi2
 1284 0024 012A     		cmp	r2, #1
 1285 0026 13D0     		beq	.L91
 768:Drivers/STM32F4xx_HAL_Driver/Src/stm32f4xx_hal_sdram.c **** 
 1286              		.loc 1 768 5 discriminator 2 view .LVU392
ARM GAS  /tmp/cc7nahFA.s 			page 52


 1287 0028 0122     		movs	r2, #1
 1288 002a 84F82D20 		strb	r2, [r4, #45]
 768:Drivers/STM32F4xx_HAL_Driver/Src/stm32f4xx_hal_sdram.c **** 
 1289              		.loc 1 768 5 discriminator 2 view .LVU393
 771:Drivers/STM32F4xx_HAL_Driver/Src/stm32f4xx_hal_sdram.c **** 
 1290              		.loc 1 771 5 discriminator 2 view .LVU394
 771:Drivers/STM32F4xx_HAL_Driver/Src/stm32f4xx_hal_sdram.c **** 
 1291              		.loc 1 771 19 is_stmt 0 discriminator 2 view .LVU395
 1292 002e 0222     		movs	r2, #2
 1293 0030 84F82C20 		strb	r2, [r4, #44]
 774:Drivers/STM32F4xx_HAL_Driver/Src/stm32f4xx_hal_sdram.c ****     hsdram->hdma->XferErrorCallback = SDRAM_DMAError;
 1294              		.loc 1 774 5 is_stmt 1 discriminator 2 view .LVU396
 774:Drivers/STM32F4xx_HAL_Driver/Src/stm32f4xx_hal_sdram.c ****     hsdram->hdma->XferErrorCallback = SDRAM_DMAError;
 1295              		.loc 1 774 11 is_stmt 0 discriminator 2 view .LVU397
 1296 0034 226B     		ldr	r2, [r4, #48]
 774:Drivers/STM32F4xx_HAL_Driver/Src/stm32f4xx_hal_sdram.c ****     hsdram->hdma->XferErrorCallback = SDRAM_DMAError;
 1297              		.loc 1 774 36 discriminator 2 view .LVU398
 1298 0036 0748     		ldr	r0, .L94
 1299 0038 D063     		str	r0, [r2, #60]
 775:Drivers/STM32F4xx_HAL_Driver/Src/stm32f4xx_hal_sdram.c **** 
 1300              		.loc 1 775 5 is_stmt 1 discriminator 2 view .LVU399
 775:Drivers/STM32F4xx_HAL_Driver/Src/stm32f4xx_hal_sdram.c **** 
 1301              		.loc 1 775 11 is_stmt 0 discriminator 2 view .LVU400
 1302 003a 226B     		ldr	r2, [r4, #48]
 775:Drivers/STM32F4xx_HAL_Driver/Src/stm32f4xx_hal_sdram.c **** 
 1303              		.loc 1 775 37 discriminator 2 view .LVU401
 1304 003c 0648     		ldr	r0, .L94+4
 1305 003e D064     		str	r0, [r2, #76]
 778:Drivers/STM32F4xx_HAL_Driver/Src/stm32f4xx_hal_sdram.c **** 
 1306              		.loc 1 778 5 is_stmt 1 discriminator 2 view .LVU402
 778:Drivers/STM32F4xx_HAL_Driver/Src/stm32f4xx_hal_sdram.c **** 
 1307              		.loc 1 778 14 is_stmt 0 discriminator 2 view .LVU403
 1308 0040 6246     		mov	r2, ip
 1309 0042 206B     		ldr	r0, [r4, #48]
 1310 0044 FFF7FEFF 		bl	HAL_DMA_Start_IT
 1311              	.LVL125:
 781:Drivers/STM32F4xx_HAL_Driver/Src/stm32f4xx_hal_sdram.c ****   }
 1312              		.loc 1 781 5 is_stmt 1 discriminator 2 view .LVU404
 781:Drivers/STM32F4xx_HAL_Driver/Src/stm32f4xx_hal_sdram.c ****   }
 1313              		.loc 1 781 5 discriminator 2 view .LVU405
 1314 0048 0023     		movs	r3, #0
 1315 004a 84F82D30 		strb	r3, [r4, #45]
 781:Drivers/STM32F4xx_HAL_Driver/Src/stm32f4xx_hal_sdram.c ****   }
 1316              		.loc 1 781 5 discriminator 2 view .LVU406
 1317 004e E6E7     		b	.L89
 1318              	.LVL126:
 1319              	.L91:
 768:Drivers/STM32F4xx_HAL_Driver/Src/stm32f4xx_hal_sdram.c **** 
 1320              		.loc 1 768 5 is_stmt 0 view .LVU407
 1321 0050 0220     		movs	r0, #2
 1322 0052 E4E7     		b	.L89
 1323              	.L95:
 1324              		.align	2
 1325              	.L94:
 1326 0054 00000000 		.word	SDRAM_DMACplt
 1327 0058 00000000 		.word	SDRAM_DMAError
 1328              		.cfi_endproc
ARM GAS  /tmp/cc7nahFA.s 			page 53


 1329              	.LFE149:
 1331              		.section	.text.HAL_SDRAM_WriteProtection_Enable,"ax",%progbits
 1332              		.align	1
 1333              		.global	HAL_SDRAM_WriteProtection_Enable
 1334              		.syntax unified
 1335              		.thumb
 1336              		.thumb_func
 1338              	HAL_SDRAM_WriteProtection_Enable:
 1339              	.LVL127:
 1340              	.LFB150:
1009:Drivers/STM32F4xx_HAL_Driver/Src/stm32f4xx_hal_sdram.c ****   /* Check the SDRAM controller state */
 1341              		.loc 1 1009 1 is_stmt 1 view -0
 1342              		.cfi_startproc
 1343              		@ args = 0, pretend = 0, frame = 0
 1344              		@ frame_needed = 0, uses_anonymous_args = 0
1009:Drivers/STM32F4xx_HAL_Driver/Src/stm32f4xx_hal_sdram.c ****   /* Check the SDRAM controller state */
 1345              		.loc 1 1009 1 is_stmt 0 view .LVU409
 1346 0000 10B5     		push	{r4, lr}
 1347              	.LCFI15:
 1348              		.cfi_def_cfa_offset 8
 1349              		.cfi_offset 4, -8
 1350              		.cfi_offset 14, -4
 1351 0002 0446     		mov	r4, r0
1011:Drivers/STM32F4xx_HAL_Driver/Src/stm32f4xx_hal_sdram.c ****   {
 1352              		.loc 1 1011 3 is_stmt 1 view .LVU410
1011:Drivers/STM32F4xx_HAL_Driver/Src/stm32f4xx_hal_sdram.c ****   {
 1353              		.loc 1 1011 13 is_stmt 0 view .LVU411
 1354 0004 90F82C00 		ldrb	r0, [r0, #44]	@ zero_extendqisi2
 1355              	.LVL128:
1011:Drivers/STM32F4xx_HAL_Driver/Src/stm32f4xx_hal_sdram.c ****   {
 1356              		.loc 1 1011 13 view .LVU412
 1357 0008 C0B2     		uxtb	r0, r0
1011:Drivers/STM32F4xx_HAL_Driver/Src/stm32f4xx_hal_sdram.c ****   {
 1358              		.loc 1 1011 6 view .LVU413
 1359 000a 0228     		cmp	r0, #2
 1360 000c 05D0     		beq	.L97
1015:Drivers/STM32F4xx_HAL_Driver/Src/stm32f4xx_hal_sdram.c ****   {
 1361              		.loc 1 1015 8 is_stmt 1 view .LVU414
1015:Drivers/STM32F4xx_HAL_Driver/Src/stm32f4xx_hal_sdram.c ****   {
 1362              		.loc 1 1015 18 is_stmt 0 view .LVU415
 1363 000e 94F82C30 		ldrb	r3, [r4, #44]	@ zero_extendqisi2
 1364 0012 DBB2     		uxtb	r3, r3
1015:Drivers/STM32F4xx_HAL_Driver/Src/stm32f4xx_hal_sdram.c ****   {
 1365              		.loc 1 1015 11 view .LVU416
 1366 0014 012B     		cmp	r3, #1
 1367 0016 01D0     		beq	.L100
1028:Drivers/STM32F4xx_HAL_Driver/Src/stm32f4xx_hal_sdram.c ****   }
 1368              		.loc 1 1028 12 view .LVU417
 1369 0018 0120     		movs	r0, #1
 1370              	.L97:
1032:Drivers/STM32F4xx_HAL_Driver/Src/stm32f4xx_hal_sdram.c **** 
 1371              		.loc 1 1032 1 view .LVU418
 1372 001a 10BD     		pop	{r4, pc}
 1373              	.LVL129:
 1374              	.L100:
1018:Drivers/STM32F4xx_HAL_Driver/Src/stm32f4xx_hal_sdram.c **** 
 1375              		.loc 1 1018 5 is_stmt 1 view .LVU419
ARM GAS  /tmp/cc7nahFA.s 			page 54


1018:Drivers/STM32F4xx_HAL_Driver/Src/stm32f4xx_hal_sdram.c **** 
 1376              		.loc 1 1018 19 is_stmt 0 view .LVU420
 1377 001c 0223     		movs	r3, #2
 1378 001e 84F82C30 		strb	r3, [r4, #44]
1021:Drivers/STM32F4xx_HAL_Driver/Src/stm32f4xx_hal_sdram.c **** 
 1379              		.loc 1 1021 5 is_stmt 1 view .LVU421
1021:Drivers/STM32F4xx_HAL_Driver/Src/stm32f4xx_hal_sdram.c **** 
 1380              		.loc 1 1021 11 is_stmt 0 view .LVU422
 1381 0022 6168     		ldr	r1, [r4, #4]
 1382 0024 2068     		ldr	r0, [r4]
 1383 0026 FFF7FEFF 		bl	FMC_SDRAM_WriteProtection_Enable
 1384              	.LVL130:
1024:Drivers/STM32F4xx_HAL_Driver/Src/stm32f4xx_hal_sdram.c ****   }
 1385              		.loc 1 1024 5 is_stmt 1 view .LVU423
1024:Drivers/STM32F4xx_HAL_Driver/Src/stm32f4xx_hal_sdram.c ****   }
 1386              		.loc 1 1024 19 is_stmt 0 view .LVU424
 1387 002a 0423     		movs	r3, #4
 1388 002c 84F82C30 		strb	r3, [r4, #44]
1031:Drivers/STM32F4xx_HAL_Driver/Src/stm32f4xx_hal_sdram.c **** }
 1389              		.loc 1 1031 3 is_stmt 1 view .LVU425
1031:Drivers/STM32F4xx_HAL_Driver/Src/stm32f4xx_hal_sdram.c **** }
 1390              		.loc 1 1031 10 is_stmt 0 view .LVU426
 1391 0030 0020     		movs	r0, #0
 1392 0032 F2E7     		b	.L97
 1393              		.cfi_endproc
 1394              	.LFE150:
 1396              		.section	.text.HAL_SDRAM_WriteProtection_Disable,"ax",%progbits
 1397              		.align	1
 1398              		.global	HAL_SDRAM_WriteProtection_Disable
 1399              		.syntax unified
 1400              		.thumb
 1401              		.thumb_func
 1403              	HAL_SDRAM_WriteProtection_Disable:
 1404              	.LVL131:
 1405              	.LFB151:
1041:Drivers/STM32F4xx_HAL_Driver/Src/stm32f4xx_hal_sdram.c ****   HAL_SDRAM_StateTypeDef state = hsdram->State;
 1406              		.loc 1 1041 1 is_stmt 1 view -0
 1407              		.cfi_startproc
 1408              		@ args = 0, pretend = 0, frame = 0
 1409              		@ frame_needed = 0, uses_anonymous_args = 0
1041:Drivers/STM32F4xx_HAL_Driver/Src/stm32f4xx_hal_sdram.c ****   HAL_SDRAM_StateTypeDef state = hsdram->State;
 1410              		.loc 1 1041 1 is_stmt 0 view .LVU428
 1411 0000 10B5     		push	{r4, lr}
 1412              	.LCFI16:
 1413              		.cfi_def_cfa_offset 8
 1414              		.cfi_offset 4, -8
 1415              		.cfi_offset 14, -4
 1416 0002 0446     		mov	r4, r0
1042:Drivers/STM32F4xx_HAL_Driver/Src/stm32f4xx_hal_sdram.c **** 
 1417              		.loc 1 1042 3 is_stmt 1 view .LVU429
1042:Drivers/STM32F4xx_HAL_Driver/Src/stm32f4xx_hal_sdram.c **** 
 1418              		.loc 1 1042 26 is_stmt 0 view .LVU430
 1419 0004 90F82C30 		ldrb	r3, [r0, #44]	@ zero_extendqisi2
 1420 0008 D8B2     		uxtb	r0, r3
 1421              	.LVL132:
1045:Drivers/STM32F4xx_HAL_Driver/Src/stm32f4xx_hal_sdram.c ****   {
 1422              		.loc 1 1045 3 is_stmt 1 view .LVU431
ARM GAS  /tmp/cc7nahFA.s 			page 55


1045:Drivers/STM32F4xx_HAL_Driver/Src/stm32f4xx_hal_sdram.c ****   {
 1423              		.loc 1 1045 6 is_stmt 0 view .LVU432
 1424 000a 0228     		cmp	r0, #2
 1425 000c 02D0     		beq	.L102
1049:Drivers/STM32F4xx_HAL_Driver/Src/stm32f4xx_hal_sdram.c ****   {
 1426              		.loc 1 1049 8 is_stmt 1 view .LVU433
1049:Drivers/STM32F4xx_HAL_Driver/Src/stm32f4xx_hal_sdram.c ****   {
 1427              		.loc 1 1049 11 is_stmt 0 view .LVU434
 1428 000e 0428     		cmp	r0, #4
 1429 0010 01D0     		beq	.L105
1062:Drivers/STM32F4xx_HAL_Driver/Src/stm32f4xx_hal_sdram.c ****   }
 1430              		.loc 1 1062 12 view .LVU435
 1431 0012 0120     		movs	r0, #1
 1432              	.LVL133:
 1433              	.L102:
1066:Drivers/STM32F4xx_HAL_Driver/Src/stm32f4xx_hal_sdram.c **** 
 1434              		.loc 1 1066 1 view .LVU436
 1435 0014 10BD     		pop	{r4, pc}
 1436              	.LVL134:
 1437              	.L105:
1052:Drivers/STM32F4xx_HAL_Driver/Src/stm32f4xx_hal_sdram.c **** 
 1438              		.loc 1 1052 5 is_stmt 1 view .LVU437
1052:Drivers/STM32F4xx_HAL_Driver/Src/stm32f4xx_hal_sdram.c **** 
 1439              		.loc 1 1052 19 is_stmt 0 view .LVU438
 1440 0016 0223     		movs	r3, #2
 1441 0018 84F82C30 		strb	r3, [r4, #44]
1055:Drivers/STM32F4xx_HAL_Driver/Src/stm32f4xx_hal_sdram.c **** 
 1442              		.loc 1 1055 5 is_stmt 1 view .LVU439
1055:Drivers/STM32F4xx_HAL_Driver/Src/stm32f4xx_hal_sdram.c **** 
 1443              		.loc 1 1055 11 is_stmt 0 view .LVU440
 1444 001c 6168     		ldr	r1, [r4, #4]
 1445 001e 2068     		ldr	r0, [r4]
 1446              	.LVL135:
1055:Drivers/STM32F4xx_HAL_Driver/Src/stm32f4xx_hal_sdram.c **** 
 1447              		.loc 1 1055 11 view .LVU441
 1448 0020 FFF7FEFF 		bl	FMC_SDRAM_WriteProtection_Disable
 1449              	.LVL136:
1058:Drivers/STM32F4xx_HAL_Driver/Src/stm32f4xx_hal_sdram.c ****   }
 1450              		.loc 1 1058 5 is_stmt 1 view .LVU442
1058:Drivers/STM32F4xx_HAL_Driver/Src/stm32f4xx_hal_sdram.c ****   }
 1451              		.loc 1 1058 19 is_stmt 0 view .LVU443
 1452 0024 0123     		movs	r3, #1
 1453 0026 84F82C30 		strb	r3, [r4, #44]
1065:Drivers/STM32F4xx_HAL_Driver/Src/stm32f4xx_hal_sdram.c **** }
 1454              		.loc 1 1065 3 is_stmt 1 view .LVU444
1065:Drivers/STM32F4xx_HAL_Driver/Src/stm32f4xx_hal_sdram.c **** }
 1455              		.loc 1 1065 10 is_stmt 0 view .LVU445
 1456 002a 0020     		movs	r0, #0
 1457 002c F2E7     		b	.L102
 1458              		.cfi_endproc
 1459              	.LFE151:
 1461              		.section	.text.HAL_SDRAM_SendCommand,"ax",%progbits
 1462              		.align	1
 1463              		.global	HAL_SDRAM_SendCommand
 1464              		.syntax unified
 1465              		.thumb
 1466              		.thumb_func
ARM GAS  /tmp/cc7nahFA.s 			page 56


 1468              	HAL_SDRAM_SendCommand:
 1469              	.LVL137:
 1470              	.LFB152:
1078:Drivers/STM32F4xx_HAL_Driver/Src/stm32f4xx_hal_sdram.c ****   HAL_SDRAM_StateTypeDef state = hsdram->State;
 1471              		.loc 1 1078 1 is_stmt 1 view -0
 1472              		.cfi_startproc
 1473              		@ args = 0, pretend = 0, frame = 0
 1474              		@ frame_needed = 0, uses_anonymous_args = 0
1078:Drivers/STM32F4xx_HAL_Driver/Src/stm32f4xx_hal_sdram.c ****   HAL_SDRAM_StateTypeDef state = hsdram->State;
 1475              		.loc 1 1078 1 is_stmt 0 view .LVU447
 1476 0000 38B5     		push	{r3, r4, r5, lr}
 1477              	.LCFI17:
 1478              		.cfi_def_cfa_offset 16
 1479              		.cfi_offset 3, -16
 1480              		.cfi_offset 4, -12
 1481              		.cfi_offset 5, -8
 1482              		.cfi_offset 14, -4
 1483 0002 0446     		mov	r4, r0
1079:Drivers/STM32F4xx_HAL_Driver/Src/stm32f4xx_hal_sdram.c **** 
 1484              		.loc 1 1079 3 is_stmt 1 view .LVU448
1079:Drivers/STM32F4xx_HAL_Driver/Src/stm32f4xx_hal_sdram.c **** 
 1485              		.loc 1 1079 26 is_stmt 0 view .LVU449
 1486 0004 90F82C30 		ldrb	r3, [r0, #44]	@ zero_extendqisi2
 1487 0008 D8B2     		uxtb	r0, r3
 1488              	.LVL138:
1082:Drivers/STM32F4xx_HAL_Driver/Src/stm32f4xx_hal_sdram.c ****   {
 1489              		.loc 1 1082 3 is_stmt 1 view .LVU450
1082:Drivers/STM32F4xx_HAL_Driver/Src/stm32f4xx_hal_sdram.c ****   {
 1490              		.loc 1 1082 6 is_stmt 0 view .LVU451
 1491 000a 0228     		cmp	r0, #2
 1492 000c 19D0     		beq	.L107
 1493 000e 0D46     		mov	r5, r1
1086:Drivers/STM32F4xx_HAL_Driver/Src/stm32f4xx_hal_sdram.c ****   {
 1494              		.loc 1 1086 8 is_stmt 1 view .LVU452
1086:Drivers/STM32F4xx_HAL_Driver/Src/stm32f4xx_hal_sdram.c ****   {
 1495              		.loc 1 1086 11 is_stmt 0 view .LVU453
 1496 0010 0128     		cmp	r0, #1
 1497 0012 01D0     		beq	.L108
1086:Drivers/STM32F4xx_HAL_Driver/Src/stm32f4xx_hal_sdram.c ****   {
 1498              		.loc 1 1086 45 discriminator 1 view .LVU454
 1499 0014 0528     		cmp	r0, #5
 1500 0016 13D1     		bne	.L110
 1501              	.L108:
1089:Drivers/STM32F4xx_HAL_Driver/Src/stm32f4xx_hal_sdram.c **** 
 1502              		.loc 1 1089 5 is_stmt 1 view .LVU455
1089:Drivers/STM32F4xx_HAL_Driver/Src/stm32f4xx_hal_sdram.c **** 
 1503              		.loc 1 1089 19 is_stmt 0 view .LVU456
 1504 0018 0223     		movs	r3, #2
 1505 001a 84F82C30 		strb	r3, [r4, #44]
1092:Drivers/STM32F4xx_HAL_Driver/Src/stm32f4xx_hal_sdram.c **** 
 1506              		.loc 1 1092 5 is_stmt 1 view .LVU457
1092:Drivers/STM32F4xx_HAL_Driver/Src/stm32f4xx_hal_sdram.c **** 
 1507              		.loc 1 1092 11 is_stmt 0 view .LVU458
 1508 001e 2946     		mov	r1, r5
 1509              	.LVL139:
1092:Drivers/STM32F4xx_HAL_Driver/Src/stm32f4xx_hal_sdram.c **** 
 1510              		.loc 1 1092 11 view .LVU459
ARM GAS  /tmp/cc7nahFA.s 			page 57


 1511 0020 2068     		ldr	r0, [r4]
 1512              	.LVL140:
1092:Drivers/STM32F4xx_HAL_Driver/Src/stm32f4xx_hal_sdram.c **** 
 1513              		.loc 1 1092 11 view .LVU460
 1514 0022 FFF7FEFF 		bl	FMC_SDRAM_SendCommand
 1515              	.LVL141:
1095:Drivers/STM32F4xx_HAL_Driver/Src/stm32f4xx_hal_sdram.c ****     {
 1516              		.loc 1 1095 5 is_stmt 1 view .LVU461
1095:Drivers/STM32F4xx_HAL_Driver/Src/stm32f4xx_hal_sdram.c ****     {
 1517              		.loc 1 1095 16 is_stmt 0 view .LVU462
 1518 0026 2B68     		ldr	r3, [r5]
1095:Drivers/STM32F4xx_HAL_Driver/Src/stm32f4xx_hal_sdram.c ****     {
 1519              		.loc 1 1095 8 view .LVU463
 1520 0028 022B     		cmp	r3, #2
 1521 002a 04D0     		beq	.L112
1101:Drivers/STM32F4xx_HAL_Driver/Src/stm32f4xx_hal_sdram.c ****     }
 1522              		.loc 1 1101 7 is_stmt 1 view .LVU464
1101:Drivers/STM32F4xx_HAL_Driver/Src/stm32f4xx_hal_sdram.c ****     }
 1523              		.loc 1 1101 21 is_stmt 0 view .LVU465
 1524 002c 0123     		movs	r3, #1
 1525 002e 84F82C30 		strb	r3, [r4, #44]
1109:Drivers/STM32F4xx_HAL_Driver/Src/stm32f4xx_hal_sdram.c **** }
 1526              		.loc 1 1109 10 view .LVU466
 1527 0032 0020     		movs	r0, #0
 1528 0034 05E0     		b	.L107
 1529              	.L112:
1097:Drivers/STM32F4xx_HAL_Driver/Src/stm32f4xx_hal_sdram.c ****     }
 1530              		.loc 1 1097 7 is_stmt 1 view .LVU467
1097:Drivers/STM32F4xx_HAL_Driver/Src/stm32f4xx_hal_sdram.c ****     }
 1531              		.loc 1 1097 21 is_stmt 0 view .LVU468
 1532 0036 0523     		movs	r3, #5
 1533 0038 84F82C30 		strb	r3, [r4, #44]
1109:Drivers/STM32F4xx_HAL_Driver/Src/stm32f4xx_hal_sdram.c **** }
 1534              		.loc 1 1109 10 view .LVU469
 1535 003c 0020     		movs	r0, #0
 1536 003e 00E0     		b	.L107
 1537              	.LVL142:
 1538              	.L110:
1106:Drivers/STM32F4xx_HAL_Driver/Src/stm32f4xx_hal_sdram.c ****   }
 1539              		.loc 1 1106 12 view .LVU470
 1540 0040 0120     		movs	r0, #1
 1541              	.LVL143:
 1542              	.L107:
1110:Drivers/STM32F4xx_HAL_Driver/Src/stm32f4xx_hal_sdram.c **** 
 1543              		.loc 1 1110 1 view .LVU471
 1544 0042 38BD     		pop	{r3, r4, r5, pc}
1110:Drivers/STM32F4xx_HAL_Driver/Src/stm32f4xx_hal_sdram.c **** 
 1545              		.loc 1 1110 1 view .LVU472
 1546              		.cfi_endproc
 1547              	.LFE152:
 1549              		.section	.text.HAL_SDRAM_ProgramRefreshRate,"ax",%progbits
 1550              		.align	1
 1551              		.global	HAL_SDRAM_ProgramRefreshRate
 1552              		.syntax unified
 1553              		.thumb
 1554              		.thumb_func
 1556              	HAL_SDRAM_ProgramRefreshRate:
ARM GAS  /tmp/cc7nahFA.s 			page 58


 1557              	.LVL144:
 1558              	.LFB153:
1120:Drivers/STM32F4xx_HAL_Driver/Src/stm32f4xx_hal_sdram.c ****   /* Check the SDRAM controller state */
 1559              		.loc 1 1120 1 is_stmt 1 view -0
 1560              		.cfi_startproc
 1561              		@ args = 0, pretend = 0, frame = 0
 1562              		@ frame_needed = 0, uses_anonymous_args = 0
1120:Drivers/STM32F4xx_HAL_Driver/Src/stm32f4xx_hal_sdram.c ****   /* Check the SDRAM controller state */
 1563              		.loc 1 1120 1 is_stmt 0 view .LVU474
 1564 0000 10B5     		push	{r4, lr}
 1565              	.LCFI18:
 1566              		.cfi_def_cfa_offset 8
 1567              		.cfi_offset 4, -8
 1568              		.cfi_offset 14, -4
 1569 0002 0446     		mov	r4, r0
1122:Drivers/STM32F4xx_HAL_Driver/Src/stm32f4xx_hal_sdram.c ****   {
 1570              		.loc 1 1122 3 is_stmt 1 view .LVU475
1122:Drivers/STM32F4xx_HAL_Driver/Src/stm32f4xx_hal_sdram.c ****   {
 1571              		.loc 1 1122 13 is_stmt 0 view .LVU476
 1572 0004 90F82C30 		ldrb	r3, [r0, #44]	@ zero_extendqisi2
 1573 0008 D8B2     		uxtb	r0, r3
 1574              	.LVL145:
1122:Drivers/STM32F4xx_HAL_Driver/Src/stm32f4xx_hal_sdram.c ****   {
 1575              		.loc 1 1122 6 view .LVU477
 1576 000a 0228     		cmp	r0, #2
 1577 000c 05D0     		beq	.L114
1126:Drivers/STM32F4xx_HAL_Driver/Src/stm32f4xx_hal_sdram.c ****   {
 1578              		.loc 1 1126 8 is_stmt 1 view .LVU478
1126:Drivers/STM32F4xx_HAL_Driver/Src/stm32f4xx_hal_sdram.c ****   {
 1579              		.loc 1 1126 18 is_stmt 0 view .LVU479
 1580 000e 94F82C30 		ldrb	r3, [r4, #44]	@ zero_extendqisi2
 1581 0012 DBB2     		uxtb	r3, r3
1126:Drivers/STM32F4xx_HAL_Driver/Src/stm32f4xx_hal_sdram.c ****   {
 1582              		.loc 1 1126 11 view .LVU480
 1583 0014 012B     		cmp	r3, #1
 1584 0016 01D0     		beq	.L117
1139:Drivers/STM32F4xx_HAL_Driver/Src/stm32f4xx_hal_sdram.c ****   }
 1585              		.loc 1 1139 12 view .LVU481
 1586 0018 0120     		movs	r0, #1
 1587              	.LVL146:
 1588              	.L114:
1143:Drivers/STM32F4xx_HAL_Driver/Src/stm32f4xx_hal_sdram.c **** 
 1589              		.loc 1 1143 1 view .LVU482
 1590 001a 10BD     		pop	{r4, pc}
 1591              	.LVL147:
 1592              	.L117:
1129:Drivers/STM32F4xx_HAL_Driver/Src/stm32f4xx_hal_sdram.c **** 
 1593              		.loc 1 1129 5 is_stmt 1 view .LVU483
1129:Drivers/STM32F4xx_HAL_Driver/Src/stm32f4xx_hal_sdram.c **** 
 1594              		.loc 1 1129 19 is_stmt 0 view .LVU484
 1595 001c 0223     		movs	r3, #2
 1596 001e 84F82C30 		strb	r3, [r4, #44]
1132:Drivers/STM32F4xx_HAL_Driver/Src/stm32f4xx_hal_sdram.c **** 
 1597              		.loc 1 1132 5 is_stmt 1 view .LVU485
1132:Drivers/STM32F4xx_HAL_Driver/Src/stm32f4xx_hal_sdram.c **** 
 1598              		.loc 1 1132 11 is_stmt 0 view .LVU486
 1599 0022 2068     		ldr	r0, [r4]
ARM GAS  /tmp/cc7nahFA.s 			page 59


 1600 0024 FFF7FEFF 		bl	FMC_SDRAM_ProgramRefreshRate
 1601              	.LVL148:
1135:Drivers/STM32F4xx_HAL_Driver/Src/stm32f4xx_hal_sdram.c ****   }
 1602              		.loc 1 1135 5 is_stmt 1 view .LVU487
1135:Drivers/STM32F4xx_HAL_Driver/Src/stm32f4xx_hal_sdram.c ****   }
 1603              		.loc 1 1135 19 is_stmt 0 view .LVU488
 1604 0028 0123     		movs	r3, #1
 1605 002a 84F82C30 		strb	r3, [r4, #44]
1142:Drivers/STM32F4xx_HAL_Driver/Src/stm32f4xx_hal_sdram.c **** }
 1606              		.loc 1 1142 3 is_stmt 1 view .LVU489
1142:Drivers/STM32F4xx_HAL_Driver/Src/stm32f4xx_hal_sdram.c **** }
 1607              		.loc 1 1142 10 is_stmt 0 view .LVU490
 1608 002e 0020     		movs	r0, #0
 1609 0030 F3E7     		b	.L114
 1610              		.cfi_endproc
 1611              	.LFE153:
 1613              		.section	.text.HAL_SDRAM_SetAutoRefreshNumber,"ax",%progbits
 1614              		.align	1
 1615              		.global	HAL_SDRAM_SetAutoRefreshNumber
 1616              		.syntax unified
 1617              		.thumb
 1618              		.thumb_func
 1620              	HAL_SDRAM_SetAutoRefreshNumber:
 1621              	.LVL149:
 1622              	.LFB154:
1153:Drivers/STM32F4xx_HAL_Driver/Src/stm32f4xx_hal_sdram.c ****   /* Check the SDRAM controller state */
 1623              		.loc 1 1153 1 is_stmt 1 view -0
 1624              		.cfi_startproc
 1625              		@ args = 0, pretend = 0, frame = 0
 1626              		@ frame_needed = 0, uses_anonymous_args = 0
1153:Drivers/STM32F4xx_HAL_Driver/Src/stm32f4xx_hal_sdram.c ****   /* Check the SDRAM controller state */
 1627              		.loc 1 1153 1 is_stmt 0 view .LVU492
 1628 0000 10B5     		push	{r4, lr}
 1629              	.LCFI19:
 1630              		.cfi_def_cfa_offset 8
 1631              		.cfi_offset 4, -8
 1632              		.cfi_offset 14, -4
 1633 0002 0446     		mov	r4, r0
1155:Drivers/STM32F4xx_HAL_Driver/Src/stm32f4xx_hal_sdram.c ****   {
 1634              		.loc 1 1155 3 is_stmt 1 view .LVU493
1155:Drivers/STM32F4xx_HAL_Driver/Src/stm32f4xx_hal_sdram.c ****   {
 1635              		.loc 1 1155 13 is_stmt 0 view .LVU494
 1636 0004 90F82C30 		ldrb	r3, [r0, #44]	@ zero_extendqisi2
 1637 0008 D8B2     		uxtb	r0, r3
 1638              	.LVL150:
1155:Drivers/STM32F4xx_HAL_Driver/Src/stm32f4xx_hal_sdram.c ****   {
 1639              		.loc 1 1155 6 view .LVU495
 1640 000a 0228     		cmp	r0, #2
 1641 000c 05D0     		beq	.L119
1159:Drivers/STM32F4xx_HAL_Driver/Src/stm32f4xx_hal_sdram.c ****   {
 1642              		.loc 1 1159 8 is_stmt 1 view .LVU496
1159:Drivers/STM32F4xx_HAL_Driver/Src/stm32f4xx_hal_sdram.c ****   {
 1643              		.loc 1 1159 18 is_stmt 0 view .LVU497
 1644 000e 94F82C30 		ldrb	r3, [r4, #44]	@ zero_extendqisi2
 1645 0012 DBB2     		uxtb	r3, r3
1159:Drivers/STM32F4xx_HAL_Driver/Src/stm32f4xx_hal_sdram.c ****   {
 1646              		.loc 1 1159 11 view .LVU498
ARM GAS  /tmp/cc7nahFA.s 			page 60


 1647 0014 012B     		cmp	r3, #1
 1648 0016 01D0     		beq	.L122
1172:Drivers/STM32F4xx_HAL_Driver/Src/stm32f4xx_hal_sdram.c ****   }
 1649              		.loc 1 1172 12 view .LVU499
 1650 0018 0120     		movs	r0, #1
 1651              	.LVL151:
 1652              	.L119:
1176:Drivers/STM32F4xx_HAL_Driver/Src/stm32f4xx_hal_sdram.c **** 
 1653              		.loc 1 1176 1 view .LVU500
 1654 001a 10BD     		pop	{r4, pc}
 1655              	.LVL152:
 1656              	.L122:
1162:Drivers/STM32F4xx_HAL_Driver/Src/stm32f4xx_hal_sdram.c **** 
 1657              		.loc 1 1162 5 is_stmt 1 view .LVU501
1162:Drivers/STM32F4xx_HAL_Driver/Src/stm32f4xx_hal_sdram.c **** 
 1658              		.loc 1 1162 19 is_stmt 0 view .LVU502
 1659 001c 0223     		movs	r3, #2
 1660 001e 84F82C30 		strb	r3, [r4, #44]
1165:Drivers/STM32F4xx_HAL_Driver/Src/stm32f4xx_hal_sdram.c **** 
 1661              		.loc 1 1165 5 is_stmt 1 view .LVU503
1165:Drivers/STM32F4xx_HAL_Driver/Src/stm32f4xx_hal_sdram.c **** 
 1662              		.loc 1 1165 11 is_stmt 0 view .LVU504
 1663 0022 2068     		ldr	r0, [r4]
 1664 0024 FFF7FEFF 		bl	FMC_SDRAM_SetAutoRefreshNumber
 1665              	.LVL153:
1168:Drivers/STM32F4xx_HAL_Driver/Src/stm32f4xx_hal_sdram.c ****   }
 1666              		.loc 1 1168 5 is_stmt 1 view .LVU505
1168:Drivers/STM32F4xx_HAL_Driver/Src/stm32f4xx_hal_sdram.c ****   }
 1667              		.loc 1 1168 19 is_stmt 0 view .LVU506
 1668 0028 0123     		movs	r3, #1
 1669 002a 84F82C30 		strb	r3, [r4, #44]
1175:Drivers/STM32F4xx_HAL_Driver/Src/stm32f4xx_hal_sdram.c **** }
 1670              		.loc 1 1175 3 is_stmt 1 view .LVU507
1175:Drivers/STM32F4xx_HAL_Driver/Src/stm32f4xx_hal_sdram.c **** }
 1671              		.loc 1 1175 10 is_stmt 0 view .LVU508
 1672 002e 0020     		movs	r0, #0
 1673 0030 F3E7     		b	.L119
 1674              		.cfi_endproc
 1675              	.LFE154:
 1677              		.section	.text.HAL_SDRAM_GetModeStatus,"ax",%progbits
 1678              		.align	1
 1679              		.global	HAL_SDRAM_GetModeStatus
 1680              		.syntax unified
 1681              		.thumb
 1682              		.thumb_func
 1684              	HAL_SDRAM_GetModeStatus:
 1685              	.LVL154:
 1686              	.LFB155:
1185:Drivers/STM32F4xx_HAL_Driver/Src/stm32f4xx_hal_sdram.c ****   /* Return the SDRAM memory current mode */
 1687              		.loc 1 1185 1 is_stmt 1 view -0
 1688              		.cfi_startproc
 1689              		@ args = 0, pretend = 0, frame = 0
 1690              		@ frame_needed = 0, uses_anonymous_args = 0
1185:Drivers/STM32F4xx_HAL_Driver/Src/stm32f4xx_hal_sdram.c ****   /* Return the SDRAM memory current mode */
 1691              		.loc 1 1185 1 is_stmt 0 view .LVU510
 1692 0000 08B5     		push	{r3, lr}
 1693              	.LCFI20:
ARM GAS  /tmp/cc7nahFA.s 			page 61


 1694              		.cfi_def_cfa_offset 8
 1695              		.cfi_offset 3, -8
 1696              		.cfi_offset 14, -4
1187:Drivers/STM32F4xx_HAL_Driver/Src/stm32f4xx_hal_sdram.c **** }
 1697              		.loc 1 1187 3 is_stmt 1 view .LVU511
1187:Drivers/STM32F4xx_HAL_Driver/Src/stm32f4xx_hal_sdram.c **** }
 1698              		.loc 1 1187 11 is_stmt 0 view .LVU512
 1699 0002 4168     		ldr	r1, [r0, #4]
 1700 0004 0068     		ldr	r0, [r0]
 1701              	.LVL155:
1187:Drivers/STM32F4xx_HAL_Driver/Src/stm32f4xx_hal_sdram.c **** }
 1702              		.loc 1 1187 11 view .LVU513
 1703 0006 FFF7FEFF 		bl	FMC_SDRAM_GetModeStatus
 1704              	.LVL156:
1188:Drivers/STM32F4xx_HAL_Driver/Src/stm32f4xx_hal_sdram.c **** 
 1705              		.loc 1 1188 1 view .LVU514
 1706 000a 08BD     		pop	{r3, pc}
 1707              		.cfi_endproc
 1708              	.LFE155:
 1710              		.section	.text.HAL_SDRAM_GetState,"ax",%progbits
 1711              		.align	1
 1712              		.global	HAL_SDRAM_GetState
 1713              		.syntax unified
 1714              		.thumb
 1715              		.thumb_func
 1717              	HAL_SDRAM_GetState:
 1718              	.LVL157:
 1719              	.LFB156:
1216:Drivers/STM32F4xx_HAL_Driver/Src/stm32f4xx_hal_sdram.c ****   return hsdram->State;
 1720              		.loc 1 1216 1 is_stmt 1 view -0
 1721              		.cfi_startproc
 1722              		@ args = 0, pretend = 0, frame = 0
 1723              		@ frame_needed = 0, uses_anonymous_args = 0
 1724              		@ link register save eliminated.
1217:Drivers/STM32F4xx_HAL_Driver/Src/stm32f4xx_hal_sdram.c **** }
 1725              		.loc 1 1217 3 view .LVU516
1217:Drivers/STM32F4xx_HAL_Driver/Src/stm32f4xx_hal_sdram.c **** }
 1726              		.loc 1 1217 16 is_stmt 0 view .LVU517
 1727 0000 90F82C00 		ldrb	r0, [r0, #44]	@ zero_extendqisi2
 1728              	.LVL158:
1218:Drivers/STM32F4xx_HAL_Driver/Src/stm32f4xx_hal_sdram.c **** 
 1729              		.loc 1 1218 1 view .LVU518
 1730 0004 7047     		bx	lr
 1731              		.cfi_endproc
 1732              	.LFE156:
 1734              		.text
 1735              	.Letext0:
 1736              		.file 2 "/usr/lib/gcc/arm-none-eabi/12.2.1/include/stdint.h"
 1737              		.file 3 "Drivers/CMSIS/Device/ST/STM32F4xx/Include/stm32f429xx.h"
 1738              		.file 4 "Drivers/STM32F4xx_HAL_Driver/Inc/stm32f4xx_hal_def.h"
 1739              		.file 5 "Drivers/STM32F4xx_HAL_Driver/Inc/stm32f4xx_hal_dma.h"
 1740              		.file 6 "Drivers/STM32F4xx_HAL_Driver/Inc/stm32f4xx_ll_fmc.h"
 1741              		.file 7 "Drivers/STM32F4xx_HAL_Driver/Inc/stm32f4xx_hal_sdram.h"
ARM GAS  /tmp/cc7nahFA.s 			page 62

