ARM GAS  /tmp/ccxe0t7k.s 			page 1


   1              		.cpu cortex-m7
   2              		.arch armv7e-m
   3              		.fpu fpv5-sp-d16
   4              		.eabi_attribute 27, 1
   5              		.eabi_attribute 28, 1
   6              		.eabi_attribute 20, 1
   7              		.eabi_attribute 21, 1
   8              		.eabi_attribute 23, 3
   9              		.eabi_attribute 24, 1
  10              		.eabi_attribute 25, 1
  11              		.eabi_attribute 26, 1
  12              		.eabi_attribute 30, 1
  13              		.eabi_attribute 34, 1
  14              		.eabi_attribute 18, 4
  15              		.file	"stm32f7xx_hal_rtc_ex.c"
  16              		.text
  17              	.Ltext0:
  18              		.cfi_sections	.debug_frame
  19              		.file 1 "Drivers/STM32F7xx_HAL_Driver/Src/stm32f7xx_hal_rtc_ex.c"
  20              		.section	.text.HAL_RTCEx_SetTimeStamp,"ax",%progbits
  21              		.align	1
  22              		.global	HAL_RTCEx_SetTimeStamp
  23              		.syntax unified
  24              		.thumb
  25              		.thumb_func
  27              	HAL_RTCEx_SetTimeStamp:
  28              	.LVL0:
  29              	.LFB141:
   1:Drivers/STM32F7xx_HAL_Driver/Src/stm32f7xx_hal_rtc_ex.c **** /**
   2:Drivers/STM32F7xx_HAL_Driver/Src/stm32f7xx_hal_rtc_ex.c ****   ******************************************************************************
   3:Drivers/STM32F7xx_HAL_Driver/Src/stm32f7xx_hal_rtc_ex.c ****   * @file    stm32f7xx_hal_rtc_ex.c
   4:Drivers/STM32F7xx_HAL_Driver/Src/stm32f7xx_hal_rtc_ex.c ****   * @author  MCD Application Team
   5:Drivers/STM32F7xx_HAL_Driver/Src/stm32f7xx_hal_rtc_ex.c ****   * @brief   Extended RTC HAL module driver.
   6:Drivers/STM32F7xx_HAL_Driver/Src/stm32f7xx_hal_rtc_ex.c ****   *          This file provides firmware functions to manage the following
   7:Drivers/STM32F7xx_HAL_Driver/Src/stm32f7xx_hal_rtc_ex.c ****   *          functionalities of the Real-Time Clock (RTC) Extended peripheral:
   8:Drivers/STM32F7xx_HAL_Driver/Src/stm32f7xx_hal_rtc_ex.c ****   *           + RTC Timestamp functions
   9:Drivers/STM32F7xx_HAL_Driver/Src/stm32f7xx_hal_rtc_ex.c ****   *           + RTC Tamper functions
  10:Drivers/STM32F7xx_HAL_Driver/Src/stm32f7xx_hal_rtc_ex.c ****   *           + RTC Wakeup functions
  11:Drivers/STM32F7xx_HAL_Driver/Src/stm32f7xx_hal_rtc_ex.c ****   *           + Extended Control functions
  12:Drivers/STM32F7xx_HAL_Driver/Src/stm32f7xx_hal_rtc_ex.c ****   *           + Extended RTC features functions
  13:Drivers/STM32F7xx_HAL_Driver/Src/stm32f7xx_hal_rtc_ex.c ****   *
  14:Drivers/STM32F7xx_HAL_Driver/Src/stm32f7xx_hal_rtc_ex.c ****   ******************************************************************************
  15:Drivers/STM32F7xx_HAL_Driver/Src/stm32f7xx_hal_rtc_ex.c ****   * @attention
  16:Drivers/STM32F7xx_HAL_Driver/Src/stm32f7xx_hal_rtc_ex.c ****   *
  17:Drivers/STM32F7xx_HAL_Driver/Src/stm32f7xx_hal_rtc_ex.c ****   * Copyright (c) 2017 STMicroelectronics.
  18:Drivers/STM32F7xx_HAL_Driver/Src/stm32f7xx_hal_rtc_ex.c ****   * All rights reserved.
  19:Drivers/STM32F7xx_HAL_Driver/Src/stm32f7xx_hal_rtc_ex.c ****   *
  20:Drivers/STM32F7xx_HAL_Driver/Src/stm32f7xx_hal_rtc_ex.c ****   * This software is licensed under terms that can be found in the LICENSE file
  21:Drivers/STM32F7xx_HAL_Driver/Src/stm32f7xx_hal_rtc_ex.c ****   * in the root directory of this software component.
  22:Drivers/STM32F7xx_HAL_Driver/Src/stm32f7xx_hal_rtc_ex.c ****   * If no LICENSE file comes with this software, it is provided AS-IS.
  23:Drivers/STM32F7xx_HAL_Driver/Src/stm32f7xx_hal_rtc_ex.c ****   *
  24:Drivers/STM32F7xx_HAL_Driver/Src/stm32f7xx_hal_rtc_ex.c ****   ******************************************************************************
  25:Drivers/STM32F7xx_HAL_Driver/Src/stm32f7xx_hal_rtc_ex.c ****   @verbatim
  26:Drivers/STM32F7xx_HAL_Driver/Src/stm32f7xx_hal_rtc_ex.c ****   ==============================================================================
  27:Drivers/STM32F7xx_HAL_Driver/Src/stm32f7xx_hal_rtc_ex.c ****                         ##### How to use this driver #####
  28:Drivers/STM32F7xx_HAL_Driver/Src/stm32f7xx_hal_rtc_ex.c ****   ==============================================================================
  29:Drivers/STM32F7xx_HAL_Driver/Src/stm32f7xx_hal_rtc_ex.c ****   [..]
ARM GAS  /tmp/ccxe0t7k.s 			page 2


  30:Drivers/STM32F7xx_HAL_Driver/Src/stm32f7xx_hal_rtc_ex.c ****     (+) Enable the RTC domain access.
  31:Drivers/STM32F7xx_HAL_Driver/Src/stm32f7xx_hal_rtc_ex.c ****     (+) Configure the RTC Prescaler (Asynchronous and Synchronous) and RTC hour
  32:Drivers/STM32F7xx_HAL_Driver/Src/stm32f7xx_hal_rtc_ex.c ****         format using the HAL_RTC_Init() function.
  33:Drivers/STM32F7xx_HAL_Driver/Src/stm32f7xx_hal_rtc_ex.c **** 
  34:Drivers/STM32F7xx_HAL_Driver/Src/stm32f7xx_hal_rtc_ex.c ****   *** RTC Wakeup configuration ***
  35:Drivers/STM32F7xx_HAL_Driver/Src/stm32f7xx_hal_rtc_ex.c ****   ================================
  36:Drivers/STM32F7xx_HAL_Driver/Src/stm32f7xx_hal_rtc_ex.c ****   [..]
  37:Drivers/STM32F7xx_HAL_Driver/Src/stm32f7xx_hal_rtc_ex.c ****     (+) To configure the RTC Wakeup Clock source and Counter use the
  38:Drivers/STM32F7xx_HAL_Driver/Src/stm32f7xx_hal_rtc_ex.c ****         HAL_RTCEx_SetWakeUpTimer() function.
  39:Drivers/STM32F7xx_HAL_Driver/Src/stm32f7xx_hal_rtc_ex.c ****         You can also configure the RTC Wakeup timer in interrupt mode using the
  40:Drivers/STM32F7xx_HAL_Driver/Src/stm32f7xx_hal_rtc_ex.c ****         HAL_RTCEx_SetWakeUpTimer_IT() function.
  41:Drivers/STM32F7xx_HAL_Driver/Src/stm32f7xx_hal_rtc_ex.c ****     (+) To read the RTC Wakeup Counter register, use the HAL_RTCEx_GetWakeUpTimer()
  42:Drivers/STM32F7xx_HAL_Driver/Src/stm32f7xx_hal_rtc_ex.c ****         function.
  43:Drivers/STM32F7xx_HAL_Driver/Src/stm32f7xx_hal_rtc_ex.c **** 
  44:Drivers/STM32F7xx_HAL_Driver/Src/stm32f7xx_hal_rtc_ex.c ****   *** Timestamp configuration ***
  45:Drivers/STM32F7xx_HAL_Driver/Src/stm32f7xx_hal_rtc_ex.c ****   ===============================
  46:Drivers/STM32F7xx_HAL_Driver/Src/stm32f7xx_hal_rtc_ex.c ****   [..]
  47:Drivers/STM32F7xx_HAL_Driver/Src/stm32f7xx_hal_rtc_ex.c ****     (+) To configure the RTC Timestamp use the HAL_RTCEx_SetTimeStamp() function.
  48:Drivers/STM32F7xx_HAL_Driver/Src/stm32f7xx_hal_rtc_ex.c ****         You can also configure the RTC Timestamp with interrupt mode using the
  49:Drivers/STM32F7xx_HAL_Driver/Src/stm32f7xx_hal_rtc_ex.c ****         HAL_RTCEx_SetTimeStamp_IT() function.
  50:Drivers/STM32F7xx_HAL_Driver/Src/stm32f7xx_hal_rtc_ex.c ****     (+) To read the RTC Timestamp Time and Date register, use the
  51:Drivers/STM32F7xx_HAL_Driver/Src/stm32f7xx_hal_rtc_ex.c ****         HAL_RTCEx_GetTimeStamp() function.
  52:Drivers/STM32F7xx_HAL_Driver/Src/stm32f7xx_hal_rtc_ex.c ****     (+) The Timestamp alternate function can be mapped either to RTC_AF1 (PC13),
  53:Drivers/STM32F7xx_HAL_Driver/Src/stm32f7xx_hal_rtc_ex.c ****         RTC_AF2 (PI8), or RTC_AF3 (PC1) depending on the value of TSINSEL field
  54:Drivers/STM32F7xx_HAL_Driver/Src/stm32f7xx_hal_rtc_ex.c ****         in RTC_OR register.
  55:Drivers/STM32F7xx_HAL_Driver/Src/stm32f7xx_hal_rtc_ex.c ****         The corresponding pin is also selected by HAL_RTCEx_SetTimeStamp()
  56:Drivers/STM32F7xx_HAL_Driver/Src/stm32f7xx_hal_rtc_ex.c ****         or HAL_RTCEx_SetTimeStamp_IT() functions.
  57:Drivers/STM32F7xx_HAL_Driver/Src/stm32f7xx_hal_rtc_ex.c **** 
  58:Drivers/STM32F7xx_HAL_Driver/Src/stm32f7xx_hal_rtc_ex.c ****   *** Internal Timestamp configuration ***
  59:Drivers/STM32F7xx_HAL_Driver/Src/stm32f7xx_hal_rtc_ex.c ****   ===============================
  60:Drivers/STM32F7xx_HAL_Driver/Src/stm32f7xx_hal_rtc_ex.c ****   [..]
  61:Drivers/STM32F7xx_HAL_Driver/Src/stm32f7xx_hal_rtc_ex.c ****     (+) To Enable the RTC internal Timestamp use the HAL_RTCEx_SetInternalTimeStamp()
  62:Drivers/STM32F7xx_HAL_Driver/Src/stm32f7xx_hal_rtc_ex.c ****         function.
  63:Drivers/STM32F7xx_HAL_Driver/Src/stm32f7xx_hal_rtc_ex.c ****     (+) To read the RTC Timestamp Time and Date register, use the HAL_RTCEx_GetTimeStamp()
  64:Drivers/STM32F7xx_HAL_Driver/Src/stm32f7xx_hal_rtc_ex.c ****         function.
  65:Drivers/STM32F7xx_HAL_Driver/Src/stm32f7xx_hal_rtc_ex.c **** 
  66:Drivers/STM32F7xx_HAL_Driver/Src/stm32f7xx_hal_rtc_ex.c ****   *** Tamper configuration ***
  67:Drivers/STM32F7xx_HAL_Driver/Src/stm32f7xx_hal_rtc_ex.c ****   ============================
  68:Drivers/STM32F7xx_HAL_Driver/Src/stm32f7xx_hal_rtc_ex.c ****   [..]
  69:Drivers/STM32F7xx_HAL_Driver/Src/stm32f7xx_hal_rtc_ex.c ****     (+) To Enable the RTC Tamper and configure the Tamper filter count, trigger
  70:Drivers/STM32F7xx_HAL_Driver/Src/stm32f7xx_hal_rtc_ex.c ****         Edge or Level according to the Tamper filter value (if equal to 0 Edge
  71:Drivers/STM32F7xx_HAL_Driver/Src/stm32f7xx_hal_rtc_ex.c ****         else Level), sampling frequency, NoErase, MaskFlag, precharge or
  72:Drivers/STM32F7xx_HAL_Driver/Src/stm32f7xx_hal_rtc_ex.c ****         discharge and Pull-UP use the HAL_RTCEx_SetTamper() function.
  73:Drivers/STM32F7xx_HAL_Driver/Src/stm32f7xx_hal_rtc_ex.c ****         You can configure RTC Tamper in interrupt mode using HAL_RTCEx_SetTamper_IT()
  74:Drivers/STM32F7xx_HAL_Driver/Src/stm32f7xx_hal_rtc_ex.c ****         function.
  75:Drivers/STM32F7xx_HAL_Driver/Src/stm32f7xx_hal_rtc_ex.c ****     (+) The default configuration of the Tamper erases the backup registers.
  76:Drivers/STM32F7xx_HAL_Driver/Src/stm32f7xx_hal_rtc_ex.c ****         To avoid this, enable the NoErase field on the RTC_TAMPCR register.
  77:Drivers/STM32F7xx_HAL_Driver/Src/stm32f7xx_hal_rtc_ex.c ****     (+) The TAMPER1 alternate function is mapped to RTC_AF1 (PC13).
  78:Drivers/STM32F7xx_HAL_Driver/Src/stm32f7xx_hal_rtc_ex.c ****     (+) The TAMPER2 alternate function is mapped to RTC_AF2 (PI8).
  79:Drivers/STM32F7xx_HAL_Driver/Src/stm32f7xx_hal_rtc_ex.c ****     (+) The TAMPER3 alternate function is mapped to RTC_AF3 (PC1).
  80:Drivers/STM32F7xx_HAL_Driver/Src/stm32f7xx_hal_rtc_ex.c **** 
  81:Drivers/STM32F7xx_HAL_Driver/Src/stm32f7xx_hal_rtc_ex.c ****   *** Backup Data Registers configuration ***
  82:Drivers/STM32F7xx_HAL_Driver/Src/stm32f7xx_hal_rtc_ex.c ****   ===========================================
  83:Drivers/STM32F7xx_HAL_Driver/Src/stm32f7xx_hal_rtc_ex.c ****   [..]
  84:Drivers/STM32F7xx_HAL_Driver/Src/stm32f7xx_hal_rtc_ex.c ****     (+) To write to the RTC Backup Data registers, use the HAL_RTCEx_BKUPWrite()
  85:Drivers/STM32F7xx_HAL_Driver/Src/stm32f7xx_hal_rtc_ex.c ****         function.
  86:Drivers/STM32F7xx_HAL_Driver/Src/stm32f7xx_hal_rtc_ex.c ****     (+) To read the RTC Backup Data registers, use the HAL_RTCEx_BKUPRead()
ARM GAS  /tmp/ccxe0t7k.s 			page 3


  87:Drivers/STM32F7xx_HAL_Driver/Src/stm32f7xx_hal_rtc_ex.c ****         function.
  88:Drivers/STM32F7xx_HAL_Driver/Src/stm32f7xx_hal_rtc_ex.c **** 
  89:Drivers/STM32F7xx_HAL_Driver/Src/stm32f7xx_hal_rtc_ex.c ****   *** Smooth Digital Calibration configuration ***
  90:Drivers/STM32F7xx_HAL_Driver/Src/stm32f7xx_hal_rtc_ex.c ****   ================================================
  91:Drivers/STM32F7xx_HAL_Driver/Src/stm32f7xx_hal_rtc_ex.c ****   [..]
  92:Drivers/STM32F7xx_HAL_Driver/Src/stm32f7xx_hal_rtc_ex.c ****     (+) RTC frequency can be digitally calibrated with a resolution of about
  93:Drivers/STM32F7xx_HAL_Driver/Src/stm32f7xx_hal_rtc_ex.c ****         0.954 ppm with a range from -487.1 ppm to +488.5 ppm.
  94:Drivers/STM32F7xx_HAL_Driver/Src/stm32f7xx_hal_rtc_ex.c ****         The correction of the frequency is performed using a series of small
  95:Drivers/STM32F7xx_HAL_Driver/Src/stm32f7xx_hal_rtc_ex.c ****         adjustments (adding and/or subtracting individual RTCCLK pulses).
  96:Drivers/STM32F7xx_HAL_Driver/Src/stm32f7xx_hal_rtc_ex.c ****     (+) The smooth digital calibration is performed during a cycle of about 2^20
  97:Drivers/STM32F7xx_HAL_Driver/Src/stm32f7xx_hal_rtc_ex.c ****         RTCCLK pulses (or 32 seconds) when the input frequency is 32,768 Hz.
  98:Drivers/STM32F7xx_HAL_Driver/Src/stm32f7xx_hal_rtc_ex.c ****         This cycle is maintained by a 20-bit counter clocked by RTCCLK.
  99:Drivers/STM32F7xx_HAL_Driver/Src/stm32f7xx_hal_rtc_ex.c ****     (+) The smooth calibration register (RTC_CALR) specifies the number of RTCCLK
 100:Drivers/STM32F7xx_HAL_Driver/Src/stm32f7xx_hal_rtc_ex.c ****         clock cycles to be masked during the 32-second cycle.
 101:Drivers/STM32F7xx_HAL_Driver/Src/stm32f7xx_hal_rtc_ex.c ****     (+) The RTC Smooth Digital Calibration value and the corresponding calibration
 102:Drivers/STM32F7xx_HAL_Driver/Src/stm32f7xx_hal_rtc_ex.c ****         cycle period (32s, 16s, or 8s) can be calibrated using the
 103:Drivers/STM32F7xx_HAL_Driver/Src/stm32f7xx_hal_rtc_ex.c ****         HAL_RTCEx_SetSmoothCalib() function.
 104:Drivers/STM32F7xx_HAL_Driver/Src/stm32f7xx_hal_rtc_ex.c **** 
 105:Drivers/STM32F7xx_HAL_Driver/Src/stm32f7xx_hal_rtc_ex.c ****   @endverbatim
 106:Drivers/STM32F7xx_HAL_Driver/Src/stm32f7xx_hal_rtc_ex.c ****   ******************************************************************************
 107:Drivers/STM32F7xx_HAL_Driver/Src/stm32f7xx_hal_rtc_ex.c ****   */
 108:Drivers/STM32F7xx_HAL_Driver/Src/stm32f7xx_hal_rtc_ex.c **** 
 109:Drivers/STM32F7xx_HAL_Driver/Src/stm32f7xx_hal_rtc_ex.c **** /* Includes ------------------------------------------------------------------*/
 110:Drivers/STM32F7xx_HAL_Driver/Src/stm32f7xx_hal_rtc_ex.c **** #include "stm32f7xx_hal.h"
 111:Drivers/STM32F7xx_HAL_Driver/Src/stm32f7xx_hal_rtc_ex.c **** 
 112:Drivers/STM32F7xx_HAL_Driver/Src/stm32f7xx_hal_rtc_ex.c **** /** @addtogroup STM32F7xx_HAL_Driver
 113:Drivers/STM32F7xx_HAL_Driver/Src/stm32f7xx_hal_rtc_ex.c ****   * @{
 114:Drivers/STM32F7xx_HAL_Driver/Src/stm32f7xx_hal_rtc_ex.c ****   */
 115:Drivers/STM32F7xx_HAL_Driver/Src/stm32f7xx_hal_rtc_ex.c **** 
 116:Drivers/STM32F7xx_HAL_Driver/Src/stm32f7xx_hal_rtc_ex.c **** /** @defgroup RTCEx RTCEx
 117:Drivers/STM32F7xx_HAL_Driver/Src/stm32f7xx_hal_rtc_ex.c ****   * @brief    RTC Extended HAL module driver
 118:Drivers/STM32F7xx_HAL_Driver/Src/stm32f7xx_hal_rtc_ex.c ****   * @{
 119:Drivers/STM32F7xx_HAL_Driver/Src/stm32f7xx_hal_rtc_ex.c ****   */
 120:Drivers/STM32F7xx_HAL_Driver/Src/stm32f7xx_hal_rtc_ex.c **** 
 121:Drivers/STM32F7xx_HAL_Driver/Src/stm32f7xx_hal_rtc_ex.c **** #ifdef HAL_RTC_MODULE_ENABLED
 122:Drivers/STM32F7xx_HAL_Driver/Src/stm32f7xx_hal_rtc_ex.c **** 
 123:Drivers/STM32F7xx_HAL_Driver/Src/stm32f7xx_hal_rtc_ex.c **** /* Private typedef -----------------------------------------------------------*/
 124:Drivers/STM32F7xx_HAL_Driver/Src/stm32f7xx_hal_rtc_ex.c **** /* Private define ------------------------------------------------------------*/
 125:Drivers/STM32F7xx_HAL_Driver/Src/stm32f7xx_hal_rtc_ex.c **** /* Private macro -------------------------------------------------------------*/
 126:Drivers/STM32F7xx_HAL_Driver/Src/stm32f7xx_hal_rtc_ex.c **** /* Private variables ---------------------------------------------------------*/
 127:Drivers/STM32F7xx_HAL_Driver/Src/stm32f7xx_hal_rtc_ex.c **** /* Private function prototypes -----------------------------------------------*/
 128:Drivers/STM32F7xx_HAL_Driver/Src/stm32f7xx_hal_rtc_ex.c **** /* Exported functions --------------------------------------------------------*/
 129:Drivers/STM32F7xx_HAL_Driver/Src/stm32f7xx_hal_rtc_ex.c **** 
 130:Drivers/STM32F7xx_HAL_Driver/Src/stm32f7xx_hal_rtc_ex.c **** /** @defgroup RTCEx_Exported_Functions RTCEx Exported Functions
 131:Drivers/STM32F7xx_HAL_Driver/Src/stm32f7xx_hal_rtc_ex.c ****   * @{
 132:Drivers/STM32F7xx_HAL_Driver/Src/stm32f7xx_hal_rtc_ex.c ****   */
 133:Drivers/STM32F7xx_HAL_Driver/Src/stm32f7xx_hal_rtc_ex.c **** 
 134:Drivers/STM32F7xx_HAL_Driver/Src/stm32f7xx_hal_rtc_ex.c **** /** @defgroup RTCEx_Exported_Functions_Group1 RTC Timestamp and Tamper functions
 135:Drivers/STM32F7xx_HAL_Driver/Src/stm32f7xx_hal_rtc_ex.c ****   * @brief    RTC Timestamp and Tamper functions
 136:Drivers/STM32F7xx_HAL_Driver/Src/stm32f7xx_hal_rtc_ex.c ****   *
 137:Drivers/STM32F7xx_HAL_Driver/Src/stm32f7xx_hal_rtc_ex.c **** @verbatim
 138:Drivers/STM32F7xx_HAL_Driver/Src/stm32f7xx_hal_rtc_ex.c ****  ===============================================================================
 139:Drivers/STM32F7xx_HAL_Driver/Src/stm32f7xx_hal_rtc_ex.c ****                  ##### RTC Timestamp and Tamper functions #####
 140:Drivers/STM32F7xx_HAL_Driver/Src/stm32f7xx_hal_rtc_ex.c ****  ===============================================================================
 141:Drivers/STM32F7xx_HAL_Driver/Src/stm32f7xx_hal_rtc_ex.c **** 
 142:Drivers/STM32F7xx_HAL_Driver/Src/stm32f7xx_hal_rtc_ex.c ****  [..] This section provides functions allowing to configure Timestamp feature
 143:Drivers/STM32F7xx_HAL_Driver/Src/stm32f7xx_hal_rtc_ex.c **** 
ARM GAS  /tmp/ccxe0t7k.s 			page 4


 144:Drivers/STM32F7xx_HAL_Driver/Src/stm32f7xx_hal_rtc_ex.c **** @endverbatim
 145:Drivers/STM32F7xx_HAL_Driver/Src/stm32f7xx_hal_rtc_ex.c ****   * @{
 146:Drivers/STM32F7xx_HAL_Driver/Src/stm32f7xx_hal_rtc_ex.c ****   */
 147:Drivers/STM32F7xx_HAL_Driver/Src/stm32f7xx_hal_rtc_ex.c **** 
 148:Drivers/STM32F7xx_HAL_Driver/Src/stm32f7xx_hal_rtc_ex.c **** /**
 149:Drivers/STM32F7xx_HAL_Driver/Src/stm32f7xx_hal_rtc_ex.c ****   * @brief  Sets Timestamp.
 150:Drivers/STM32F7xx_HAL_Driver/Src/stm32f7xx_hal_rtc_ex.c ****   * @note   This API must be called before enabling the Timestamp feature.
 151:Drivers/STM32F7xx_HAL_Driver/Src/stm32f7xx_hal_rtc_ex.c ****   * @param  hrtc pointer to a RTC_HandleTypeDef structure that contains
 152:Drivers/STM32F7xx_HAL_Driver/Src/stm32f7xx_hal_rtc_ex.c ****   *                the configuration information for RTC.
 153:Drivers/STM32F7xx_HAL_Driver/Src/stm32f7xx_hal_rtc_ex.c ****   * @param  RTC_TimeStampEdge Specifies the pin edge on which the Timestamp is
 154:Drivers/STM32F7xx_HAL_Driver/Src/stm32f7xx_hal_rtc_ex.c ****   *         activated.
 155:Drivers/STM32F7xx_HAL_Driver/Src/stm32f7xx_hal_rtc_ex.c ****   *          This parameter can be one of the following values:
 156:Drivers/STM32F7xx_HAL_Driver/Src/stm32f7xx_hal_rtc_ex.c ****   *             @arg RTC_TIMESTAMPEDGE_RISING: the Timestamp event occurs on
 157:Drivers/STM32F7xx_HAL_Driver/Src/stm32f7xx_hal_rtc_ex.c ****   *                                        the rising edge of the related pin.
 158:Drivers/STM32F7xx_HAL_Driver/Src/stm32f7xx_hal_rtc_ex.c ****   *             @arg RTC_TIMESTAMPEDGE_FALLING: the Timestamp event occurs on
 159:Drivers/STM32F7xx_HAL_Driver/Src/stm32f7xx_hal_rtc_ex.c ****   *                                        the falling edge of the related pin.
 160:Drivers/STM32F7xx_HAL_Driver/Src/stm32f7xx_hal_rtc_ex.c ****   * @param  RTC_TimeStampPin Specifies the RTC Timestamp Pin.
 161:Drivers/STM32F7xx_HAL_Driver/Src/stm32f7xx_hal_rtc_ex.c ****   *          This parameter can be one of the following values:
 162:Drivers/STM32F7xx_HAL_Driver/Src/stm32f7xx_hal_rtc_ex.c ****   *             @arg RTC_TIMESTAMPPIN_DEFAULT: PC13 is selected as RTC Timestamp Pin.
 163:Drivers/STM32F7xx_HAL_Driver/Src/stm32f7xx_hal_rtc_ex.c ****   *             @arg RTC_TIMESTAMPPIN_POS1: PI8 is selected as RTC Timestamp Pin.
 164:Drivers/STM32F7xx_HAL_Driver/Src/stm32f7xx_hal_rtc_ex.c ****   *             @arg RTC_TIMESTAMPPIN_POS2: PC1 is selected as RTC Timestamp Pin.
 165:Drivers/STM32F7xx_HAL_Driver/Src/stm32f7xx_hal_rtc_ex.c ****   * @retval HAL status
 166:Drivers/STM32F7xx_HAL_Driver/Src/stm32f7xx_hal_rtc_ex.c ****   */
 167:Drivers/STM32F7xx_HAL_Driver/Src/stm32f7xx_hal_rtc_ex.c **** HAL_StatusTypeDef HAL_RTCEx_SetTimeStamp(RTC_HandleTypeDef *hrtc, uint32_t RTC_TimeStampEdge, uint3
 168:Drivers/STM32F7xx_HAL_Driver/Src/stm32f7xx_hal_rtc_ex.c **** {
  30              		.loc 1 168 1 view -0
  31              		.cfi_startproc
  32              		@ args = 0, pretend = 0, frame = 0
  33              		@ frame_needed = 0, uses_anonymous_args = 0
  34              		@ link register save eliminated.
  35              		.loc 1 168 1 is_stmt 0 view .LVU1
  36 0000 0346     		mov	r3, r0
 169:Drivers/STM32F7xx_HAL_Driver/Src/stm32f7xx_hal_rtc_ex.c ****   uint32_t tmpreg = 0U;
  37              		.loc 1 169 3 is_stmt 1 view .LVU2
  38              	.LVL1:
 170:Drivers/STM32F7xx_HAL_Driver/Src/stm32f7xx_hal_rtc_ex.c **** 
 171:Drivers/STM32F7xx_HAL_Driver/Src/stm32f7xx_hal_rtc_ex.c ****   /* Check the parameters */
 172:Drivers/STM32F7xx_HAL_Driver/Src/stm32f7xx_hal_rtc_ex.c ****   assert_param(IS_TIMESTAMP_EDGE(RTC_TimeStampEdge));
  39              		.loc 1 172 3 view .LVU3
 173:Drivers/STM32F7xx_HAL_Driver/Src/stm32f7xx_hal_rtc_ex.c ****   assert_param(IS_RTC_TIMESTAMP_PIN(RTC_TimeStampPin));
  40              		.loc 1 173 3 view .LVU4
 174:Drivers/STM32F7xx_HAL_Driver/Src/stm32f7xx_hal_rtc_ex.c **** 
 175:Drivers/STM32F7xx_HAL_Driver/Src/stm32f7xx_hal_rtc_ex.c ****   /* Process Locked */
 176:Drivers/STM32F7xx_HAL_Driver/Src/stm32f7xx_hal_rtc_ex.c ****   __HAL_LOCK(hrtc);
  41              		.loc 1 176 3 view .LVU5
  42              		.loc 1 176 3 view .LVU6
  43 0002 007F     		ldrb	r0, [r0, #28]	@ zero_extendqisi2
  44              	.LVL2:
  45              		.loc 1 176 3 is_stmt 0 view .LVU7
  46 0004 0128     		cmp	r0, #1
  47 0006 32D0     		beq	.L3
 168:Drivers/STM32F7xx_HAL_Driver/Src/stm32f7xx_hal_rtc_ex.c ****   uint32_t tmpreg = 0U;
  48              		.loc 1 168 1 discriminator 2 view .LVU8
  49 0008 30B4     		push	{r4, r5}
  50              	.LCFI0:
  51              		.cfi_def_cfa_offset 8
  52              		.cfi_offset 4, -8
ARM GAS  /tmp/ccxe0t7k.s 			page 5


  53              		.cfi_offset 5, -4
  54              		.loc 1 176 3 is_stmt 1 discriminator 2 view .LVU9
  55 000a 0120     		movs	r0, #1
  56 000c 1877     		strb	r0, [r3, #28]
  57              		.loc 1 176 3 discriminator 2 view .LVU10
 177:Drivers/STM32F7xx_HAL_Driver/Src/stm32f7xx_hal_rtc_ex.c **** 
 178:Drivers/STM32F7xx_HAL_Driver/Src/stm32f7xx_hal_rtc_ex.c ****   /* Change RTC state to BUSY */
 179:Drivers/STM32F7xx_HAL_Driver/Src/stm32f7xx_hal_rtc_ex.c ****   hrtc->State = HAL_RTC_STATE_BUSY;
  58              		.loc 1 179 3 discriminator 2 view .LVU11
  59              		.loc 1 179 15 is_stmt 0 discriminator 2 view .LVU12
  60 000e 0224     		movs	r4, #2
  61 0010 5C77     		strb	r4, [r3, #29]
 180:Drivers/STM32F7xx_HAL_Driver/Src/stm32f7xx_hal_rtc_ex.c **** 
 181:Drivers/STM32F7xx_HAL_Driver/Src/stm32f7xx_hal_rtc_ex.c ****   hrtc->Instance->OR &= (uint32_t)~RTC_OR_TSINSEL;
  62              		.loc 1 181 3 is_stmt 1 discriminator 2 view .LVU13
  63              		.loc 1 181 7 is_stmt 0 discriminator 2 view .LVU14
  64 0012 1D68     		ldr	r5, [r3]
  65              		.loc 1 181 17 discriminator 2 view .LVU15
  66 0014 EC6C     		ldr	r4, [r5, #76]
  67              		.loc 1 181 22 discriminator 2 view .LVU16
  68 0016 24F00604 		bic	r4, r4, #6
  69 001a EC64     		str	r4, [r5, #76]
 182:Drivers/STM32F7xx_HAL_Driver/Src/stm32f7xx_hal_rtc_ex.c ****   hrtc->Instance->OR |= (uint32_t)(RTC_TimeStampPin);
  70              		.loc 1 182 3 is_stmt 1 discriminator 2 view .LVU17
  71              		.loc 1 182 7 is_stmt 0 discriminator 2 view .LVU18
  72 001c 1D68     		ldr	r5, [r3]
  73              		.loc 1 182 17 discriminator 2 view .LVU19
  74 001e EC6C     		ldr	r4, [r5, #76]
  75              		.loc 1 182 22 discriminator 2 view .LVU20
  76 0020 2243     		orrs	r2, r2, r4
  77              	.LVL3:
  78              		.loc 1 182 22 discriminator 2 view .LVU21
  79 0022 EA64     		str	r2, [r5, #76]
 183:Drivers/STM32F7xx_HAL_Driver/Src/stm32f7xx_hal_rtc_ex.c **** 
 184:Drivers/STM32F7xx_HAL_Driver/Src/stm32f7xx_hal_rtc_ex.c ****   /* Get the RTC_CR register and clear the bits to be configured */
 185:Drivers/STM32F7xx_HAL_Driver/Src/stm32f7xx_hal_rtc_ex.c ****   tmpreg = (uint32_t)(hrtc->Instance->CR & (uint32_t)~(RTC_CR_TSEDGE | RTC_CR_TSE));
  80              		.loc 1 185 3 is_stmt 1 discriminator 2 view .LVU22
  81              		.loc 1 185 27 is_stmt 0 discriminator 2 view .LVU23
  82 0024 1C68     		ldr	r4, [r3]
  83              		.loc 1 185 37 discriminator 2 view .LVU24
  84 0026 A568     		ldr	r5, [r4, #8]
  85              		.loc 1 185 10 discriminator 2 view .LVU25
  86 0028 124A     		ldr	r2, .L8
  87 002a 2A40     		ands	r2, r2, r5
  88              	.LVL4:
 186:Drivers/STM32F7xx_HAL_Driver/Src/stm32f7xx_hal_rtc_ex.c **** 
 187:Drivers/STM32F7xx_HAL_Driver/Src/stm32f7xx_hal_rtc_ex.c ****   /* Configure the Timestamp TSEDGE bit */
 188:Drivers/STM32F7xx_HAL_Driver/Src/stm32f7xx_hal_rtc_ex.c ****   tmpreg |= RTC_TimeStampEdge;
  89              		.loc 1 188 3 is_stmt 1 discriminator 2 view .LVU26
  90              		.loc 1 188 10 is_stmt 0 discriminator 2 view .LVU27
  91 002c 0A43     		orrs	r2, r2, r1
  92              	.LVL5:
 189:Drivers/STM32F7xx_HAL_Driver/Src/stm32f7xx_hal_rtc_ex.c **** 
 190:Drivers/STM32F7xx_HAL_Driver/Src/stm32f7xx_hal_rtc_ex.c ****   /* Disable the write protection for RTC registers */
 191:Drivers/STM32F7xx_HAL_Driver/Src/stm32f7xx_hal_rtc_ex.c ****   __HAL_RTC_WRITEPROTECTION_DISABLE(hrtc);
  93              		.loc 1 191 3 is_stmt 1 discriminator 2 view .LVU28
  94              		.loc 1 191 3 discriminator 2 view .LVU29
ARM GAS  /tmp/ccxe0t7k.s 			page 6


  95 002e CA21     		movs	r1, #202
  96              	.LVL6:
  97              		.loc 1 191 3 is_stmt 0 discriminator 2 view .LVU30
  98 0030 6162     		str	r1, [r4, #36]
  99              		.loc 1 191 3 is_stmt 1 discriminator 2 view .LVU31
 100 0032 1968     		ldr	r1, [r3]
 101 0034 5324     		movs	r4, #83
 102 0036 4C62     		str	r4, [r1, #36]
 103              		.loc 1 191 3 discriminator 2 view .LVU32
 192:Drivers/STM32F7xx_HAL_Driver/Src/stm32f7xx_hal_rtc_ex.c **** 
 193:Drivers/STM32F7xx_HAL_Driver/Src/stm32f7xx_hal_rtc_ex.c ****   /* Copy the desired configuration into the CR register */
 194:Drivers/STM32F7xx_HAL_Driver/Src/stm32f7xx_hal_rtc_ex.c ****   hrtc->Instance->CR = (uint32_t)tmpreg;
 104              		.loc 1 194 3 discriminator 2 view .LVU33
 105              		.loc 1 194 7 is_stmt 0 discriminator 2 view .LVU34
 106 0038 1968     		ldr	r1, [r3]
 107              		.loc 1 194 22 discriminator 2 view .LVU35
 108 003a 8A60     		str	r2, [r1, #8]
 195:Drivers/STM32F7xx_HAL_Driver/Src/stm32f7xx_hal_rtc_ex.c **** 
 196:Drivers/STM32F7xx_HAL_Driver/Src/stm32f7xx_hal_rtc_ex.c ****   /* Clear RTC Timestamp flag */
 197:Drivers/STM32F7xx_HAL_Driver/Src/stm32f7xx_hal_rtc_ex.c ****   __HAL_RTC_TIMESTAMP_CLEAR_FLAG(hrtc, RTC_FLAG_TSF);
 109              		.loc 1 197 3 is_stmt 1 discriminator 2 view .LVU36
 110 003c 1968     		ldr	r1, [r3]
 111 003e CA68     		ldr	r2, [r1, #12]
 112              	.LVL7:
 113              		.loc 1 197 3 is_stmt 0 discriminator 2 view .LVU37
 114 0040 D2B2     		uxtb	r2, r2
 115 0042 62F40862 		orn	r2, r2, #2176
 116 0046 CA60     		str	r2, [r1, #12]
 198:Drivers/STM32F7xx_HAL_Driver/Src/stm32f7xx_hal_rtc_ex.c **** 
 199:Drivers/STM32F7xx_HAL_Driver/Src/stm32f7xx_hal_rtc_ex.c ****   /* Clear RTC Timestamp overrun Flag */
 200:Drivers/STM32F7xx_HAL_Driver/Src/stm32f7xx_hal_rtc_ex.c ****   __HAL_RTC_TIMESTAMP_CLEAR_FLAG(hrtc, RTC_FLAG_TSOVF);
 117              		.loc 1 200 3 is_stmt 1 discriminator 2 view .LVU38
 118 0048 1968     		ldr	r1, [r3]
 119 004a CA68     		ldr	r2, [r1, #12]
 120 004c D2B2     		uxtb	r2, r2
 121 004e 62F48452 		orn	r2, r2, #4224
 122 0052 CA60     		str	r2, [r1, #12]
 201:Drivers/STM32F7xx_HAL_Driver/Src/stm32f7xx_hal_rtc_ex.c **** 
 202:Drivers/STM32F7xx_HAL_Driver/Src/stm32f7xx_hal_rtc_ex.c ****   /* Enable the Timestamp saving */
 203:Drivers/STM32F7xx_HAL_Driver/Src/stm32f7xx_hal_rtc_ex.c ****   __HAL_RTC_TIMESTAMP_ENABLE(hrtc);
 123              		.loc 1 203 3 discriminator 2 view .LVU39
 124 0054 1968     		ldr	r1, [r3]
 125 0056 8A68     		ldr	r2, [r1, #8]
 126 0058 42F40062 		orr	r2, r2, #2048
 127 005c 8A60     		str	r2, [r1, #8]
 204:Drivers/STM32F7xx_HAL_Driver/Src/stm32f7xx_hal_rtc_ex.c **** 
 205:Drivers/STM32F7xx_HAL_Driver/Src/stm32f7xx_hal_rtc_ex.c ****   /* Enable the write protection for RTC registers */
 206:Drivers/STM32F7xx_HAL_Driver/Src/stm32f7xx_hal_rtc_ex.c ****   __HAL_RTC_WRITEPROTECTION_ENABLE(hrtc);
 128              		.loc 1 206 3 discriminator 2 view .LVU40
 129              		.loc 1 206 3 discriminator 2 view .LVU41
 130 005e 1A68     		ldr	r2, [r3]
 131 0060 FF21     		movs	r1, #255
 132 0062 5162     		str	r1, [r2, #36]
 133              		.loc 1 206 3 discriminator 2 view .LVU42
 207:Drivers/STM32F7xx_HAL_Driver/Src/stm32f7xx_hal_rtc_ex.c **** 
 208:Drivers/STM32F7xx_HAL_Driver/Src/stm32f7xx_hal_rtc_ex.c ****   /* Change RTC state back to READY */
 209:Drivers/STM32F7xx_HAL_Driver/Src/stm32f7xx_hal_rtc_ex.c ****   hrtc->State = HAL_RTC_STATE_READY;
ARM GAS  /tmp/ccxe0t7k.s 			page 7


 134              		.loc 1 209 3 discriminator 2 view .LVU43
 135              		.loc 1 209 15 is_stmt 0 discriminator 2 view .LVU44
 136 0064 5877     		strb	r0, [r3, #29]
 210:Drivers/STM32F7xx_HAL_Driver/Src/stm32f7xx_hal_rtc_ex.c **** 
 211:Drivers/STM32F7xx_HAL_Driver/Src/stm32f7xx_hal_rtc_ex.c ****   /* Process Unlocked */
 212:Drivers/STM32F7xx_HAL_Driver/Src/stm32f7xx_hal_rtc_ex.c ****   __HAL_UNLOCK(hrtc);
 137              		.loc 1 212 3 is_stmt 1 discriminator 2 view .LVU45
 138              		.loc 1 212 3 discriminator 2 view .LVU46
 139 0066 0020     		movs	r0, #0
 140 0068 1877     		strb	r0, [r3, #28]
 141              		.loc 1 212 3 discriminator 2 view .LVU47
 213:Drivers/STM32F7xx_HAL_Driver/Src/stm32f7xx_hal_rtc_ex.c **** 
 214:Drivers/STM32F7xx_HAL_Driver/Src/stm32f7xx_hal_rtc_ex.c ****   return HAL_OK;
 142              		.loc 1 214 3 discriminator 2 view .LVU48
 215:Drivers/STM32F7xx_HAL_Driver/Src/stm32f7xx_hal_rtc_ex.c **** }
 143              		.loc 1 215 1 is_stmt 0 discriminator 2 view .LVU49
 144 006a 30BC     		pop	{r4, r5}
 145              	.LCFI1:
 146              		.cfi_restore 5
 147              		.cfi_restore 4
 148              		.cfi_def_cfa_offset 0
 149              	.LVL8:
 150              		.loc 1 215 1 discriminator 2 view .LVU50
 151 006c 7047     		bx	lr
 152              	.LVL9:
 153              	.L3:
 176:Drivers/STM32F7xx_HAL_Driver/Src/stm32f7xx_hal_rtc_ex.c **** 
 154              		.loc 1 176 3 view .LVU51
 155 006e 0220     		movs	r0, #2
 156              		.loc 1 215 1 view .LVU52
 157 0070 7047     		bx	lr
 158              	.L9:
 159 0072 00BF     		.align	2
 160              	.L8:
 161 0074 F7F7FFFF 		.word	-2057
 162              		.cfi_endproc
 163              	.LFE141:
 165              		.section	.text.HAL_RTCEx_SetTimeStamp_IT,"ax",%progbits
 166              		.align	1
 167              		.global	HAL_RTCEx_SetTimeStamp_IT
 168              		.syntax unified
 169              		.thumb
 170              		.thumb_func
 172              	HAL_RTCEx_SetTimeStamp_IT:
 173              	.LVL10:
 174              	.LFB142:
 216:Drivers/STM32F7xx_HAL_Driver/Src/stm32f7xx_hal_rtc_ex.c **** 
 217:Drivers/STM32F7xx_HAL_Driver/Src/stm32f7xx_hal_rtc_ex.c **** /**
 218:Drivers/STM32F7xx_HAL_Driver/Src/stm32f7xx_hal_rtc_ex.c ****   * @brief  Sets Timestamp with Interrupt.
 219:Drivers/STM32F7xx_HAL_Driver/Src/stm32f7xx_hal_rtc_ex.c ****   * @param  hrtc pointer to a RTC_HandleTypeDef structure that contains
 220:Drivers/STM32F7xx_HAL_Driver/Src/stm32f7xx_hal_rtc_ex.c ****   *                the configuration information for RTC.
 221:Drivers/STM32F7xx_HAL_Driver/Src/stm32f7xx_hal_rtc_ex.c ****   * @note   This API must be called before enabling the Timestamp feature.
 222:Drivers/STM32F7xx_HAL_Driver/Src/stm32f7xx_hal_rtc_ex.c ****   * @param  RTC_TimeStampEdge Specifies the pin edge on which the Timestamp is
 223:Drivers/STM32F7xx_HAL_Driver/Src/stm32f7xx_hal_rtc_ex.c ****   *         activated.
 224:Drivers/STM32F7xx_HAL_Driver/Src/stm32f7xx_hal_rtc_ex.c ****   *          This parameter can be one of the following values:
 225:Drivers/STM32F7xx_HAL_Driver/Src/stm32f7xx_hal_rtc_ex.c ****   *             @arg RTC_TIMESTAMPEDGE_RISING: the Timestamp event occurs on
 226:Drivers/STM32F7xx_HAL_Driver/Src/stm32f7xx_hal_rtc_ex.c ****   *                                        the rising edge of the related pin.
ARM GAS  /tmp/ccxe0t7k.s 			page 8


 227:Drivers/STM32F7xx_HAL_Driver/Src/stm32f7xx_hal_rtc_ex.c ****   *             @arg RTC_TIMESTAMPEDGE_FALLING: the Timestamp event occurs on
 228:Drivers/STM32F7xx_HAL_Driver/Src/stm32f7xx_hal_rtc_ex.c ****   *                                        the falling edge of the related pin.
 229:Drivers/STM32F7xx_HAL_Driver/Src/stm32f7xx_hal_rtc_ex.c ****   * @param  RTC_TimeStampPin Specifies the RTC Timestamp Pin.
 230:Drivers/STM32F7xx_HAL_Driver/Src/stm32f7xx_hal_rtc_ex.c ****   *          This parameter can be one of the following values:
 231:Drivers/STM32F7xx_HAL_Driver/Src/stm32f7xx_hal_rtc_ex.c ****   *             @arg RTC_TIMESTAMPPIN_DEFAULT: PC13 is selected as RTC Timestamp Pin.
 232:Drivers/STM32F7xx_HAL_Driver/Src/stm32f7xx_hal_rtc_ex.c ****   *             @arg RTC_TIMESTAMPPIN_POS1: PI8 is selected as RTC Timestamp Pin.
 233:Drivers/STM32F7xx_HAL_Driver/Src/stm32f7xx_hal_rtc_ex.c ****   *             @arg RTC_TIMESTAMPPIN_POS2: PC1 is selected as RTC Timestamp Pin.
 234:Drivers/STM32F7xx_HAL_Driver/Src/stm32f7xx_hal_rtc_ex.c ****   * @retval HAL status
 235:Drivers/STM32F7xx_HAL_Driver/Src/stm32f7xx_hal_rtc_ex.c ****   */
 236:Drivers/STM32F7xx_HAL_Driver/Src/stm32f7xx_hal_rtc_ex.c **** HAL_StatusTypeDef HAL_RTCEx_SetTimeStamp_IT(RTC_HandleTypeDef *hrtc, uint32_t RTC_TimeStampEdge, ui
 237:Drivers/STM32F7xx_HAL_Driver/Src/stm32f7xx_hal_rtc_ex.c **** {
 175              		.loc 1 237 1 is_stmt 1 view -0
 176              		.cfi_startproc
 177              		@ args = 0, pretend = 0, frame = 0
 178              		@ frame_needed = 0, uses_anonymous_args = 0
 179              		@ link register save eliminated.
 180              		.loc 1 237 1 is_stmt 0 view .LVU54
 181 0000 0346     		mov	r3, r0
 238:Drivers/STM32F7xx_HAL_Driver/Src/stm32f7xx_hal_rtc_ex.c ****   uint32_t tmpreg = 0U;
 182              		.loc 1 238 3 is_stmt 1 view .LVU55
 183              	.LVL11:
 239:Drivers/STM32F7xx_HAL_Driver/Src/stm32f7xx_hal_rtc_ex.c **** 
 240:Drivers/STM32F7xx_HAL_Driver/Src/stm32f7xx_hal_rtc_ex.c ****   /* Check the parameters */
 241:Drivers/STM32F7xx_HAL_Driver/Src/stm32f7xx_hal_rtc_ex.c ****   assert_param(IS_TIMESTAMP_EDGE(RTC_TimeStampEdge));
 184              		.loc 1 241 3 view .LVU56
 242:Drivers/STM32F7xx_HAL_Driver/Src/stm32f7xx_hal_rtc_ex.c ****   assert_param(IS_RTC_TIMESTAMP_PIN(RTC_TimeStampPin));
 185              		.loc 1 242 3 view .LVU57
 243:Drivers/STM32F7xx_HAL_Driver/Src/stm32f7xx_hal_rtc_ex.c **** 
 244:Drivers/STM32F7xx_HAL_Driver/Src/stm32f7xx_hal_rtc_ex.c ****   /* Process Locked */
 245:Drivers/STM32F7xx_HAL_Driver/Src/stm32f7xx_hal_rtc_ex.c ****   __HAL_LOCK(hrtc);
 186              		.loc 1 245 3 view .LVU58
 187              		.loc 1 245 3 view .LVU59
 188 0002 007F     		ldrb	r0, [r0, #28]	@ zero_extendqisi2
 189              	.LVL12:
 190              		.loc 1 245 3 is_stmt 0 view .LVU60
 191 0004 0128     		cmp	r0, #1
 192 0006 40D0     		beq	.L12
 237:Drivers/STM32F7xx_HAL_Driver/Src/stm32f7xx_hal_rtc_ex.c ****   uint32_t tmpreg = 0U;
 193              		.loc 1 237 1 discriminator 2 view .LVU61
 194 0008 30B4     		push	{r4, r5}
 195              	.LCFI2:
 196              		.cfi_def_cfa_offset 8
 197              		.cfi_offset 4, -8
 198              		.cfi_offset 5, -4
 199              		.loc 1 245 3 is_stmt 1 discriminator 2 view .LVU62
 200 000a 0120     		movs	r0, #1
 201 000c 1877     		strb	r0, [r3, #28]
 202              		.loc 1 245 3 discriminator 2 view .LVU63
 246:Drivers/STM32F7xx_HAL_Driver/Src/stm32f7xx_hal_rtc_ex.c **** 
 247:Drivers/STM32F7xx_HAL_Driver/Src/stm32f7xx_hal_rtc_ex.c ****   /* Change RTC state to BUSY */
 248:Drivers/STM32F7xx_HAL_Driver/Src/stm32f7xx_hal_rtc_ex.c ****   hrtc->State = HAL_RTC_STATE_BUSY;
 203              		.loc 1 248 3 discriminator 2 view .LVU64
 204              		.loc 1 248 15 is_stmt 0 discriminator 2 view .LVU65
 205 000e 0224     		movs	r4, #2
 206 0010 5C77     		strb	r4, [r3, #29]
 249:Drivers/STM32F7xx_HAL_Driver/Src/stm32f7xx_hal_rtc_ex.c **** 
 250:Drivers/STM32F7xx_HAL_Driver/Src/stm32f7xx_hal_rtc_ex.c ****   hrtc->Instance->OR &= (uint32_t)~RTC_OR_TSINSEL;
ARM GAS  /tmp/ccxe0t7k.s 			page 9


 207              		.loc 1 250 3 is_stmt 1 discriminator 2 view .LVU66
 208              		.loc 1 250 7 is_stmt 0 discriminator 2 view .LVU67
 209 0012 1D68     		ldr	r5, [r3]
 210              		.loc 1 250 17 discriminator 2 view .LVU68
 211 0014 EC6C     		ldr	r4, [r5, #76]
 212              		.loc 1 250 22 discriminator 2 view .LVU69
 213 0016 24F00604 		bic	r4, r4, #6
 214 001a EC64     		str	r4, [r5, #76]
 251:Drivers/STM32F7xx_HAL_Driver/Src/stm32f7xx_hal_rtc_ex.c ****   hrtc->Instance->OR |= (uint32_t)(RTC_TimeStampPin);
 215              		.loc 1 251 3 is_stmt 1 discriminator 2 view .LVU70
 216              		.loc 1 251 7 is_stmt 0 discriminator 2 view .LVU71
 217 001c 1D68     		ldr	r5, [r3]
 218              		.loc 1 251 17 discriminator 2 view .LVU72
 219 001e EC6C     		ldr	r4, [r5, #76]
 220              		.loc 1 251 22 discriminator 2 view .LVU73
 221 0020 2243     		orrs	r2, r2, r4
 222              	.LVL13:
 223              		.loc 1 251 22 discriminator 2 view .LVU74
 224 0022 EA64     		str	r2, [r5, #76]
 252:Drivers/STM32F7xx_HAL_Driver/Src/stm32f7xx_hal_rtc_ex.c **** 
 253:Drivers/STM32F7xx_HAL_Driver/Src/stm32f7xx_hal_rtc_ex.c ****   /* Get the RTC_CR register and clear the bits to be configured */
 254:Drivers/STM32F7xx_HAL_Driver/Src/stm32f7xx_hal_rtc_ex.c ****   tmpreg = (uint32_t)(hrtc->Instance->CR & (uint32_t)~(RTC_CR_TSEDGE | RTC_CR_TSE));
 225              		.loc 1 254 3 is_stmt 1 discriminator 2 view .LVU75
 226              		.loc 1 254 27 is_stmt 0 discriminator 2 view .LVU76
 227 0024 1C68     		ldr	r4, [r3]
 228              		.loc 1 254 37 discriminator 2 view .LVU77
 229 0026 A568     		ldr	r5, [r4, #8]
 230              		.loc 1 254 10 discriminator 2 view .LVU78
 231 0028 194A     		ldr	r2, .L17
 232 002a 2A40     		ands	r2, r2, r5
 233              	.LVL14:
 255:Drivers/STM32F7xx_HAL_Driver/Src/stm32f7xx_hal_rtc_ex.c **** 
 256:Drivers/STM32F7xx_HAL_Driver/Src/stm32f7xx_hal_rtc_ex.c ****   /* Configure the Timestamp TSEDGE bit */
 257:Drivers/STM32F7xx_HAL_Driver/Src/stm32f7xx_hal_rtc_ex.c ****   tmpreg |= RTC_TimeStampEdge;
 234              		.loc 1 257 3 is_stmt 1 discriminator 2 view .LVU79
 235              		.loc 1 257 10 is_stmt 0 discriminator 2 view .LVU80
 236 002c 0A43     		orrs	r2, r2, r1
 237              	.LVL15:
 258:Drivers/STM32F7xx_HAL_Driver/Src/stm32f7xx_hal_rtc_ex.c **** 
 259:Drivers/STM32F7xx_HAL_Driver/Src/stm32f7xx_hal_rtc_ex.c ****   /* Disable the write protection for RTC registers */
 260:Drivers/STM32F7xx_HAL_Driver/Src/stm32f7xx_hal_rtc_ex.c ****   __HAL_RTC_WRITEPROTECTION_DISABLE(hrtc);
 238              		.loc 1 260 3 is_stmt 1 discriminator 2 view .LVU81
 239              		.loc 1 260 3 discriminator 2 view .LVU82
 240 002e CA21     		movs	r1, #202
 241              	.LVL16:
 242              		.loc 1 260 3 is_stmt 0 discriminator 2 view .LVU83
 243 0030 6162     		str	r1, [r4, #36]
 244              		.loc 1 260 3 is_stmt 1 discriminator 2 view .LVU84
 245 0032 1968     		ldr	r1, [r3]
 246 0034 5324     		movs	r4, #83
 247 0036 4C62     		str	r4, [r1, #36]
 248              		.loc 1 260 3 discriminator 2 view .LVU85
 261:Drivers/STM32F7xx_HAL_Driver/Src/stm32f7xx_hal_rtc_ex.c **** 
 262:Drivers/STM32F7xx_HAL_Driver/Src/stm32f7xx_hal_rtc_ex.c ****   /* Copy the desired configuration into the CR register */
 263:Drivers/STM32F7xx_HAL_Driver/Src/stm32f7xx_hal_rtc_ex.c ****   hrtc->Instance->CR = (uint32_t)tmpreg;
 249              		.loc 1 263 3 discriminator 2 view .LVU86
 250              		.loc 1 263 7 is_stmt 0 discriminator 2 view .LVU87
ARM GAS  /tmp/ccxe0t7k.s 			page 10


 251 0038 1968     		ldr	r1, [r3]
 252              		.loc 1 263 22 discriminator 2 view .LVU88
 253 003a 8A60     		str	r2, [r1, #8]
 264:Drivers/STM32F7xx_HAL_Driver/Src/stm32f7xx_hal_rtc_ex.c **** 
 265:Drivers/STM32F7xx_HAL_Driver/Src/stm32f7xx_hal_rtc_ex.c ****   /* Clear RTC Timestamp flag */
 266:Drivers/STM32F7xx_HAL_Driver/Src/stm32f7xx_hal_rtc_ex.c ****   __HAL_RTC_TIMESTAMP_CLEAR_FLAG(hrtc, RTC_FLAG_TSF);
 254              		.loc 1 266 3 is_stmt 1 discriminator 2 view .LVU89
 255 003c 1968     		ldr	r1, [r3]
 256 003e CA68     		ldr	r2, [r1, #12]
 257              	.LVL17:
 258              		.loc 1 266 3 is_stmt 0 discriminator 2 view .LVU90
 259 0040 D2B2     		uxtb	r2, r2
 260 0042 62F40862 		orn	r2, r2, #2176
 261 0046 CA60     		str	r2, [r1, #12]
 267:Drivers/STM32F7xx_HAL_Driver/Src/stm32f7xx_hal_rtc_ex.c **** 
 268:Drivers/STM32F7xx_HAL_Driver/Src/stm32f7xx_hal_rtc_ex.c ****   /* Clear RTC Timestamp overrun Flag */
 269:Drivers/STM32F7xx_HAL_Driver/Src/stm32f7xx_hal_rtc_ex.c ****   __HAL_RTC_TIMESTAMP_CLEAR_FLAG(hrtc, RTC_FLAG_TSOVF);
 262              		.loc 1 269 3 is_stmt 1 discriminator 2 view .LVU91
 263 0048 1968     		ldr	r1, [r3]
 264 004a CA68     		ldr	r2, [r1, #12]
 265 004c D2B2     		uxtb	r2, r2
 266 004e 62F48452 		orn	r2, r2, #4224
 267 0052 CA60     		str	r2, [r1, #12]
 270:Drivers/STM32F7xx_HAL_Driver/Src/stm32f7xx_hal_rtc_ex.c **** 
 271:Drivers/STM32F7xx_HAL_Driver/Src/stm32f7xx_hal_rtc_ex.c ****   /* Enable the Timestamp saving */
 272:Drivers/STM32F7xx_HAL_Driver/Src/stm32f7xx_hal_rtc_ex.c ****   __HAL_RTC_TIMESTAMP_ENABLE(hrtc);
 268              		.loc 1 272 3 discriminator 2 view .LVU92
 269 0054 1968     		ldr	r1, [r3]
 270 0056 8A68     		ldr	r2, [r1, #8]
 271 0058 42F40062 		orr	r2, r2, #2048
 272 005c 8A60     		str	r2, [r1, #8]
 273:Drivers/STM32F7xx_HAL_Driver/Src/stm32f7xx_hal_rtc_ex.c **** 
 274:Drivers/STM32F7xx_HAL_Driver/Src/stm32f7xx_hal_rtc_ex.c ****   /* Enable IT Timestamp */
 275:Drivers/STM32F7xx_HAL_Driver/Src/stm32f7xx_hal_rtc_ex.c ****   __HAL_RTC_TIMESTAMP_ENABLE_IT(hrtc, RTC_IT_TS);
 273              		.loc 1 275 3 discriminator 2 view .LVU93
 274 005e 1968     		ldr	r1, [r3]
 275 0060 8A68     		ldr	r2, [r1, #8]
 276 0062 42F40042 		orr	r2, r2, #32768
 277 0066 8A60     		str	r2, [r1, #8]
 276:Drivers/STM32F7xx_HAL_Driver/Src/stm32f7xx_hal_rtc_ex.c **** 
 277:Drivers/STM32F7xx_HAL_Driver/Src/stm32f7xx_hal_rtc_ex.c ****   /* Enable the write protection for RTC registers */
 278:Drivers/STM32F7xx_HAL_Driver/Src/stm32f7xx_hal_rtc_ex.c ****   __HAL_RTC_WRITEPROTECTION_ENABLE(hrtc);
 278              		.loc 1 278 3 discriminator 2 view .LVU94
 279              		.loc 1 278 3 discriminator 2 view .LVU95
 280 0068 1A68     		ldr	r2, [r3]
 281 006a FF21     		movs	r1, #255
 282 006c 5162     		str	r1, [r2, #36]
 283              		.loc 1 278 3 discriminator 2 view .LVU96
 279:Drivers/STM32F7xx_HAL_Driver/Src/stm32f7xx_hal_rtc_ex.c **** 
 280:Drivers/STM32F7xx_HAL_Driver/Src/stm32f7xx_hal_rtc_ex.c ****   /* RTC Timestamp Interrupt Configuration: EXTI configuration */
 281:Drivers/STM32F7xx_HAL_Driver/Src/stm32f7xx_hal_rtc_ex.c ****   __HAL_RTC_TAMPER_TIMESTAMP_EXTI_ENABLE_IT();
 284              		.loc 1 281 3 discriminator 2 view .LVU97
 285 006e 094A     		ldr	r2, .L17+4
 286 0070 1168     		ldr	r1, [r2]
 287 0072 41F40011 		orr	r1, r1, #2097152
 288 0076 1160     		str	r1, [r2]
 282:Drivers/STM32F7xx_HAL_Driver/Src/stm32f7xx_hal_rtc_ex.c ****   __HAL_RTC_TAMPER_TIMESTAMP_EXTI_ENABLE_RISING_EDGE();
ARM GAS  /tmp/ccxe0t7k.s 			page 11


 289              		.loc 1 282 3 discriminator 2 view .LVU98
 290 0078 9168     		ldr	r1, [r2, #8]
 291 007a 41F40011 		orr	r1, r1, #2097152
 292 007e 9160     		str	r1, [r2, #8]
 283:Drivers/STM32F7xx_HAL_Driver/Src/stm32f7xx_hal_rtc_ex.c **** 
 284:Drivers/STM32F7xx_HAL_Driver/Src/stm32f7xx_hal_rtc_ex.c ****   /* Change RTC state back to READY */
 285:Drivers/STM32F7xx_HAL_Driver/Src/stm32f7xx_hal_rtc_ex.c ****   hrtc->State = HAL_RTC_STATE_READY;
 293              		.loc 1 285 3 discriminator 2 view .LVU99
 294              		.loc 1 285 15 is_stmt 0 discriminator 2 view .LVU100
 295 0080 5877     		strb	r0, [r3, #29]
 286:Drivers/STM32F7xx_HAL_Driver/Src/stm32f7xx_hal_rtc_ex.c **** 
 287:Drivers/STM32F7xx_HAL_Driver/Src/stm32f7xx_hal_rtc_ex.c ****   /* Process Unlocked */
 288:Drivers/STM32F7xx_HAL_Driver/Src/stm32f7xx_hal_rtc_ex.c ****   __HAL_UNLOCK(hrtc);
 296              		.loc 1 288 3 is_stmt 1 discriminator 2 view .LVU101
 297              		.loc 1 288 3 discriminator 2 view .LVU102
 298 0082 0020     		movs	r0, #0
 299 0084 1877     		strb	r0, [r3, #28]
 300              		.loc 1 288 3 discriminator 2 view .LVU103
 289:Drivers/STM32F7xx_HAL_Driver/Src/stm32f7xx_hal_rtc_ex.c **** 
 290:Drivers/STM32F7xx_HAL_Driver/Src/stm32f7xx_hal_rtc_ex.c ****   return HAL_OK;
 301              		.loc 1 290 3 discriminator 2 view .LVU104
 291:Drivers/STM32F7xx_HAL_Driver/Src/stm32f7xx_hal_rtc_ex.c **** }
 302              		.loc 1 291 1 is_stmt 0 discriminator 2 view .LVU105
 303 0086 30BC     		pop	{r4, r5}
 304              	.LCFI3:
 305              		.cfi_restore 5
 306              		.cfi_restore 4
 307              		.cfi_def_cfa_offset 0
 308              	.LVL18:
 309              		.loc 1 291 1 discriminator 2 view .LVU106
 310 0088 7047     		bx	lr
 311              	.LVL19:
 312              	.L12:
 245:Drivers/STM32F7xx_HAL_Driver/Src/stm32f7xx_hal_rtc_ex.c **** 
 313              		.loc 1 245 3 view .LVU107
 314 008a 0220     		movs	r0, #2
 315              		.loc 1 291 1 view .LVU108
 316 008c 7047     		bx	lr
 317              	.L18:
 318 008e 00BF     		.align	2
 319              	.L17:
 320 0090 F7F7FFFF 		.word	-2057
 321 0094 003C0140 		.word	1073822720
 322              		.cfi_endproc
 323              	.LFE142:
 325              		.section	.text.HAL_RTCEx_DeactivateTimeStamp,"ax",%progbits
 326              		.align	1
 327              		.global	HAL_RTCEx_DeactivateTimeStamp
 328              		.syntax unified
 329              		.thumb
 330              		.thumb_func
 332              	HAL_RTCEx_DeactivateTimeStamp:
 333              	.LVL20:
 334              	.LFB143:
 292:Drivers/STM32F7xx_HAL_Driver/Src/stm32f7xx_hal_rtc_ex.c **** 
 293:Drivers/STM32F7xx_HAL_Driver/Src/stm32f7xx_hal_rtc_ex.c **** /**
 294:Drivers/STM32F7xx_HAL_Driver/Src/stm32f7xx_hal_rtc_ex.c ****   * @brief  Deactivates Timestamp.
ARM GAS  /tmp/ccxe0t7k.s 			page 12


 295:Drivers/STM32F7xx_HAL_Driver/Src/stm32f7xx_hal_rtc_ex.c ****   * @param  hrtc pointer to a RTC_HandleTypeDef structure that contains
 296:Drivers/STM32F7xx_HAL_Driver/Src/stm32f7xx_hal_rtc_ex.c ****   *                the configuration information for RTC.
 297:Drivers/STM32F7xx_HAL_Driver/Src/stm32f7xx_hal_rtc_ex.c ****   * @retval HAL status
 298:Drivers/STM32F7xx_HAL_Driver/Src/stm32f7xx_hal_rtc_ex.c ****   */
 299:Drivers/STM32F7xx_HAL_Driver/Src/stm32f7xx_hal_rtc_ex.c **** HAL_StatusTypeDef HAL_RTCEx_DeactivateTimeStamp(RTC_HandleTypeDef *hrtc)
 300:Drivers/STM32F7xx_HAL_Driver/Src/stm32f7xx_hal_rtc_ex.c **** {
 335              		.loc 1 300 1 is_stmt 1 view -0
 336              		.cfi_startproc
 337              		@ args = 0, pretend = 0, frame = 0
 338              		@ frame_needed = 0, uses_anonymous_args = 0
 339              		@ link register save eliminated.
 301:Drivers/STM32F7xx_HAL_Driver/Src/stm32f7xx_hal_rtc_ex.c ****   uint32_t tmpreg = 0U;
 340              		.loc 1 301 3 view .LVU110
 302:Drivers/STM32F7xx_HAL_Driver/Src/stm32f7xx_hal_rtc_ex.c **** 
 303:Drivers/STM32F7xx_HAL_Driver/Src/stm32f7xx_hal_rtc_ex.c ****   /* Process Locked */
 304:Drivers/STM32F7xx_HAL_Driver/Src/stm32f7xx_hal_rtc_ex.c ****   __HAL_LOCK(hrtc);
 341              		.loc 1 304 3 view .LVU111
 342              		.loc 1 304 3 view .LVU112
 343 0000 027F     		ldrb	r2, [r0, #28]	@ zero_extendqisi2
 344 0002 012A     		cmp	r2, #1
 345 0004 1ED0     		beq	.L21
 300:Drivers/STM32F7xx_HAL_Driver/Src/stm32f7xx_hal_rtc_ex.c ****   uint32_t tmpreg = 0U;
 346              		.loc 1 300 1 is_stmt 0 discriminator 2 view .LVU113
 347 0006 10B4     		push	{r4}
 348              	.LCFI4:
 349              		.cfi_def_cfa_offset 4
 350              		.cfi_offset 4, -4
 351 0008 0346     		mov	r3, r0
 352              		.loc 1 304 3 is_stmt 1 discriminator 2 view .LVU114
 353 000a 0121     		movs	r1, #1
 354 000c 0177     		strb	r1, [r0, #28]
 355              		.loc 1 304 3 discriminator 2 view .LVU115
 305:Drivers/STM32F7xx_HAL_Driver/Src/stm32f7xx_hal_rtc_ex.c **** 
 306:Drivers/STM32F7xx_HAL_Driver/Src/stm32f7xx_hal_rtc_ex.c ****   hrtc->State = HAL_RTC_STATE_BUSY;
 356              		.loc 1 306 3 discriminator 2 view .LVU116
 357              		.loc 1 306 15 is_stmt 0 discriminator 2 view .LVU117
 358 000e 0222     		movs	r2, #2
 359 0010 4277     		strb	r2, [r0, #29]
 307:Drivers/STM32F7xx_HAL_Driver/Src/stm32f7xx_hal_rtc_ex.c **** 
 308:Drivers/STM32F7xx_HAL_Driver/Src/stm32f7xx_hal_rtc_ex.c ****   /* Disable the write protection for RTC registers */
 309:Drivers/STM32F7xx_HAL_Driver/Src/stm32f7xx_hal_rtc_ex.c ****   __HAL_RTC_WRITEPROTECTION_DISABLE(hrtc);
 360              		.loc 1 309 3 is_stmt 1 discriminator 2 view .LVU118
 361              		.loc 1 309 3 discriminator 2 view .LVU119
 362 0012 0268     		ldr	r2, [r0]
 363 0014 CA20     		movs	r0, #202
 364              	.LVL21:
 365              		.loc 1 309 3 is_stmt 0 discriminator 2 view .LVU120
 366 0016 5062     		str	r0, [r2, #36]
 367              		.loc 1 309 3 is_stmt 1 discriminator 2 view .LVU121
 368 0018 1A68     		ldr	r2, [r3]
 369 001a 5320     		movs	r0, #83
 370 001c 5062     		str	r0, [r2, #36]
 371              		.loc 1 309 3 discriminator 2 view .LVU122
 310:Drivers/STM32F7xx_HAL_Driver/Src/stm32f7xx_hal_rtc_ex.c **** 
 311:Drivers/STM32F7xx_HAL_Driver/Src/stm32f7xx_hal_rtc_ex.c ****   /* In case of interrupt mode is used, the interrupt source must disabled */
 312:Drivers/STM32F7xx_HAL_Driver/Src/stm32f7xx_hal_rtc_ex.c ****   __HAL_RTC_TIMESTAMP_DISABLE_IT(hrtc, RTC_IT_TS);
 372              		.loc 1 312 3 discriminator 2 view .LVU123
ARM GAS  /tmp/ccxe0t7k.s 			page 13


 373 001e 1868     		ldr	r0, [r3]
 374 0020 8268     		ldr	r2, [r0, #8]
 375 0022 22F40042 		bic	r2, r2, #32768
 376 0026 8260     		str	r2, [r0, #8]
 313:Drivers/STM32F7xx_HAL_Driver/Src/stm32f7xx_hal_rtc_ex.c **** 
 314:Drivers/STM32F7xx_HAL_Driver/Src/stm32f7xx_hal_rtc_ex.c ****   /* Get the RTC_CR register and clear the bits to be configured */
 315:Drivers/STM32F7xx_HAL_Driver/Src/stm32f7xx_hal_rtc_ex.c ****   tmpreg = (uint32_t)(hrtc->Instance->CR & (uint32_t)~(RTC_CR_TSEDGE | RTC_CR_TSE));
 377              		.loc 1 315 3 discriminator 2 view .LVU124
 378              		.loc 1 315 27 is_stmt 0 discriminator 2 view .LVU125
 379 0028 1868     		ldr	r0, [r3]
 380              		.loc 1 315 37 discriminator 2 view .LVU126
 381 002a 8468     		ldr	r4, [r0, #8]
 382              		.loc 1 315 10 discriminator 2 view .LVU127
 383 002c 064A     		ldr	r2, .L26
 384 002e 2240     		ands	r2, r2, r4
 385              	.LVL22:
 316:Drivers/STM32F7xx_HAL_Driver/Src/stm32f7xx_hal_rtc_ex.c **** 
 317:Drivers/STM32F7xx_HAL_Driver/Src/stm32f7xx_hal_rtc_ex.c ****   /* Configure the Timestamp TSEDGE and Enable bits */
 318:Drivers/STM32F7xx_HAL_Driver/Src/stm32f7xx_hal_rtc_ex.c ****   hrtc->Instance->CR = (uint32_t)tmpreg;
 386              		.loc 1 318 3 is_stmt 1 discriminator 2 view .LVU128
 387              		.loc 1 318 22 is_stmt 0 discriminator 2 view .LVU129
 388 0030 8260     		str	r2, [r0, #8]
 319:Drivers/STM32F7xx_HAL_Driver/Src/stm32f7xx_hal_rtc_ex.c **** 
 320:Drivers/STM32F7xx_HAL_Driver/Src/stm32f7xx_hal_rtc_ex.c ****   /* Enable the write protection for RTC registers */
 321:Drivers/STM32F7xx_HAL_Driver/Src/stm32f7xx_hal_rtc_ex.c ****   __HAL_RTC_WRITEPROTECTION_ENABLE(hrtc);
 389              		.loc 1 321 3 is_stmt 1 discriminator 2 view .LVU130
 390              		.loc 1 321 3 discriminator 2 view .LVU131
 391 0032 1A68     		ldr	r2, [r3]
 392              	.LVL23:
 393              		.loc 1 321 3 is_stmt 0 discriminator 2 view .LVU132
 394 0034 FF20     		movs	r0, #255
 395              	.LVL24:
 396              		.loc 1 321 3 discriminator 2 view .LVU133
 397 0036 5062     		str	r0, [r2, #36]
 398              		.loc 1 321 3 is_stmt 1 discriminator 2 view .LVU134
 322:Drivers/STM32F7xx_HAL_Driver/Src/stm32f7xx_hal_rtc_ex.c **** 
 323:Drivers/STM32F7xx_HAL_Driver/Src/stm32f7xx_hal_rtc_ex.c ****   hrtc->State = HAL_RTC_STATE_READY;
 399              		.loc 1 323 3 discriminator 2 view .LVU135
 400              		.loc 1 323 15 is_stmt 0 discriminator 2 view .LVU136
 401 0038 5977     		strb	r1, [r3, #29]
 324:Drivers/STM32F7xx_HAL_Driver/Src/stm32f7xx_hal_rtc_ex.c **** 
 325:Drivers/STM32F7xx_HAL_Driver/Src/stm32f7xx_hal_rtc_ex.c ****   /* Process Unlocked */
 326:Drivers/STM32F7xx_HAL_Driver/Src/stm32f7xx_hal_rtc_ex.c ****   __HAL_UNLOCK(hrtc);
 402              		.loc 1 326 3 is_stmt 1 discriminator 2 view .LVU137
 403              		.loc 1 326 3 discriminator 2 view .LVU138
 404 003a 0020     		movs	r0, #0
 405 003c 1877     		strb	r0, [r3, #28]
 406              		.loc 1 326 3 discriminator 2 view .LVU139
 327:Drivers/STM32F7xx_HAL_Driver/Src/stm32f7xx_hal_rtc_ex.c **** 
 328:Drivers/STM32F7xx_HAL_Driver/Src/stm32f7xx_hal_rtc_ex.c ****   return HAL_OK;
 407              		.loc 1 328 3 discriminator 2 view .LVU140
 329:Drivers/STM32F7xx_HAL_Driver/Src/stm32f7xx_hal_rtc_ex.c **** }
 408              		.loc 1 329 1 is_stmt 0 discriminator 2 view .LVU141
 409 003e 5DF8044B 		ldr	r4, [sp], #4
 410              	.LCFI5:
 411              		.cfi_restore 4
 412              		.cfi_def_cfa_offset 0
ARM GAS  /tmp/ccxe0t7k.s 			page 14


 413              	.LVL25:
 414              		.loc 1 329 1 discriminator 2 view .LVU142
 415 0042 7047     		bx	lr
 416              	.LVL26:
 417              	.L21:
 304:Drivers/STM32F7xx_HAL_Driver/Src/stm32f7xx_hal_rtc_ex.c **** 
 418              		.loc 1 304 3 view .LVU143
 419 0044 0220     		movs	r0, #2
 420              	.LVL27:
 421              		.loc 1 329 1 view .LVU144
 422 0046 7047     		bx	lr
 423              	.L27:
 424              		.align	2
 425              	.L26:
 426 0048 F7F7FFFF 		.word	-2057
 427              		.cfi_endproc
 428              	.LFE143:
 430              		.section	.text.HAL_RTCEx_SetInternalTimeStamp,"ax",%progbits
 431              		.align	1
 432              		.global	HAL_RTCEx_SetInternalTimeStamp
 433              		.syntax unified
 434              		.thumb
 435              		.thumb_func
 437              	HAL_RTCEx_SetInternalTimeStamp:
 438              	.LVL28:
 439              	.LFB144:
 330:Drivers/STM32F7xx_HAL_Driver/Src/stm32f7xx_hal_rtc_ex.c **** 
 331:Drivers/STM32F7xx_HAL_Driver/Src/stm32f7xx_hal_rtc_ex.c **** /**
 332:Drivers/STM32F7xx_HAL_Driver/Src/stm32f7xx_hal_rtc_ex.c ****   * @brief  Sets Internal Timestamp.
 333:Drivers/STM32F7xx_HAL_Driver/Src/stm32f7xx_hal_rtc_ex.c ****   * @note   This API must be called before enabling the internal Timestamp feature.
 334:Drivers/STM32F7xx_HAL_Driver/Src/stm32f7xx_hal_rtc_ex.c ****   * @param  hrtc pointer to a RTC_HandleTypeDef structure that contains
 335:Drivers/STM32F7xx_HAL_Driver/Src/stm32f7xx_hal_rtc_ex.c ****   *                the configuration information for RTC.
 336:Drivers/STM32F7xx_HAL_Driver/Src/stm32f7xx_hal_rtc_ex.c ****   * @retval HAL status
 337:Drivers/STM32F7xx_HAL_Driver/Src/stm32f7xx_hal_rtc_ex.c ****   */
 338:Drivers/STM32F7xx_HAL_Driver/Src/stm32f7xx_hal_rtc_ex.c **** HAL_StatusTypeDef HAL_RTCEx_SetInternalTimeStamp(RTC_HandleTypeDef *hrtc)
 339:Drivers/STM32F7xx_HAL_Driver/Src/stm32f7xx_hal_rtc_ex.c **** {
 440              		.loc 1 339 1 is_stmt 1 view -0
 441              		.cfi_startproc
 442              		@ args = 0, pretend = 0, frame = 0
 443              		@ frame_needed = 0, uses_anonymous_args = 0
 444              		@ link register save eliminated.
 340:Drivers/STM32F7xx_HAL_Driver/Src/stm32f7xx_hal_rtc_ex.c ****   /* Process Locked */
 341:Drivers/STM32F7xx_HAL_Driver/Src/stm32f7xx_hal_rtc_ex.c ****   __HAL_LOCK(hrtc);
 445              		.loc 1 341 3 view .LVU146
 446              		.loc 1 341 3 view .LVU147
 447 0000 037F     		ldrb	r3, [r0, #28]	@ zero_extendqisi2
 448 0002 012B     		cmp	r3, #1
 449 0004 16D0     		beq	.L30
 450              		.loc 1 341 3 discriminator 2 view .LVU148
 451 0006 0122     		movs	r2, #1
 452 0008 0277     		strb	r2, [r0, #28]
 453              		.loc 1 341 3 discriminator 2 view .LVU149
 342:Drivers/STM32F7xx_HAL_Driver/Src/stm32f7xx_hal_rtc_ex.c **** 
 343:Drivers/STM32F7xx_HAL_Driver/Src/stm32f7xx_hal_rtc_ex.c ****   hrtc->State = HAL_RTC_STATE_BUSY;
 454              		.loc 1 343 3 discriminator 2 view .LVU150
 455              		.loc 1 343 15 is_stmt 0 discriminator 2 view .LVU151
 456 000a 0223     		movs	r3, #2
ARM GAS  /tmp/ccxe0t7k.s 			page 15


 457 000c 4377     		strb	r3, [r0, #29]
 344:Drivers/STM32F7xx_HAL_Driver/Src/stm32f7xx_hal_rtc_ex.c **** 
 345:Drivers/STM32F7xx_HAL_Driver/Src/stm32f7xx_hal_rtc_ex.c ****   /* Disable the write protection for RTC registers */
 346:Drivers/STM32F7xx_HAL_Driver/Src/stm32f7xx_hal_rtc_ex.c ****   __HAL_RTC_WRITEPROTECTION_DISABLE(hrtc);
 458              		.loc 1 346 3 is_stmt 1 discriminator 2 view .LVU152
 459              		.loc 1 346 3 discriminator 2 view .LVU153
 460 000e 0368     		ldr	r3, [r0]
 461 0010 CA21     		movs	r1, #202
 462 0012 5962     		str	r1, [r3, #36]
 463              		.loc 1 346 3 discriminator 2 view .LVU154
 464 0014 0368     		ldr	r3, [r0]
 465 0016 5321     		movs	r1, #83
 466 0018 5962     		str	r1, [r3, #36]
 467              		.loc 1 346 3 discriminator 2 view .LVU155
 347:Drivers/STM32F7xx_HAL_Driver/Src/stm32f7xx_hal_rtc_ex.c **** 
 348:Drivers/STM32F7xx_HAL_Driver/Src/stm32f7xx_hal_rtc_ex.c ****   /* Configure the internal Timestamp Enable bits */
 349:Drivers/STM32F7xx_HAL_Driver/Src/stm32f7xx_hal_rtc_ex.c ****   __HAL_RTC_INTERNAL_TIMESTAMP_ENABLE(hrtc);
 468              		.loc 1 349 3 discriminator 2 view .LVU156
 469 001a 0168     		ldr	r1, [r0]
 470 001c 8B68     		ldr	r3, [r1, #8]
 471 001e 43F08073 		orr	r3, r3, #16777216
 472 0022 8B60     		str	r3, [r1, #8]
 350:Drivers/STM32F7xx_HAL_Driver/Src/stm32f7xx_hal_rtc_ex.c **** 
 351:Drivers/STM32F7xx_HAL_Driver/Src/stm32f7xx_hal_rtc_ex.c ****   /* Enable the write protection for RTC registers */
 352:Drivers/STM32F7xx_HAL_Driver/Src/stm32f7xx_hal_rtc_ex.c ****   __HAL_RTC_WRITEPROTECTION_ENABLE(hrtc);
 473              		.loc 1 352 3 discriminator 2 view .LVU157
 474              		.loc 1 352 3 discriminator 2 view .LVU158
 475 0024 0368     		ldr	r3, [r0]
 476 0026 FF21     		movs	r1, #255
 477 0028 5962     		str	r1, [r3, #36]
 478              		.loc 1 352 3 discriminator 2 view .LVU159
 353:Drivers/STM32F7xx_HAL_Driver/Src/stm32f7xx_hal_rtc_ex.c **** 
 354:Drivers/STM32F7xx_HAL_Driver/Src/stm32f7xx_hal_rtc_ex.c ****   /* Change RTC state */
 355:Drivers/STM32F7xx_HAL_Driver/Src/stm32f7xx_hal_rtc_ex.c ****   hrtc->State = HAL_RTC_STATE_READY;
 479              		.loc 1 355 3 discriminator 2 view .LVU160
 480              		.loc 1 355 15 is_stmt 0 discriminator 2 view .LVU161
 481 002a 4277     		strb	r2, [r0, #29]
 356:Drivers/STM32F7xx_HAL_Driver/Src/stm32f7xx_hal_rtc_ex.c **** 
 357:Drivers/STM32F7xx_HAL_Driver/Src/stm32f7xx_hal_rtc_ex.c ****   /* Process Unlocked */
 358:Drivers/STM32F7xx_HAL_Driver/Src/stm32f7xx_hal_rtc_ex.c ****   __HAL_UNLOCK(hrtc);
 482              		.loc 1 358 3 is_stmt 1 discriminator 2 view .LVU162
 483              		.loc 1 358 3 discriminator 2 view .LVU163
 484 002c 0023     		movs	r3, #0
 485 002e 0377     		strb	r3, [r0, #28]
 486              		.loc 1 358 3 discriminator 2 view .LVU164
 359:Drivers/STM32F7xx_HAL_Driver/Src/stm32f7xx_hal_rtc_ex.c **** 
 360:Drivers/STM32F7xx_HAL_Driver/Src/stm32f7xx_hal_rtc_ex.c ****   return HAL_OK;
 487              		.loc 1 360 3 discriminator 2 view .LVU165
 488              		.loc 1 360 10 is_stmt 0 discriminator 2 view .LVU166
 489 0030 1846     		mov	r0, r3
 490              	.LVL29:
 491              		.loc 1 360 10 discriminator 2 view .LVU167
 492 0032 7047     		bx	lr
 493              	.LVL30:
 494              	.L30:
 341:Drivers/STM32F7xx_HAL_Driver/Src/stm32f7xx_hal_rtc_ex.c **** 
 495              		.loc 1 341 3 view .LVU168
ARM GAS  /tmp/ccxe0t7k.s 			page 16


 496 0034 0220     		movs	r0, #2
 497              	.LVL31:
 361:Drivers/STM32F7xx_HAL_Driver/Src/stm32f7xx_hal_rtc_ex.c **** }
 498              		.loc 1 361 1 view .LVU169
 499 0036 7047     		bx	lr
 500              		.cfi_endproc
 501              	.LFE144:
 503              		.section	.text.HAL_RTCEx_DeactivateInternalTimeStamp,"ax",%progbits
 504              		.align	1
 505              		.global	HAL_RTCEx_DeactivateInternalTimeStamp
 506              		.syntax unified
 507              		.thumb
 508              		.thumb_func
 510              	HAL_RTCEx_DeactivateInternalTimeStamp:
 511              	.LVL32:
 512              	.LFB145:
 362:Drivers/STM32F7xx_HAL_Driver/Src/stm32f7xx_hal_rtc_ex.c **** 
 363:Drivers/STM32F7xx_HAL_Driver/Src/stm32f7xx_hal_rtc_ex.c **** /**
 364:Drivers/STM32F7xx_HAL_Driver/Src/stm32f7xx_hal_rtc_ex.c ****   * @brief  Deactivates internal Timestamp.
 365:Drivers/STM32F7xx_HAL_Driver/Src/stm32f7xx_hal_rtc_ex.c ****   * @param  hrtc pointer to a RTC_HandleTypeDef structure that contains
 366:Drivers/STM32F7xx_HAL_Driver/Src/stm32f7xx_hal_rtc_ex.c ****   *                the configuration information for RTC.
 367:Drivers/STM32F7xx_HAL_Driver/Src/stm32f7xx_hal_rtc_ex.c ****   * @retval HAL status
 368:Drivers/STM32F7xx_HAL_Driver/Src/stm32f7xx_hal_rtc_ex.c ****   */
 369:Drivers/STM32F7xx_HAL_Driver/Src/stm32f7xx_hal_rtc_ex.c **** HAL_StatusTypeDef HAL_RTCEx_DeactivateInternalTimeStamp(RTC_HandleTypeDef *hrtc)
 370:Drivers/STM32F7xx_HAL_Driver/Src/stm32f7xx_hal_rtc_ex.c **** {
 513              		.loc 1 370 1 is_stmt 1 view -0
 514              		.cfi_startproc
 515              		@ args = 0, pretend = 0, frame = 0
 516              		@ frame_needed = 0, uses_anonymous_args = 0
 517              		@ link register save eliminated.
 371:Drivers/STM32F7xx_HAL_Driver/Src/stm32f7xx_hal_rtc_ex.c ****   /* Process Locked */
 372:Drivers/STM32F7xx_HAL_Driver/Src/stm32f7xx_hal_rtc_ex.c ****   __HAL_LOCK(hrtc);
 518              		.loc 1 372 3 view .LVU171
 519              		.loc 1 372 3 view .LVU172
 520 0000 037F     		ldrb	r3, [r0, #28]	@ zero_extendqisi2
 521 0002 012B     		cmp	r3, #1
 522 0004 16D0     		beq	.L33
 523              		.loc 1 372 3 discriminator 2 view .LVU173
 524 0006 0122     		movs	r2, #1
 525 0008 0277     		strb	r2, [r0, #28]
 526              		.loc 1 372 3 discriminator 2 view .LVU174
 373:Drivers/STM32F7xx_HAL_Driver/Src/stm32f7xx_hal_rtc_ex.c **** 
 374:Drivers/STM32F7xx_HAL_Driver/Src/stm32f7xx_hal_rtc_ex.c ****   hrtc->State = HAL_RTC_STATE_BUSY;
 527              		.loc 1 374 3 discriminator 2 view .LVU175
 528              		.loc 1 374 15 is_stmt 0 discriminator 2 view .LVU176
 529 000a 0223     		movs	r3, #2
 530 000c 4377     		strb	r3, [r0, #29]
 375:Drivers/STM32F7xx_HAL_Driver/Src/stm32f7xx_hal_rtc_ex.c **** 
 376:Drivers/STM32F7xx_HAL_Driver/Src/stm32f7xx_hal_rtc_ex.c ****   /* Disable the write protection for RTC registers */
 377:Drivers/STM32F7xx_HAL_Driver/Src/stm32f7xx_hal_rtc_ex.c ****   __HAL_RTC_WRITEPROTECTION_DISABLE(hrtc);
 531              		.loc 1 377 3 is_stmt 1 discriminator 2 view .LVU177
 532              		.loc 1 377 3 discriminator 2 view .LVU178
 533 000e 0368     		ldr	r3, [r0]
 534 0010 CA21     		movs	r1, #202
 535 0012 5962     		str	r1, [r3, #36]
 536              		.loc 1 377 3 discriminator 2 view .LVU179
 537 0014 0368     		ldr	r3, [r0]
ARM GAS  /tmp/ccxe0t7k.s 			page 17


 538 0016 5321     		movs	r1, #83
 539 0018 5962     		str	r1, [r3, #36]
 540              		.loc 1 377 3 discriminator 2 view .LVU180
 378:Drivers/STM32F7xx_HAL_Driver/Src/stm32f7xx_hal_rtc_ex.c **** 
 379:Drivers/STM32F7xx_HAL_Driver/Src/stm32f7xx_hal_rtc_ex.c ****   /* Configure the internal Timestamp Enable bits */
 380:Drivers/STM32F7xx_HAL_Driver/Src/stm32f7xx_hal_rtc_ex.c ****   __HAL_RTC_INTERNAL_TIMESTAMP_DISABLE(hrtc);
 541              		.loc 1 380 3 discriminator 2 view .LVU181
 542 001a 0168     		ldr	r1, [r0]
 543 001c 8B68     		ldr	r3, [r1, #8]
 544 001e 23F08073 		bic	r3, r3, #16777216
 545 0022 8B60     		str	r3, [r1, #8]
 381:Drivers/STM32F7xx_HAL_Driver/Src/stm32f7xx_hal_rtc_ex.c **** 
 382:Drivers/STM32F7xx_HAL_Driver/Src/stm32f7xx_hal_rtc_ex.c ****   /* Enable the write protection for RTC registers */
 383:Drivers/STM32F7xx_HAL_Driver/Src/stm32f7xx_hal_rtc_ex.c ****   __HAL_RTC_WRITEPROTECTION_ENABLE(hrtc);
 546              		.loc 1 383 3 discriminator 2 view .LVU182
 547              		.loc 1 383 3 discriminator 2 view .LVU183
 548 0024 0368     		ldr	r3, [r0]
 549 0026 FF21     		movs	r1, #255
 550 0028 5962     		str	r1, [r3, #36]
 551              		.loc 1 383 3 discriminator 2 view .LVU184
 384:Drivers/STM32F7xx_HAL_Driver/Src/stm32f7xx_hal_rtc_ex.c **** 
 385:Drivers/STM32F7xx_HAL_Driver/Src/stm32f7xx_hal_rtc_ex.c ****   hrtc->State = HAL_RTC_STATE_READY;
 552              		.loc 1 385 3 discriminator 2 view .LVU185
 553              		.loc 1 385 15 is_stmt 0 discriminator 2 view .LVU186
 554 002a 4277     		strb	r2, [r0, #29]
 386:Drivers/STM32F7xx_HAL_Driver/Src/stm32f7xx_hal_rtc_ex.c **** 
 387:Drivers/STM32F7xx_HAL_Driver/Src/stm32f7xx_hal_rtc_ex.c ****   /* Process Unlocked */
 388:Drivers/STM32F7xx_HAL_Driver/Src/stm32f7xx_hal_rtc_ex.c ****   __HAL_UNLOCK(hrtc);
 555              		.loc 1 388 3 is_stmt 1 discriminator 2 view .LVU187
 556              		.loc 1 388 3 discriminator 2 view .LVU188
 557 002c 0023     		movs	r3, #0
 558 002e 0377     		strb	r3, [r0, #28]
 559              		.loc 1 388 3 discriminator 2 view .LVU189
 389:Drivers/STM32F7xx_HAL_Driver/Src/stm32f7xx_hal_rtc_ex.c **** 
 390:Drivers/STM32F7xx_HAL_Driver/Src/stm32f7xx_hal_rtc_ex.c ****   return HAL_OK;
 560              		.loc 1 390 3 discriminator 2 view .LVU190
 561              		.loc 1 390 10 is_stmt 0 discriminator 2 view .LVU191
 562 0030 1846     		mov	r0, r3
 563              	.LVL33:
 564              		.loc 1 390 10 discriminator 2 view .LVU192
 565 0032 7047     		bx	lr
 566              	.LVL34:
 567              	.L33:
 372:Drivers/STM32F7xx_HAL_Driver/Src/stm32f7xx_hal_rtc_ex.c **** 
 568              		.loc 1 372 3 view .LVU193
 569 0034 0220     		movs	r0, #2
 570              	.LVL35:
 391:Drivers/STM32F7xx_HAL_Driver/Src/stm32f7xx_hal_rtc_ex.c **** }
 571              		.loc 1 391 1 view .LVU194
 572 0036 7047     		bx	lr
 573              		.cfi_endproc
 574              	.LFE145:
 576              		.section	.text.HAL_RTCEx_GetTimeStamp,"ax",%progbits
 577              		.align	1
 578              		.global	HAL_RTCEx_GetTimeStamp
 579              		.syntax unified
 580              		.thumb
ARM GAS  /tmp/ccxe0t7k.s 			page 18


 581              		.thumb_func
 583              	HAL_RTCEx_GetTimeStamp:
 584              	.LVL36:
 585              	.LFB146:
 392:Drivers/STM32F7xx_HAL_Driver/Src/stm32f7xx_hal_rtc_ex.c **** 
 393:Drivers/STM32F7xx_HAL_Driver/Src/stm32f7xx_hal_rtc_ex.c **** /**
 394:Drivers/STM32F7xx_HAL_Driver/Src/stm32f7xx_hal_rtc_ex.c ****   * @brief  Gets the RTC Timestamp value.
 395:Drivers/STM32F7xx_HAL_Driver/Src/stm32f7xx_hal_rtc_ex.c ****   * @param  hrtc pointer to a RTC_HandleTypeDef structure that contains
 396:Drivers/STM32F7xx_HAL_Driver/Src/stm32f7xx_hal_rtc_ex.c ****   *                the configuration information for RTC.
 397:Drivers/STM32F7xx_HAL_Driver/Src/stm32f7xx_hal_rtc_ex.c ****   * @param  sTimeStamp Pointer to Time structure
 398:Drivers/STM32F7xx_HAL_Driver/Src/stm32f7xx_hal_rtc_ex.c ****   * @param  sTimeStampDate Pointer to Date structure
 399:Drivers/STM32F7xx_HAL_Driver/Src/stm32f7xx_hal_rtc_ex.c ****   * @param  Format specifies the format of the entered parameters.
 400:Drivers/STM32F7xx_HAL_Driver/Src/stm32f7xx_hal_rtc_ex.c ****   *          This parameter can be one of the following values:
 401:Drivers/STM32F7xx_HAL_Driver/Src/stm32f7xx_hal_rtc_ex.c ****   *             @arg RTC_FORMAT_BIN: Binary data format
 402:Drivers/STM32F7xx_HAL_Driver/Src/stm32f7xx_hal_rtc_ex.c ****   *             @arg RTC_FORMAT_BCD: BCD data format
 403:Drivers/STM32F7xx_HAL_Driver/Src/stm32f7xx_hal_rtc_ex.c ****   * @retval HAL status
 404:Drivers/STM32F7xx_HAL_Driver/Src/stm32f7xx_hal_rtc_ex.c ****   */
 405:Drivers/STM32F7xx_HAL_Driver/Src/stm32f7xx_hal_rtc_ex.c **** HAL_StatusTypeDef HAL_RTCEx_GetTimeStamp(RTC_HandleTypeDef *hrtc, RTC_TimeTypeDef *sTimeStamp, RTC_
 406:Drivers/STM32F7xx_HAL_Driver/Src/stm32f7xx_hal_rtc_ex.c **** {
 586              		.loc 1 406 1 is_stmt 1 view -0
 587              		.cfi_startproc
 588              		@ args = 0, pretend = 0, frame = 0
 589              		@ frame_needed = 0, uses_anonymous_args = 0
 590              		.loc 1 406 1 is_stmt 0 view .LVU196
 591 0000 70B5     		push	{r4, r5, r6, lr}
 592              	.LCFI6:
 593              		.cfi_def_cfa_offset 16
 594              		.cfi_offset 4, -16
 595              		.cfi_offset 5, -12
 596              		.cfi_offset 6, -8
 597              		.cfi_offset 14, -4
 598 0002 0646     		mov	r6, r0
 599 0004 0C46     		mov	r4, r1
 600 0006 1546     		mov	r5, r2
 407:Drivers/STM32F7xx_HAL_Driver/Src/stm32f7xx_hal_rtc_ex.c ****   uint32_t tmptime = 0U;
 601              		.loc 1 407 3 is_stmt 1 view .LVU197
 602              	.LVL37:
 408:Drivers/STM32F7xx_HAL_Driver/Src/stm32f7xx_hal_rtc_ex.c ****   uint32_t tmpdate = 0U;
 603              		.loc 1 408 3 view .LVU198
 409:Drivers/STM32F7xx_HAL_Driver/Src/stm32f7xx_hal_rtc_ex.c **** 
 410:Drivers/STM32F7xx_HAL_Driver/Src/stm32f7xx_hal_rtc_ex.c ****   /* Check the parameters */
 411:Drivers/STM32F7xx_HAL_Driver/Src/stm32f7xx_hal_rtc_ex.c ****   assert_param(IS_RTC_FORMAT(Format));
 604              		.loc 1 411 3 view .LVU199
 412:Drivers/STM32F7xx_HAL_Driver/Src/stm32f7xx_hal_rtc_ex.c **** 
 413:Drivers/STM32F7xx_HAL_Driver/Src/stm32f7xx_hal_rtc_ex.c ****   /* Get the Timestamp time and date registers values */
 414:Drivers/STM32F7xx_HAL_Driver/Src/stm32f7xx_hal_rtc_ex.c ****   tmptime = (uint32_t)(hrtc->Instance->TSTR & RTC_TR_RESERVED_MASK);
 605              		.loc 1 414 3 view .LVU200
 606              		.loc 1 414 28 is_stmt 0 view .LVU201
 607 0008 0168     		ldr	r1, [r0]
 608              	.LVL38:
 609              		.loc 1 414 38 view .LVU202
 610 000a 0A6B     		ldr	r2, [r1, #48]
 611              	.LVL39:
 415:Drivers/STM32F7xx_HAL_Driver/Src/stm32f7xx_hal_rtc_ex.c ****   tmpdate = (uint32_t)(hrtc->Instance->TSDR & RTC_DR_RESERVED_MASK);
 612              		.loc 1 415 3 is_stmt 1 view .LVU203
 613              		.loc 1 415 38 is_stmt 0 view .LVU204
 614 000c 496B     		ldr	r1, [r1, #52]
ARM GAS  /tmp/ccxe0t7k.s 			page 19


 615              	.LVL40:
 416:Drivers/STM32F7xx_HAL_Driver/Src/stm32f7xx_hal_rtc_ex.c **** 
 417:Drivers/STM32F7xx_HAL_Driver/Src/stm32f7xx_hal_rtc_ex.c ****   /* Fill the Time structure fields with the read parameters */
 418:Drivers/STM32F7xx_HAL_Driver/Src/stm32f7xx_hal_rtc_ex.c ****   sTimeStamp->Hours      = (uint8_t)((tmptime & (RTC_TSTR_HT  | RTC_TSTR_HU))  >> RTC_TSTR_HU_Pos);
 616              		.loc 1 418 3 is_stmt 1 view .LVU205
 617              		.loc 1 418 28 is_stmt 0 view .LVU206
 618 000e C2F30540 		ubfx	r0, r2, #16, #6
 619              	.LVL41:
 620              		.loc 1 418 26 view .LVU207
 621 0012 2070     		strb	r0, [r4]
 419:Drivers/STM32F7xx_HAL_Driver/Src/stm32f7xx_hal_rtc_ex.c ****   sTimeStamp->Minutes    = (uint8_t)((tmptime & (RTC_TSTR_MNT | RTC_TSTR_MNU)) >> RTC_TSTR_MNU_Pos)
 622              		.loc 1 419 3 is_stmt 1 view .LVU208
 623              		.loc 1 419 28 is_stmt 0 view .LVU209
 624 0014 C2F30620 		ubfx	r0, r2, #8, #7
 625              		.loc 1 419 26 view .LVU210
 626 0018 6070     		strb	r0, [r4, #1]
 420:Drivers/STM32F7xx_HAL_Driver/Src/stm32f7xx_hal_rtc_ex.c ****   sTimeStamp->Seconds    = (uint8_t)((tmptime & (RTC_TSTR_ST  | RTC_TSTR_SU))  >> RTC_TSTR_SU_Pos);
 627              		.loc 1 420 3 is_stmt 1 view .LVU211
 628              		.loc 1 420 28 is_stmt 0 view .LVU212
 629 001a 02F07F00 		and	r0, r2, #127
 630              		.loc 1 420 26 view .LVU213
 631 001e A070     		strb	r0, [r4, #2]
 421:Drivers/STM32F7xx_HAL_Driver/Src/stm32f7xx_hal_rtc_ex.c ****   sTimeStamp->TimeFormat = (uint8_t)((tmptime & (RTC_TSTR_PM))                 >> RTC_TSTR_PM_Pos);
 632              		.loc 1 421 3 is_stmt 1 view .LVU214
 633              		.loc 1 421 28 is_stmt 0 view .LVU215
 634 0020 C2F38052 		ubfx	r2, r2, #22, #1
 635              	.LVL42:
 636              		.loc 1 421 26 view .LVU216
 637 0024 E270     		strb	r2, [r4, #3]
 422:Drivers/STM32F7xx_HAL_Driver/Src/stm32f7xx_hal_rtc_ex.c ****   sTimeStamp->SubSeconds = (uint32_t) hrtc->Instance->TSSSR;
 638              		.loc 1 422 3 is_stmt 1 view .LVU217
 639              		.loc 1 422 43 is_stmt 0 view .LVU218
 640 0026 3268     		ldr	r2, [r6]
 641              		.loc 1 422 53 view .LVU219
 642 0028 926B     		ldr	r2, [r2, #56]
 643              		.loc 1 422 26 view .LVU220
 644 002a 6260     		str	r2, [r4, #4]
 423:Drivers/STM32F7xx_HAL_Driver/Src/stm32f7xx_hal_rtc_ex.c **** 
 424:Drivers/STM32F7xx_HAL_Driver/Src/stm32f7xx_hal_rtc_ex.c ****   /* Fill the Date structure fields with the read parameters */
 425:Drivers/STM32F7xx_HAL_Driver/Src/stm32f7xx_hal_rtc_ex.c ****   sTimeStampDate->Year    = 0U;
 645              		.loc 1 425 3 is_stmt 1 view .LVU221
 646              		.loc 1 425 27 is_stmt 0 view .LVU222
 647 002c 0022     		movs	r2, #0
 648 002e EA70     		strb	r2, [r5, #3]
 426:Drivers/STM32F7xx_HAL_Driver/Src/stm32f7xx_hal_rtc_ex.c ****   sTimeStampDate->Month   = (uint8_t)((tmpdate & (RTC_TSDR_MT | RTC_TSDR_MU)) >> RTC_TSDR_MU_Pos);
 649              		.loc 1 426 3 is_stmt 1 view .LVU223
 650              		.loc 1 426 29 is_stmt 0 view .LVU224
 651 0030 C1F30422 		ubfx	r2, r1, #8, #5
 652              		.loc 1 426 27 view .LVU225
 653 0034 6A70     		strb	r2, [r5, #1]
 427:Drivers/STM32F7xx_HAL_Driver/Src/stm32f7xx_hal_rtc_ex.c ****   sTimeStampDate->Date    = (uint8_t)((tmpdate & (RTC_TSDR_DT | RTC_TSDR_DU)) >> RTC_TSDR_DU_Pos);
 654              		.loc 1 427 3 is_stmt 1 view .LVU226
 655              		.loc 1 427 29 is_stmt 0 view .LVU227
 656 0036 01F03F02 		and	r2, r1, #63
 657              		.loc 1 427 27 view .LVU228
 658 003a AA70     		strb	r2, [r5, #2]
 428:Drivers/STM32F7xx_HAL_Driver/Src/stm32f7xx_hal_rtc_ex.c ****   sTimeStampDate->WeekDay = (uint8_t)((tmpdate & (RTC_TSDR_WDU))              >> RTC_TSDR_WDU_Pos);
ARM GAS  /tmp/ccxe0t7k.s 			page 20


 659              		.loc 1 428 3 is_stmt 1 view .LVU229
 660              		.loc 1 428 29 is_stmt 0 view .LVU230
 661 003c C1F34231 		ubfx	r1, r1, #13, #3
 662              	.LVL43:
 663              		.loc 1 428 27 view .LVU231
 664 0040 2970     		strb	r1, [r5]
 429:Drivers/STM32F7xx_HAL_Driver/Src/stm32f7xx_hal_rtc_ex.c **** 
 430:Drivers/STM32F7xx_HAL_Driver/Src/stm32f7xx_hal_rtc_ex.c ****   /* Check the input parameters format */
 431:Drivers/STM32F7xx_HAL_Driver/Src/stm32f7xx_hal_rtc_ex.c ****   if (Format == RTC_FORMAT_BIN)
 665              		.loc 1 431 3 is_stmt 1 view .LVU232
 666              		.loc 1 431 6 is_stmt 0 view .LVU233
 667 0042 6BB1     		cbz	r3, .L37
 668              	.LVL44:
 669              	.L35:
 432:Drivers/STM32F7xx_HAL_Driver/Src/stm32f7xx_hal_rtc_ex.c ****   {
 433:Drivers/STM32F7xx_HAL_Driver/Src/stm32f7xx_hal_rtc_ex.c ****     /* Convert the Timestamp structure parameters to Binary format */
 434:Drivers/STM32F7xx_HAL_Driver/Src/stm32f7xx_hal_rtc_ex.c ****     sTimeStamp->Hours   = (uint8_t)RTC_Bcd2ToByte(sTimeStamp->Hours);
 435:Drivers/STM32F7xx_HAL_Driver/Src/stm32f7xx_hal_rtc_ex.c ****     sTimeStamp->Minutes = (uint8_t)RTC_Bcd2ToByte(sTimeStamp->Minutes);
 436:Drivers/STM32F7xx_HAL_Driver/Src/stm32f7xx_hal_rtc_ex.c ****     sTimeStamp->Seconds = (uint8_t)RTC_Bcd2ToByte(sTimeStamp->Seconds);
 437:Drivers/STM32F7xx_HAL_Driver/Src/stm32f7xx_hal_rtc_ex.c **** 
 438:Drivers/STM32F7xx_HAL_Driver/Src/stm32f7xx_hal_rtc_ex.c ****     /* Convert the DateTimeStamp structure parameters to Binary format */
 439:Drivers/STM32F7xx_HAL_Driver/Src/stm32f7xx_hal_rtc_ex.c ****     sTimeStampDate->Month   = (uint8_t)RTC_Bcd2ToByte(sTimeStampDate->Month);
 440:Drivers/STM32F7xx_HAL_Driver/Src/stm32f7xx_hal_rtc_ex.c ****     sTimeStampDate->Date    = (uint8_t)RTC_Bcd2ToByte(sTimeStampDate->Date);
 441:Drivers/STM32F7xx_HAL_Driver/Src/stm32f7xx_hal_rtc_ex.c ****     sTimeStampDate->WeekDay = (uint8_t)RTC_Bcd2ToByte(sTimeStampDate->WeekDay);
 442:Drivers/STM32F7xx_HAL_Driver/Src/stm32f7xx_hal_rtc_ex.c ****   }
 443:Drivers/STM32F7xx_HAL_Driver/Src/stm32f7xx_hal_rtc_ex.c **** 
 444:Drivers/STM32F7xx_HAL_Driver/Src/stm32f7xx_hal_rtc_ex.c ****   /* Clear the internal Timestamp Flag */
 445:Drivers/STM32F7xx_HAL_Driver/Src/stm32f7xx_hal_rtc_ex.c ****   __HAL_RTC_INTERNAL_TIMESTAMP_CLEAR_FLAG(hrtc, RTC_FLAG_ITSF);
 670              		.loc 1 445 3 is_stmt 1 view .LVU234
 671 0044 3168     		ldr	r1, [r6]
 672 0046 CA68     		ldr	r2, [r1, #12]
 673 0048 D2B2     		uxtb	r2, r2
 674 004a 124B     		ldr	r3, .L38
 675 004c 1343     		orrs	r3, r3, r2
 676 004e CB60     		str	r3, [r1, #12]
 446:Drivers/STM32F7xx_HAL_Driver/Src/stm32f7xx_hal_rtc_ex.c **** 
 447:Drivers/STM32F7xx_HAL_Driver/Src/stm32f7xx_hal_rtc_ex.c ****   /* Clear the Timestamp Flag */
 448:Drivers/STM32F7xx_HAL_Driver/Src/stm32f7xx_hal_rtc_ex.c ****   __HAL_RTC_TIMESTAMP_CLEAR_FLAG(hrtc, RTC_FLAG_TSF);
 677              		.loc 1 448 3 view .LVU235
 678 0050 3268     		ldr	r2, [r6]
 679 0052 D368     		ldr	r3, [r2, #12]
 680 0054 DBB2     		uxtb	r3, r3
 681 0056 63F40863 		orn	r3, r3, #2176
 682 005a D360     		str	r3, [r2, #12]
 449:Drivers/STM32F7xx_HAL_Driver/Src/stm32f7xx_hal_rtc_ex.c **** 
 450:Drivers/STM32F7xx_HAL_Driver/Src/stm32f7xx_hal_rtc_ex.c ****   return HAL_OK;
 683              		.loc 1 450 3 view .LVU236
 451:Drivers/STM32F7xx_HAL_Driver/Src/stm32f7xx_hal_rtc_ex.c **** }
 684              		.loc 1 451 1 is_stmt 0 view .LVU237
 685 005c 0020     		movs	r0, #0
 686 005e 70BD     		pop	{r4, r5, r6, pc}
 687              	.LVL45:
 688              	.L37:
 434:Drivers/STM32F7xx_HAL_Driver/Src/stm32f7xx_hal_rtc_ex.c ****     sTimeStamp->Minutes = (uint8_t)RTC_Bcd2ToByte(sTimeStamp->Minutes);
 689              		.loc 1 434 5 is_stmt 1 view .LVU238
 434:Drivers/STM32F7xx_HAL_Driver/Src/stm32f7xx_hal_rtc_ex.c ****     sTimeStamp->Minutes = (uint8_t)RTC_Bcd2ToByte(sTimeStamp->Minutes);
 690              		.loc 1 434 36 is_stmt 0 view .LVU239
ARM GAS  /tmp/ccxe0t7k.s 			page 21


 691 0060 2078     		ldrb	r0, [r4]	@ zero_extendqisi2
 692 0062 FFF7FEFF 		bl	RTC_Bcd2ToByte
 693              	.LVL46:
 434:Drivers/STM32F7xx_HAL_Driver/Src/stm32f7xx_hal_rtc_ex.c ****     sTimeStamp->Minutes = (uint8_t)RTC_Bcd2ToByte(sTimeStamp->Minutes);
 694              		.loc 1 434 25 view .LVU240
 695 0066 2070     		strb	r0, [r4]
 435:Drivers/STM32F7xx_HAL_Driver/Src/stm32f7xx_hal_rtc_ex.c ****     sTimeStamp->Seconds = (uint8_t)RTC_Bcd2ToByte(sTimeStamp->Seconds);
 696              		.loc 1 435 5 is_stmt 1 view .LVU241
 435:Drivers/STM32F7xx_HAL_Driver/Src/stm32f7xx_hal_rtc_ex.c ****     sTimeStamp->Seconds = (uint8_t)RTC_Bcd2ToByte(sTimeStamp->Seconds);
 697              		.loc 1 435 36 is_stmt 0 view .LVU242
 698 0068 6078     		ldrb	r0, [r4, #1]	@ zero_extendqisi2
 699 006a FFF7FEFF 		bl	RTC_Bcd2ToByte
 700              	.LVL47:
 435:Drivers/STM32F7xx_HAL_Driver/Src/stm32f7xx_hal_rtc_ex.c ****     sTimeStamp->Seconds = (uint8_t)RTC_Bcd2ToByte(sTimeStamp->Seconds);
 701              		.loc 1 435 25 view .LVU243
 702 006e 6070     		strb	r0, [r4, #1]
 436:Drivers/STM32F7xx_HAL_Driver/Src/stm32f7xx_hal_rtc_ex.c **** 
 703              		.loc 1 436 5 is_stmt 1 view .LVU244
 436:Drivers/STM32F7xx_HAL_Driver/Src/stm32f7xx_hal_rtc_ex.c **** 
 704              		.loc 1 436 36 is_stmt 0 view .LVU245
 705 0070 A078     		ldrb	r0, [r4, #2]	@ zero_extendqisi2
 706 0072 FFF7FEFF 		bl	RTC_Bcd2ToByte
 707              	.LVL48:
 436:Drivers/STM32F7xx_HAL_Driver/Src/stm32f7xx_hal_rtc_ex.c **** 
 708              		.loc 1 436 25 view .LVU246
 709 0076 A070     		strb	r0, [r4, #2]
 439:Drivers/STM32F7xx_HAL_Driver/Src/stm32f7xx_hal_rtc_ex.c ****     sTimeStampDate->Date    = (uint8_t)RTC_Bcd2ToByte(sTimeStampDate->Date);
 710              		.loc 1 439 5 is_stmt 1 view .LVU247
 439:Drivers/STM32F7xx_HAL_Driver/Src/stm32f7xx_hal_rtc_ex.c ****     sTimeStampDate->Date    = (uint8_t)RTC_Bcd2ToByte(sTimeStampDate->Date);
 711              		.loc 1 439 40 is_stmt 0 view .LVU248
 712 0078 6878     		ldrb	r0, [r5, #1]	@ zero_extendqisi2
 713 007a FFF7FEFF 		bl	RTC_Bcd2ToByte
 714              	.LVL49:
 439:Drivers/STM32F7xx_HAL_Driver/Src/stm32f7xx_hal_rtc_ex.c ****     sTimeStampDate->Date    = (uint8_t)RTC_Bcd2ToByte(sTimeStampDate->Date);
 715              		.loc 1 439 29 view .LVU249
 716 007e 6870     		strb	r0, [r5, #1]
 440:Drivers/STM32F7xx_HAL_Driver/Src/stm32f7xx_hal_rtc_ex.c ****     sTimeStampDate->WeekDay = (uint8_t)RTC_Bcd2ToByte(sTimeStampDate->WeekDay);
 717              		.loc 1 440 5 is_stmt 1 view .LVU250
 440:Drivers/STM32F7xx_HAL_Driver/Src/stm32f7xx_hal_rtc_ex.c ****     sTimeStampDate->WeekDay = (uint8_t)RTC_Bcd2ToByte(sTimeStampDate->WeekDay);
 718              		.loc 1 440 40 is_stmt 0 view .LVU251
 719 0080 A878     		ldrb	r0, [r5, #2]	@ zero_extendqisi2
 720 0082 FFF7FEFF 		bl	RTC_Bcd2ToByte
 721              	.LVL50:
 440:Drivers/STM32F7xx_HAL_Driver/Src/stm32f7xx_hal_rtc_ex.c ****     sTimeStampDate->WeekDay = (uint8_t)RTC_Bcd2ToByte(sTimeStampDate->WeekDay);
 722              		.loc 1 440 29 view .LVU252
 723 0086 A870     		strb	r0, [r5, #2]
 441:Drivers/STM32F7xx_HAL_Driver/Src/stm32f7xx_hal_rtc_ex.c ****   }
 724              		.loc 1 441 5 is_stmt 1 view .LVU253
 441:Drivers/STM32F7xx_HAL_Driver/Src/stm32f7xx_hal_rtc_ex.c ****   }
 725              		.loc 1 441 40 is_stmt 0 view .LVU254
 726 0088 2878     		ldrb	r0, [r5]	@ zero_extendqisi2
 727 008a FFF7FEFF 		bl	RTC_Bcd2ToByte
 728              	.LVL51:
 441:Drivers/STM32F7xx_HAL_Driver/Src/stm32f7xx_hal_rtc_ex.c ****   }
 729              		.loc 1 441 29 view .LVU255
 730 008e 2870     		strb	r0, [r5]
 731 0090 D8E7     		b	.L35
ARM GAS  /tmp/ccxe0t7k.s 			page 22


 732              	.L39:
 733 0092 00BF     		.align	2
 734              	.L38:
 735 0094 7FFFFDFF 		.word	-131201
 736              		.cfi_endproc
 737              	.LFE146:
 739              		.section	.text.HAL_RTCEx_SetTamper,"ax",%progbits
 740              		.align	1
 741              		.global	HAL_RTCEx_SetTamper
 742              		.syntax unified
 743              		.thumb
 744              		.thumb_func
 746              	HAL_RTCEx_SetTamper:
 747              	.LVL52:
 748              	.LFB147:
 452:Drivers/STM32F7xx_HAL_Driver/Src/stm32f7xx_hal_rtc_ex.c **** 
 453:Drivers/STM32F7xx_HAL_Driver/Src/stm32f7xx_hal_rtc_ex.c **** /**
 454:Drivers/STM32F7xx_HAL_Driver/Src/stm32f7xx_hal_rtc_ex.c ****   * @brief  Sets Tamper.
 455:Drivers/STM32F7xx_HAL_Driver/Src/stm32f7xx_hal_rtc_ex.c ****   * @note   By calling this API the tamper global interrupt will be disabled and
 456:Drivers/STM32F7xx_HAL_Driver/Src/stm32f7xx_hal_rtc_ex.c ****   *         the selected tamper's interrupt as well.
 457:Drivers/STM32F7xx_HAL_Driver/Src/stm32f7xx_hal_rtc_ex.c ****   * @param  hrtc pointer to a RTC_HandleTypeDef structure that contains
 458:Drivers/STM32F7xx_HAL_Driver/Src/stm32f7xx_hal_rtc_ex.c ****   *                the configuration information for RTC.
 459:Drivers/STM32F7xx_HAL_Driver/Src/stm32f7xx_hal_rtc_ex.c ****   * @param  sTamper Pointer to Tamper Structure.
 460:Drivers/STM32F7xx_HAL_Driver/Src/stm32f7xx_hal_rtc_ex.c ****   * @retval HAL status
 461:Drivers/STM32F7xx_HAL_Driver/Src/stm32f7xx_hal_rtc_ex.c ****   */
 462:Drivers/STM32F7xx_HAL_Driver/Src/stm32f7xx_hal_rtc_ex.c **** HAL_StatusTypeDef HAL_RTCEx_SetTamper(RTC_HandleTypeDef *hrtc, RTC_TamperTypeDef *sTamper)
 463:Drivers/STM32F7xx_HAL_Driver/Src/stm32f7xx_hal_rtc_ex.c **** {
 749              		.loc 1 463 1 is_stmt 1 view -0
 750              		.cfi_startproc
 751              		@ args = 0, pretend = 0, frame = 0
 752              		@ frame_needed = 0, uses_anonymous_args = 0
 753              		@ link register save eliminated.
 464:Drivers/STM32F7xx_HAL_Driver/Src/stm32f7xx_hal_rtc_ex.c ****   uint32_t tmpreg = 0U;
 754              		.loc 1 464 3 view .LVU257
 465:Drivers/STM32F7xx_HAL_Driver/Src/stm32f7xx_hal_rtc_ex.c **** 
 466:Drivers/STM32F7xx_HAL_Driver/Src/stm32f7xx_hal_rtc_ex.c ****   /* Check the parameters */
 467:Drivers/STM32F7xx_HAL_Driver/Src/stm32f7xx_hal_rtc_ex.c ****   assert_param(IS_RTC_TAMPER(sTamper->Tamper));
 755              		.loc 1 467 3 view .LVU258
 468:Drivers/STM32F7xx_HAL_Driver/Src/stm32f7xx_hal_rtc_ex.c ****   assert_param(IS_RTC_TAMPER_TRIGGER(sTamper->Trigger));
 756              		.loc 1 468 3 view .LVU259
 469:Drivers/STM32F7xx_HAL_Driver/Src/stm32f7xx_hal_rtc_ex.c ****   assert_param(IS_RTC_TAMPER_ERASE_MODE(sTamper->NoErase));
 757              		.loc 1 469 3 view .LVU260
 470:Drivers/STM32F7xx_HAL_Driver/Src/stm32f7xx_hal_rtc_ex.c ****   assert_param(IS_RTC_TAMPER_MASKFLAG_STATE(sTamper->MaskFlag));
 758              		.loc 1 470 3 view .LVU261
 471:Drivers/STM32F7xx_HAL_Driver/Src/stm32f7xx_hal_rtc_ex.c ****   assert_param(IS_RTC_TAMPER_FILTER(sTamper->Filter));
 759              		.loc 1 471 3 view .LVU262
 472:Drivers/STM32F7xx_HAL_Driver/Src/stm32f7xx_hal_rtc_ex.c ****   assert_param(IS_RTC_TAMPER_FILTER_CONFIG_CORRECT(sTamper->Filter, sTamper->Trigger));
 760              		.loc 1 472 3 view .LVU263
 473:Drivers/STM32F7xx_HAL_Driver/Src/stm32f7xx_hal_rtc_ex.c ****   assert_param(IS_RTC_TAMPER_SAMPLING_FREQ(sTamper->SamplingFrequency));
 761              		.loc 1 473 3 view .LVU264
 474:Drivers/STM32F7xx_HAL_Driver/Src/stm32f7xx_hal_rtc_ex.c ****   assert_param(IS_RTC_TAMPER_PRECHARGE_DURATION(sTamper->PrechargeDuration));
 762              		.loc 1 474 3 view .LVU265
 475:Drivers/STM32F7xx_HAL_Driver/Src/stm32f7xx_hal_rtc_ex.c ****   assert_param(IS_RTC_TAMPER_PULLUP_STATE(sTamper->TamperPullUp));
 763              		.loc 1 475 3 view .LVU266
 476:Drivers/STM32F7xx_HAL_Driver/Src/stm32f7xx_hal_rtc_ex.c ****   assert_param(IS_RTC_TAMPER_TIMESTAMPONTAMPER_DETECTION(sTamper->TimeStampOnTamperDetection));
 764              		.loc 1 476 3 view .LVU267
 477:Drivers/STM32F7xx_HAL_Driver/Src/stm32f7xx_hal_rtc_ex.c **** 
ARM GAS  /tmp/ccxe0t7k.s 			page 23


 478:Drivers/STM32F7xx_HAL_Driver/Src/stm32f7xx_hal_rtc_ex.c ****   /* Process Locked */
 479:Drivers/STM32F7xx_HAL_Driver/Src/stm32f7xx_hal_rtc_ex.c ****   __HAL_LOCK(hrtc);
 765              		.loc 1 479 3 view .LVU268
 766              		.loc 1 479 3 view .LVU269
 767 0000 037F     		ldrb	r3, [r0, #28]	@ zero_extendqisi2
 768 0002 012B     		cmp	r3, #1
 769 0004 79D0     		beq	.L59
 463:Drivers/STM32F7xx_HAL_Driver/Src/stm32f7xx_hal_rtc_ex.c ****   uint32_t tmpreg = 0U;
 770              		.loc 1 463 1 is_stmt 0 discriminator 2 view .LVU270
 771 0006 70B4     		push	{r4, r5, r6}
 772              	.LCFI7:
 773              		.cfi_def_cfa_offset 12
 774              		.cfi_offset 4, -12
 775              		.cfi_offset 5, -8
 776              		.cfi_offset 6, -4
 777 0008 0246     		mov	r2, r0
 778              		.loc 1 479 3 is_stmt 1 discriminator 2 view .LVU271
 779 000a 0123     		movs	r3, #1
 780 000c 0377     		strb	r3, [r0, #28]
 781              		.loc 1 479 3 discriminator 2 view .LVU272
 480:Drivers/STM32F7xx_HAL_Driver/Src/stm32f7xx_hal_rtc_ex.c **** 
 481:Drivers/STM32F7xx_HAL_Driver/Src/stm32f7xx_hal_rtc_ex.c ****   hrtc->State = HAL_RTC_STATE_BUSY;
 782              		.loc 1 481 3 discriminator 2 view .LVU273
 783              		.loc 1 481 15 is_stmt 0 discriminator 2 view .LVU274
 784 000e 0223     		movs	r3, #2
 785 0010 4377     		strb	r3, [r0, #29]
 482:Drivers/STM32F7xx_HAL_Driver/Src/stm32f7xx_hal_rtc_ex.c **** 
 483:Drivers/STM32F7xx_HAL_Driver/Src/stm32f7xx_hal_rtc_ex.c ****   /* Copy control register into temporary variable */
 484:Drivers/STM32F7xx_HAL_Driver/Src/stm32f7xx_hal_rtc_ex.c ****   tmpreg = hrtc->Instance->TAMPCR;
 786              		.loc 1 484 3 is_stmt 1 discriminator 2 view .LVU275
 787              		.loc 1 484 16 is_stmt 0 discriminator 2 view .LVU276
 788 0012 0468     		ldr	r4, [r0]
 789              		.loc 1 484 10 discriminator 2 view .LVU277
 790 0014 236C     		ldr	r3, [r4, #64]
 791              	.LVL53:
 485:Drivers/STM32F7xx_HAL_Driver/Src/stm32f7xx_hal_rtc_ex.c **** 
 486:Drivers/STM32F7xx_HAL_Driver/Src/stm32f7xx_hal_rtc_ex.c ****   /* Enable selected tamper */
 487:Drivers/STM32F7xx_HAL_Driver/Src/stm32f7xx_hal_rtc_ex.c ****   tmpreg |= (sTamper->Tamper);
 792              		.loc 1 487 3 is_stmt 1 discriminator 2 view .LVU278
 793              		.loc 1 487 21 is_stmt 0 discriminator 2 view .LVU279
 794 0016 0D68     		ldr	r5, [r1]
 795              		.loc 1 487 10 discriminator 2 view .LVU280
 796 0018 2B43     		orrs	r3, r3, r5
 797              	.LVL54:
 488:Drivers/STM32F7xx_HAL_Driver/Src/stm32f7xx_hal_rtc_ex.c **** 
 489:Drivers/STM32F7xx_HAL_Driver/Src/stm32f7xx_hal_rtc_ex.c ****   /* Configure the tamper trigger bit (this bit is just on the right of the
 490:Drivers/STM32F7xx_HAL_Driver/Src/stm32f7xx_hal_rtc_ex.c ****        tamper enable bit, hence the one-time right shift before updating it) */
 491:Drivers/STM32F7xx_HAL_Driver/Src/stm32f7xx_hal_rtc_ex.c ****   if (sTamper->Trigger == RTC_TAMPERTRIGGER_FALLINGEDGE)
 798              		.loc 1 491 3 is_stmt 1 discriminator 2 view .LVU281
 799              		.loc 1 491 14 is_stmt 0 discriminator 2 view .LVU282
 800 001a 8868     		ldr	r0, [r1, #8]
 801              	.LVL55:
 802              		.loc 1 491 6 discriminator 2 view .LVU283
 803 001c 0228     		cmp	r0, #2
 804 001e 49D0     		beq	.L64
 492:Drivers/STM32F7xx_HAL_Driver/Src/stm32f7xx_hal_rtc_ex.c ****   {
 493:Drivers/STM32F7xx_HAL_Driver/Src/stm32f7xx_hal_rtc_ex.c ****     /* Set the tamper trigger bit (case of falling edge or high level) */
ARM GAS  /tmp/ccxe0t7k.s 			page 24


 494:Drivers/STM32F7xx_HAL_Driver/Src/stm32f7xx_hal_rtc_ex.c ****     tmpreg |= (uint32_t)(sTamper->Tamper << 1U);
 495:Drivers/STM32F7xx_HAL_Driver/Src/stm32f7xx_hal_rtc_ex.c ****   }
 496:Drivers/STM32F7xx_HAL_Driver/Src/stm32f7xx_hal_rtc_ex.c ****   else
 497:Drivers/STM32F7xx_HAL_Driver/Src/stm32f7xx_hal_rtc_ex.c ****   {
 498:Drivers/STM32F7xx_HAL_Driver/Src/stm32f7xx_hal_rtc_ex.c ****     /* Clear the tamper trigger bit (case of rising edge or low level) */
 499:Drivers/STM32F7xx_HAL_Driver/Src/stm32f7xx_hal_rtc_ex.c ****     tmpreg &= (uint32_t)~(sTamper->Tamper << 1U);
 805              		.loc 1 499 5 is_stmt 1 view .LVU284
 806              		.loc 1 499 12 is_stmt 0 view .LVU285
 807 0020 23EA4503 		bic	r3, r3, r5, lsl #1
 808              	.LVL56:
 809              	.L43:
 500:Drivers/STM32F7xx_HAL_Driver/Src/stm32f7xx_hal_rtc_ex.c ****   }
 501:Drivers/STM32F7xx_HAL_Driver/Src/stm32f7xx_hal_rtc_ex.c **** 
 502:Drivers/STM32F7xx_HAL_Driver/Src/stm32f7xx_hal_rtc_ex.c ****   /* Configure the backup registers erasure enabling bits */
 503:Drivers/STM32F7xx_HAL_Driver/Src/stm32f7xx_hal_rtc_ex.c ****   if (sTamper->NoErase != RTC_TAMPER_ERASE_BACKUP_ENABLE)
 810              		.loc 1 503 3 is_stmt 1 view .LVU286
 811              		.loc 1 503 14 is_stmt 0 view .LVU287
 812 0024 C868     		ldr	r0, [r1, #12]
 813              		.loc 1 503 6 view .LVU288
 814 0026 0028     		cmp	r0, #0
 815 0028 47D0     		beq	.L44
 504:Drivers/STM32F7xx_HAL_Driver/Src/stm32f7xx_hal_rtc_ex.c ****   {
 505:Drivers/STM32F7xx_HAL_Driver/Src/stm32f7xx_hal_rtc_ex.c ****     if ((sTamper->Tamper & RTC_TAMPER_1) != 0U)
 816              		.loc 1 505 5 is_stmt 1 view .LVU289
 817              		.loc 1 505 8 is_stmt 0 view .LVU290
 818 002a 15F0010F 		tst	r5, #1
 819 002e 01D0     		beq	.L45
 506:Drivers/STM32F7xx_HAL_Driver/Src/stm32f7xx_hal_rtc_ex.c ****     {
 507:Drivers/STM32F7xx_HAL_Driver/Src/stm32f7xx_hal_rtc_ex.c ****       tmpreg |= (uint32_t)(RTC_TAMPCR_TAMP1NOERASE);
 820              		.loc 1 507 7 is_stmt 1 view .LVU291
 821              		.loc 1 507 14 is_stmt 0 view .LVU292
 822 0030 43F40033 		orr	r3, r3, #131072
 823              	.LVL57:
 824              	.L45:
 508:Drivers/STM32F7xx_HAL_Driver/Src/stm32f7xx_hal_rtc_ex.c ****     }
 509:Drivers/STM32F7xx_HAL_Driver/Src/stm32f7xx_hal_rtc_ex.c ****     if ((sTamper->Tamper & RTC_TAMPER_2) != 0U)
 825              		.loc 1 509 5 is_stmt 1 view .LVU293
 826              		.loc 1 509 8 is_stmt 0 view .LVU294
 827 0034 15F0080F 		tst	r5, #8
 828 0038 01D0     		beq	.L46
 510:Drivers/STM32F7xx_HAL_Driver/Src/stm32f7xx_hal_rtc_ex.c ****     {
 511:Drivers/STM32F7xx_HAL_Driver/Src/stm32f7xx_hal_rtc_ex.c ****       tmpreg |= (uint32_t)(RTC_TAMPCR_TAMP2NOERASE);
 829              		.loc 1 511 7 is_stmt 1 view .LVU295
 830              		.loc 1 511 14 is_stmt 0 view .LVU296
 831 003a 43F48013 		orr	r3, r3, #1048576
 832              	.LVL58:
 833              	.L46:
 512:Drivers/STM32F7xx_HAL_Driver/Src/stm32f7xx_hal_rtc_ex.c ****     }
 513:Drivers/STM32F7xx_HAL_Driver/Src/stm32f7xx_hal_rtc_ex.c ****     if ((sTamper->Tamper & RTC_TAMPER_3) != 0U)
 834              		.loc 1 513 5 is_stmt 1 view .LVU297
 835              		.loc 1 513 8 is_stmt 0 view .LVU298
 836 003e 15F0200F 		tst	r5, #32
 837 0042 01D0     		beq	.L47
 514:Drivers/STM32F7xx_HAL_Driver/Src/stm32f7xx_hal_rtc_ex.c ****     {
 515:Drivers/STM32F7xx_HAL_Driver/Src/stm32f7xx_hal_rtc_ex.c ****       tmpreg |= (uint32_t)(RTC_TAMPCR_TAMP3NOERASE);
 838              		.loc 1 515 7 is_stmt 1 view .LVU299
 839              		.loc 1 515 14 is_stmt 0 view .LVU300
ARM GAS  /tmp/ccxe0t7k.s 			page 25


 840 0044 43F40003 		orr	r3, r3, #8388608
 841              	.LVL59:
 842              	.L47:
 516:Drivers/STM32F7xx_HAL_Driver/Src/stm32f7xx_hal_rtc_ex.c ****     }
 517:Drivers/STM32F7xx_HAL_Driver/Src/stm32f7xx_hal_rtc_ex.c ****   }
 518:Drivers/STM32F7xx_HAL_Driver/Src/stm32f7xx_hal_rtc_ex.c ****   else
 519:Drivers/STM32F7xx_HAL_Driver/Src/stm32f7xx_hal_rtc_ex.c ****   {
 520:Drivers/STM32F7xx_HAL_Driver/Src/stm32f7xx_hal_rtc_ex.c ****     if ((sTamper->Tamper & RTC_TAMPER_1) != 0U)
 521:Drivers/STM32F7xx_HAL_Driver/Src/stm32f7xx_hal_rtc_ex.c ****     {
 522:Drivers/STM32F7xx_HAL_Driver/Src/stm32f7xx_hal_rtc_ex.c ****       tmpreg &= (uint32_t)~(RTC_TAMPCR_TAMP1NOERASE);
 523:Drivers/STM32F7xx_HAL_Driver/Src/stm32f7xx_hal_rtc_ex.c ****     }
 524:Drivers/STM32F7xx_HAL_Driver/Src/stm32f7xx_hal_rtc_ex.c ****     if ((sTamper->Tamper & RTC_TAMPER_2) != 0U)
 525:Drivers/STM32F7xx_HAL_Driver/Src/stm32f7xx_hal_rtc_ex.c ****     {
 526:Drivers/STM32F7xx_HAL_Driver/Src/stm32f7xx_hal_rtc_ex.c ****       tmpreg &= (uint32_t)~(RTC_TAMPCR_TAMP2NOERASE);
 527:Drivers/STM32F7xx_HAL_Driver/Src/stm32f7xx_hal_rtc_ex.c ****     }
 528:Drivers/STM32F7xx_HAL_Driver/Src/stm32f7xx_hal_rtc_ex.c ****     if ((sTamper->Tamper & RTC_TAMPER_3) != 0U)
 529:Drivers/STM32F7xx_HAL_Driver/Src/stm32f7xx_hal_rtc_ex.c ****     {
 530:Drivers/STM32F7xx_HAL_Driver/Src/stm32f7xx_hal_rtc_ex.c ****       tmpreg &= (uint32_t)~(RTC_TAMPCR_TAMP3NOERASE);
 531:Drivers/STM32F7xx_HAL_Driver/Src/stm32f7xx_hal_rtc_ex.c ****     }
 532:Drivers/STM32F7xx_HAL_Driver/Src/stm32f7xx_hal_rtc_ex.c ****   }
 533:Drivers/STM32F7xx_HAL_Driver/Src/stm32f7xx_hal_rtc_ex.c **** 
 534:Drivers/STM32F7xx_HAL_Driver/Src/stm32f7xx_hal_rtc_ex.c ****   /* Configure the tamper flags masking bits */
 535:Drivers/STM32F7xx_HAL_Driver/Src/stm32f7xx_hal_rtc_ex.c ****   if (sTamper->MaskFlag != RTC_TAMPERMASK_FLAG_DISABLE)
 843              		.loc 1 535 3 is_stmt 1 view .LVU301
 844              		.loc 1 535 14 is_stmt 0 view .LVU302
 845 0048 0869     		ldr	r0, [r1, #16]
 846              		.loc 1 535 6 view .LVU303
 847 004a 0028     		cmp	r0, #0
 848 004c 45D0     		beq	.L50
 536:Drivers/STM32F7xx_HAL_Driver/Src/stm32f7xx_hal_rtc_ex.c ****   {
 537:Drivers/STM32F7xx_HAL_Driver/Src/stm32f7xx_hal_rtc_ex.c ****     if ((sTamper->Tamper & RTC_TAMPER_1) != 0U)
 849              		.loc 1 537 5 is_stmt 1 view .LVU304
 850              		.loc 1 537 8 is_stmt 0 view .LVU305
 851 004e 15F0010F 		tst	r5, #1
 852 0052 01D0     		beq	.L51
 538:Drivers/STM32F7xx_HAL_Driver/Src/stm32f7xx_hal_rtc_ex.c ****     {
 539:Drivers/STM32F7xx_HAL_Driver/Src/stm32f7xx_hal_rtc_ex.c ****       tmpreg |= (uint32_t)(RTC_TAMPCR_TAMP1MF);
 853              		.loc 1 539 7 is_stmt 1 view .LVU306
 854              		.loc 1 539 14 is_stmt 0 view .LVU307
 855 0054 43F48023 		orr	r3, r3, #262144
 856              	.LVL60:
 857              	.L51:
 540:Drivers/STM32F7xx_HAL_Driver/Src/stm32f7xx_hal_rtc_ex.c ****     }
 541:Drivers/STM32F7xx_HAL_Driver/Src/stm32f7xx_hal_rtc_ex.c ****     if ((sTamper->Tamper & RTC_TAMPER_2) != 0U)
 858              		.loc 1 541 5 is_stmt 1 view .LVU308
 859              		.loc 1 541 8 is_stmt 0 view .LVU309
 860 0058 15F0080F 		tst	r5, #8
 861 005c 01D0     		beq	.L52
 542:Drivers/STM32F7xx_HAL_Driver/Src/stm32f7xx_hal_rtc_ex.c ****     {
 543:Drivers/STM32F7xx_HAL_Driver/Src/stm32f7xx_hal_rtc_ex.c ****       tmpreg |= (uint32_t)(RTC_TAMPCR_TAMP2MF);
 862              		.loc 1 543 7 is_stmt 1 view .LVU310
 863              		.loc 1 543 14 is_stmt 0 view .LVU311
 864 005e 43F40013 		orr	r3, r3, #2097152
 865              	.LVL61:
 866              	.L52:
 544:Drivers/STM32F7xx_HAL_Driver/Src/stm32f7xx_hal_rtc_ex.c ****     }
 545:Drivers/STM32F7xx_HAL_Driver/Src/stm32f7xx_hal_rtc_ex.c ****     if ((sTamper->Tamper & RTC_TAMPER_3) != 0U)
ARM GAS  /tmp/ccxe0t7k.s 			page 26


 867              		.loc 1 545 5 is_stmt 1 view .LVU312
 868              		.loc 1 545 8 is_stmt 0 view .LVU313
 869 0062 15F0200F 		tst	r5, #32
 870 0066 01D0     		beq	.L53
 546:Drivers/STM32F7xx_HAL_Driver/Src/stm32f7xx_hal_rtc_ex.c ****     {
 547:Drivers/STM32F7xx_HAL_Driver/Src/stm32f7xx_hal_rtc_ex.c ****       tmpreg |= (uint32_t)(RTC_TAMPCR_TAMP3MF);
 871              		.loc 1 547 7 is_stmt 1 view .LVU314
 872              		.loc 1 547 14 is_stmt 0 view .LVU315
 873 0068 43F08073 		orr	r3, r3, #16777216
 874              	.LVL62:
 875              	.L53:
 548:Drivers/STM32F7xx_HAL_Driver/Src/stm32f7xx_hal_rtc_ex.c ****     }
 549:Drivers/STM32F7xx_HAL_Driver/Src/stm32f7xx_hal_rtc_ex.c ****   }
 550:Drivers/STM32F7xx_HAL_Driver/Src/stm32f7xx_hal_rtc_ex.c ****   else
 551:Drivers/STM32F7xx_HAL_Driver/Src/stm32f7xx_hal_rtc_ex.c ****   {
 552:Drivers/STM32F7xx_HAL_Driver/Src/stm32f7xx_hal_rtc_ex.c ****     if ((sTamper->Tamper & RTC_TAMPER_1) != 0U)
 553:Drivers/STM32F7xx_HAL_Driver/Src/stm32f7xx_hal_rtc_ex.c ****     {
 554:Drivers/STM32F7xx_HAL_Driver/Src/stm32f7xx_hal_rtc_ex.c ****       tmpreg &= (uint32_t)~(RTC_TAMPCR_TAMP1MF);
 555:Drivers/STM32F7xx_HAL_Driver/Src/stm32f7xx_hal_rtc_ex.c ****     }
 556:Drivers/STM32F7xx_HAL_Driver/Src/stm32f7xx_hal_rtc_ex.c ****     if ((sTamper->Tamper & RTC_TAMPER_2) != 0U)
 557:Drivers/STM32F7xx_HAL_Driver/Src/stm32f7xx_hal_rtc_ex.c ****     {
 558:Drivers/STM32F7xx_HAL_Driver/Src/stm32f7xx_hal_rtc_ex.c ****       tmpreg &= (uint32_t)~(RTC_TAMPCR_TAMP2MF);
 559:Drivers/STM32F7xx_HAL_Driver/Src/stm32f7xx_hal_rtc_ex.c ****     }
 560:Drivers/STM32F7xx_HAL_Driver/Src/stm32f7xx_hal_rtc_ex.c ****     if ((sTamper->Tamper & RTC_TAMPER_3) != 0U)
 561:Drivers/STM32F7xx_HAL_Driver/Src/stm32f7xx_hal_rtc_ex.c ****     {
 562:Drivers/STM32F7xx_HAL_Driver/Src/stm32f7xx_hal_rtc_ex.c ****       tmpreg &= (uint32_t)~(RTC_TAMPCR_TAMP3MF);
 563:Drivers/STM32F7xx_HAL_Driver/Src/stm32f7xx_hal_rtc_ex.c ****     }
 564:Drivers/STM32F7xx_HAL_Driver/Src/stm32f7xx_hal_rtc_ex.c ****   }
 565:Drivers/STM32F7xx_HAL_Driver/Src/stm32f7xx_hal_rtc_ex.c **** 
 566:Drivers/STM32F7xx_HAL_Driver/Src/stm32f7xx_hal_rtc_ex.c ****   /* Clear remaining fields before setting them */
 567:Drivers/STM32F7xx_HAL_Driver/Src/stm32f7xx_hal_rtc_ex.c ****   tmpreg &= ~(RTC_TAMPERFILTER_MASK              | \
 876              		.loc 1 567 3 is_stmt 1 view .LVU316
 877              		.loc 1 567 10 is_stmt 0 view .LVU317
 878 006c 2448     		ldr	r0, .L65
 879 006e 1840     		ands	r0, r0, r3
 880              	.LVL63:
 568:Drivers/STM32F7xx_HAL_Driver/Src/stm32f7xx_hal_rtc_ex.c ****               RTC_TAMPERSAMPLINGFREQ_RTCCLK_MASK | \
 569:Drivers/STM32F7xx_HAL_Driver/Src/stm32f7xx_hal_rtc_ex.c ****               RTC_TAMPERPRECHARGEDURATION_MASK   | \
 570:Drivers/STM32F7xx_HAL_Driver/Src/stm32f7xx_hal_rtc_ex.c ****               RTC_TAMPER_PULLUP_MASK             | \
 571:Drivers/STM32F7xx_HAL_Driver/Src/stm32f7xx_hal_rtc_ex.c ****               RTC_TIMESTAMPONTAMPERDETECTION_MASK);
 572:Drivers/STM32F7xx_HAL_Driver/Src/stm32f7xx_hal_rtc_ex.c **** 
 573:Drivers/STM32F7xx_HAL_Driver/Src/stm32f7xx_hal_rtc_ex.c ****   /* Set remaining parameters of desired configuration into temporary variable */
 574:Drivers/STM32F7xx_HAL_Driver/Src/stm32f7xx_hal_rtc_ex.c ****   tmpreg |= ((uint32_t)sTamper->Filter            | \
 881              		.loc 1 574 3 is_stmt 1 view .LVU318
 882              		.loc 1 574 31 is_stmt 0 view .LVU319
 883 0070 4B69     		ldr	r3, [r1, #20]
 884              		.loc 1 574 51 view .LVU320
 885 0072 8E69     		ldr	r6, [r1, #24]
 886 0074 3343     		orrs	r3, r3, r6
 575:Drivers/STM32F7xx_HAL_Driver/Src/stm32f7xx_hal_rtc_ex.c ****              (uint32_t)sTamper->SamplingFrequency | \
 887              		.loc 1 575 51 view .LVU321
 888 0076 CE69     		ldr	r6, [r1, #28]
 889 0078 3343     		orrs	r3, r3, r6
 576:Drivers/STM32F7xx_HAL_Driver/Src/stm32f7xx_hal_rtc_ex.c ****              (uint32_t)sTamper->PrechargeDuration | \
 890              		.loc 1 576 51 view .LVU322
 891 007a 0E6A     		ldr	r6, [r1, #32]
 892 007c 3343     		orrs	r3, r3, r6
ARM GAS  /tmp/ccxe0t7k.s 			page 27


 577:Drivers/STM32F7xx_HAL_Driver/Src/stm32f7xx_hal_rtc_ex.c ****              (uint32_t)sTamper->TamperPullUp      | \
 578:Drivers/STM32F7xx_HAL_Driver/Src/stm32f7xx_hal_rtc_ex.c ****              (uint32_t)sTamper->TimeStampOnTamperDetection);
 893              		.loc 1 578 31 view .LVU323
 894 007e 496A     		ldr	r1, [r1, #36]
 895              	.LVL64:
 577:Drivers/STM32F7xx_HAL_Driver/Src/stm32f7xx_hal_rtc_ex.c ****              (uint32_t)sTamper->TamperPullUp      | \
 896              		.loc 1 577 51 view .LVU324
 897 0080 0B43     		orrs	r3, r3, r1
 574:Drivers/STM32F7xx_HAL_Driver/Src/stm32f7xx_hal_rtc_ex.c ****              (uint32_t)sTamper->SamplingFrequency | \
 898              		.loc 1 574 10 view .LVU325
 899 0082 0343     		orrs	r3, r3, r0
 900              	.LVL65:
 579:Drivers/STM32F7xx_HAL_Driver/Src/stm32f7xx_hal_rtc_ex.c **** 
 580:Drivers/STM32F7xx_HAL_Driver/Src/stm32f7xx_hal_rtc_ex.c ****   /* Disable interrupt on selected tamper in case it is enabled */
 581:Drivers/STM32F7xx_HAL_Driver/Src/stm32f7xx_hal_rtc_ex.c ****   if ((sTamper->Tamper & RTC_TAMPER_1) != 0U)
 901              		.loc 1 581 3 is_stmt 1 view .LVU326
 902              		.loc 1 581 6 is_stmt 0 view .LVU327
 903 0084 15F0010F 		tst	r5, #1
 904 0088 01D0     		beq	.L56
 582:Drivers/STM32F7xx_HAL_Driver/Src/stm32f7xx_hal_rtc_ex.c ****   {
 583:Drivers/STM32F7xx_HAL_Driver/Src/stm32f7xx_hal_rtc_ex.c ****     tmpreg &= (uint32_t)~RTC_IT_TAMP1;
 905              		.loc 1 583 5 is_stmt 1 view .LVU328
 906              		.loc 1 583 12 is_stmt 0 view .LVU329
 907 008a 23F48033 		bic	r3, r3, #65536
 908              	.LVL66:
 909              	.L56:
 584:Drivers/STM32F7xx_HAL_Driver/Src/stm32f7xx_hal_rtc_ex.c ****   }
 585:Drivers/STM32F7xx_HAL_Driver/Src/stm32f7xx_hal_rtc_ex.c ****   if ((sTamper->Tamper & RTC_TAMPER_2) != 0U)
 910              		.loc 1 585 3 is_stmt 1 view .LVU330
 911              		.loc 1 585 6 is_stmt 0 view .LVU331
 912 008e 15F0080F 		tst	r5, #8
 913 0092 01D0     		beq	.L57
 586:Drivers/STM32F7xx_HAL_Driver/Src/stm32f7xx_hal_rtc_ex.c ****   {
 587:Drivers/STM32F7xx_HAL_Driver/Src/stm32f7xx_hal_rtc_ex.c ****     tmpreg &= (uint32_t)~RTC_IT_TAMP2;
 914              		.loc 1 587 5 is_stmt 1 view .LVU332
 915              		.loc 1 587 12 is_stmt 0 view .LVU333
 916 0094 23F40023 		bic	r3, r3, #524288
 917              	.LVL67:
 918              	.L57:
 588:Drivers/STM32F7xx_HAL_Driver/Src/stm32f7xx_hal_rtc_ex.c ****   }
 589:Drivers/STM32F7xx_HAL_Driver/Src/stm32f7xx_hal_rtc_ex.c ****   if ((sTamper->Tamper & RTC_TAMPER_3) != 0U)
 919              		.loc 1 589 3 is_stmt 1 view .LVU334
 920              		.loc 1 589 6 is_stmt 0 view .LVU335
 921 0098 15F0200F 		tst	r5, #32
 922 009c 01D0     		beq	.L58
 590:Drivers/STM32F7xx_HAL_Driver/Src/stm32f7xx_hal_rtc_ex.c ****   {
 591:Drivers/STM32F7xx_HAL_Driver/Src/stm32f7xx_hal_rtc_ex.c ****     tmpreg &= (uint32_t)~RTC_IT_TAMP3;
 923              		.loc 1 591 5 is_stmt 1 view .LVU336
 924              		.loc 1 591 12 is_stmt 0 view .LVU337
 925 009e 23F48003 		bic	r3, r3, #4194304
 926              	.LVL68:
 927              	.L58:
 592:Drivers/STM32F7xx_HAL_Driver/Src/stm32f7xx_hal_rtc_ex.c ****   }
 593:Drivers/STM32F7xx_HAL_Driver/Src/stm32f7xx_hal_rtc_ex.c **** 
 594:Drivers/STM32F7xx_HAL_Driver/Src/stm32f7xx_hal_rtc_ex.c ****   /* Disable tamper global interrupt in case it is enabled */
 595:Drivers/STM32F7xx_HAL_Driver/Src/stm32f7xx_hal_rtc_ex.c ****   tmpreg &= (uint32_t)~RTC_TAMPCR_TAMPIE;
 928              		.loc 1 595 3 is_stmt 1 view .LVU338
ARM GAS  /tmp/ccxe0t7k.s 			page 28


 929              		.loc 1 595 10 is_stmt 0 view .LVU339
 930 00a2 23F00403 		bic	r3, r3, #4
 931              	.LVL69:
 596:Drivers/STM32F7xx_HAL_Driver/Src/stm32f7xx_hal_rtc_ex.c **** 
 597:Drivers/STM32F7xx_HAL_Driver/Src/stm32f7xx_hal_rtc_ex.c ****   /* Copy desired configuration into configuration register */
 598:Drivers/STM32F7xx_HAL_Driver/Src/stm32f7xx_hal_rtc_ex.c ****   hrtc->Instance->TAMPCR = tmpreg;
 932              		.loc 1 598 3 is_stmt 1 view .LVU340
 933              		.loc 1 598 26 is_stmt 0 view .LVU341
 934 00a6 2364     		str	r3, [r4, #64]
 599:Drivers/STM32F7xx_HAL_Driver/Src/stm32f7xx_hal_rtc_ex.c **** 
 600:Drivers/STM32F7xx_HAL_Driver/Src/stm32f7xx_hal_rtc_ex.c ****   hrtc->State = HAL_RTC_STATE_READY;
 935              		.loc 1 600 3 is_stmt 1 view .LVU342
 936              		.loc 1 600 15 is_stmt 0 view .LVU343
 937 00a8 0123     		movs	r3, #1
 938              	.LVL70:
 939              		.loc 1 600 15 view .LVU344
 940 00aa 5377     		strb	r3, [r2, #29]
 941              	.LVL71:
 601:Drivers/STM32F7xx_HAL_Driver/Src/stm32f7xx_hal_rtc_ex.c **** 
 602:Drivers/STM32F7xx_HAL_Driver/Src/stm32f7xx_hal_rtc_ex.c ****   /* Process Unlocked */
 603:Drivers/STM32F7xx_HAL_Driver/Src/stm32f7xx_hal_rtc_ex.c ****   __HAL_UNLOCK(hrtc);
 942              		.loc 1 603 3 is_stmt 1 view .LVU345
 943              		.loc 1 603 3 view .LVU346
 944 00ac 0020     		movs	r0, #0
 945 00ae 1077     		strb	r0, [r2, #28]
 946              		.loc 1 603 3 view .LVU347
 604:Drivers/STM32F7xx_HAL_Driver/Src/stm32f7xx_hal_rtc_ex.c **** 
 605:Drivers/STM32F7xx_HAL_Driver/Src/stm32f7xx_hal_rtc_ex.c ****   return HAL_OK;
 947              		.loc 1 605 3 view .LVU348
 606:Drivers/STM32F7xx_HAL_Driver/Src/stm32f7xx_hal_rtc_ex.c **** }
 948              		.loc 1 606 1 is_stmt 0 view .LVU349
 949 00b0 70BC     		pop	{r4, r5, r6}
 950              	.LCFI8:
 951              		.cfi_remember_state
 952              		.cfi_restore 6
 953              		.cfi_restore 5
 954              		.cfi_restore 4
 955              		.cfi_def_cfa_offset 0
 956 00b2 7047     		bx	lr
 957              	.LVL72:
 958              	.L64:
 959              	.LCFI9:
 960              		.cfi_restore_state
 494:Drivers/STM32F7xx_HAL_Driver/Src/stm32f7xx_hal_rtc_ex.c ****   }
 961              		.loc 1 494 5 is_stmt 1 view .LVU350
 494:Drivers/STM32F7xx_HAL_Driver/Src/stm32f7xx_hal_rtc_ex.c ****   }
 962              		.loc 1 494 12 is_stmt 0 view .LVU351
 963 00b4 43EA4503 		orr	r3, r3, r5, lsl #1
 964              	.LVL73:
 494:Drivers/STM32F7xx_HAL_Driver/Src/stm32f7xx_hal_rtc_ex.c ****   }
 965              		.loc 1 494 12 view .LVU352
 966 00b8 B4E7     		b	.L43
 967              	.L44:
 520:Drivers/STM32F7xx_HAL_Driver/Src/stm32f7xx_hal_rtc_ex.c ****     {
 968              		.loc 1 520 5 is_stmt 1 view .LVU353
 520:Drivers/STM32F7xx_HAL_Driver/Src/stm32f7xx_hal_rtc_ex.c ****     {
 969              		.loc 1 520 8 is_stmt 0 view .LVU354
ARM GAS  /tmp/ccxe0t7k.s 			page 29


 970 00ba 15F0010F 		tst	r5, #1
 971 00be 01D0     		beq	.L48
 522:Drivers/STM32F7xx_HAL_Driver/Src/stm32f7xx_hal_rtc_ex.c ****     }
 972              		.loc 1 522 7 is_stmt 1 view .LVU355
 522:Drivers/STM32F7xx_HAL_Driver/Src/stm32f7xx_hal_rtc_ex.c ****     }
 973              		.loc 1 522 14 is_stmt 0 view .LVU356
 974 00c0 23F40033 		bic	r3, r3, #131072
 975              	.LVL74:
 976              	.L48:
 524:Drivers/STM32F7xx_HAL_Driver/Src/stm32f7xx_hal_rtc_ex.c ****     {
 977              		.loc 1 524 5 is_stmt 1 view .LVU357
 524:Drivers/STM32F7xx_HAL_Driver/Src/stm32f7xx_hal_rtc_ex.c ****     {
 978              		.loc 1 524 8 is_stmt 0 view .LVU358
 979 00c4 15F0080F 		tst	r5, #8
 980 00c8 01D0     		beq	.L49
 526:Drivers/STM32F7xx_HAL_Driver/Src/stm32f7xx_hal_rtc_ex.c ****     }
 981              		.loc 1 526 7 is_stmt 1 view .LVU359
 526:Drivers/STM32F7xx_HAL_Driver/Src/stm32f7xx_hal_rtc_ex.c ****     }
 982              		.loc 1 526 14 is_stmt 0 view .LVU360
 983 00ca 23F48013 		bic	r3, r3, #1048576
 984              	.LVL75:
 985              	.L49:
 528:Drivers/STM32F7xx_HAL_Driver/Src/stm32f7xx_hal_rtc_ex.c ****     {
 986              		.loc 1 528 5 is_stmt 1 view .LVU361
 528:Drivers/STM32F7xx_HAL_Driver/Src/stm32f7xx_hal_rtc_ex.c ****     {
 987              		.loc 1 528 8 is_stmt 0 view .LVU362
 988 00ce 15F0200F 		tst	r5, #32
 989 00d2 B9D0     		beq	.L47
 530:Drivers/STM32F7xx_HAL_Driver/Src/stm32f7xx_hal_rtc_ex.c ****     }
 990              		.loc 1 530 7 is_stmt 1 view .LVU363
 530:Drivers/STM32F7xx_HAL_Driver/Src/stm32f7xx_hal_rtc_ex.c ****     }
 991              		.loc 1 530 14 is_stmt 0 view .LVU364
 992 00d4 23F40003 		bic	r3, r3, #8388608
 993              	.LVL76:
 530:Drivers/STM32F7xx_HAL_Driver/Src/stm32f7xx_hal_rtc_ex.c ****     }
 994              		.loc 1 530 14 view .LVU365
 995 00d8 B6E7     		b	.L47
 996              	.L50:
 552:Drivers/STM32F7xx_HAL_Driver/Src/stm32f7xx_hal_rtc_ex.c ****     {
 997              		.loc 1 552 5 is_stmt 1 view .LVU366
 552:Drivers/STM32F7xx_HAL_Driver/Src/stm32f7xx_hal_rtc_ex.c ****     {
 998              		.loc 1 552 8 is_stmt 0 view .LVU367
 999 00da 15F0010F 		tst	r5, #1
 1000 00de 01D0     		beq	.L54
 554:Drivers/STM32F7xx_HAL_Driver/Src/stm32f7xx_hal_rtc_ex.c ****     }
 1001              		.loc 1 554 7 is_stmt 1 view .LVU368
 554:Drivers/STM32F7xx_HAL_Driver/Src/stm32f7xx_hal_rtc_ex.c ****     }
 1002              		.loc 1 554 14 is_stmt 0 view .LVU369
 1003 00e0 23F48023 		bic	r3, r3, #262144
 1004              	.LVL77:
 1005              	.L54:
 556:Drivers/STM32F7xx_HAL_Driver/Src/stm32f7xx_hal_rtc_ex.c ****     {
 1006              		.loc 1 556 5 is_stmt 1 view .LVU370
 556:Drivers/STM32F7xx_HAL_Driver/Src/stm32f7xx_hal_rtc_ex.c ****     {
 1007              		.loc 1 556 8 is_stmt 0 view .LVU371
 1008 00e4 15F0080F 		tst	r5, #8
 1009 00e8 01D0     		beq	.L55
ARM GAS  /tmp/ccxe0t7k.s 			page 30


 558:Drivers/STM32F7xx_HAL_Driver/Src/stm32f7xx_hal_rtc_ex.c ****     }
 1010              		.loc 1 558 7 is_stmt 1 view .LVU372
 558:Drivers/STM32F7xx_HAL_Driver/Src/stm32f7xx_hal_rtc_ex.c ****     }
 1011              		.loc 1 558 14 is_stmt 0 view .LVU373
 1012 00ea 23F40013 		bic	r3, r3, #2097152
 1013              	.LVL78:
 1014              	.L55:
 560:Drivers/STM32F7xx_HAL_Driver/Src/stm32f7xx_hal_rtc_ex.c ****     {
 1015              		.loc 1 560 5 is_stmt 1 view .LVU374
 560:Drivers/STM32F7xx_HAL_Driver/Src/stm32f7xx_hal_rtc_ex.c ****     {
 1016              		.loc 1 560 8 is_stmt 0 view .LVU375
 1017 00ee 15F0200F 		tst	r5, #32
 1018 00f2 BBD0     		beq	.L53
 562:Drivers/STM32F7xx_HAL_Driver/Src/stm32f7xx_hal_rtc_ex.c ****     }
 1019              		.loc 1 562 7 is_stmt 1 view .LVU376
 562:Drivers/STM32F7xx_HAL_Driver/Src/stm32f7xx_hal_rtc_ex.c ****     }
 1020              		.loc 1 562 14 is_stmt 0 view .LVU377
 1021 00f4 23F08073 		bic	r3, r3, #16777216
 1022              	.LVL79:
 562:Drivers/STM32F7xx_HAL_Driver/Src/stm32f7xx_hal_rtc_ex.c ****     }
 1023              		.loc 1 562 14 view .LVU378
 1024 00f8 B8E7     		b	.L53
 1025              	.LVL80:
 1026              	.L59:
 1027              	.LCFI10:
 1028              		.cfi_def_cfa_offset 0
 1029              		.cfi_restore 4
 1030              		.cfi_restore 5
 1031              		.cfi_restore 6
 479:Drivers/STM32F7xx_HAL_Driver/Src/stm32f7xx_hal_rtc_ex.c **** 
 1032              		.loc 1 479 3 view .LVU379
 1033 00fa 0220     		movs	r0, #2
 1034              	.LVL81:
 1035              		.loc 1 606 1 view .LVU380
 1036 00fc 7047     		bx	lr
 1037              	.L66:
 1038 00fe 00BF     		.align	2
 1039              	.L65:
 1040 0100 7F00FFFF 		.word	-65409
 1041              		.cfi_endproc
 1042              	.LFE147:
 1044              		.section	.text.HAL_RTCEx_SetTamper_IT,"ax",%progbits
 1045              		.align	1
 1046              		.global	HAL_RTCEx_SetTamper_IT
 1047              		.syntax unified
 1048              		.thumb
 1049              		.thumb_func
 1051              	HAL_RTCEx_SetTamper_IT:
 1052              	.LVL82:
 1053              	.LFB148:
 607:Drivers/STM32F7xx_HAL_Driver/Src/stm32f7xx_hal_rtc_ex.c **** 
 608:Drivers/STM32F7xx_HAL_Driver/Src/stm32f7xx_hal_rtc_ex.c **** /**
 609:Drivers/STM32F7xx_HAL_Driver/Src/stm32f7xx_hal_rtc_ex.c ****   * @brief  Sets Tamper with interrupt.
 610:Drivers/STM32F7xx_HAL_Driver/Src/stm32f7xx_hal_rtc_ex.c ****   * @note   By setting the tamper global interrupt bit, interrupts will be
 611:Drivers/STM32F7xx_HAL_Driver/Src/stm32f7xx_hal_rtc_ex.c ****   *         enabled for all tampers.
 612:Drivers/STM32F7xx_HAL_Driver/Src/stm32f7xx_hal_rtc_ex.c ****   * @param  hrtc pointer to a RTC_HandleTypeDef structure that contains
 613:Drivers/STM32F7xx_HAL_Driver/Src/stm32f7xx_hal_rtc_ex.c ****   *                the configuration information for RTC.
ARM GAS  /tmp/ccxe0t7k.s 			page 31


 614:Drivers/STM32F7xx_HAL_Driver/Src/stm32f7xx_hal_rtc_ex.c ****   * @param  sTamper Pointer to RTC Tamper.
 615:Drivers/STM32F7xx_HAL_Driver/Src/stm32f7xx_hal_rtc_ex.c ****   * @retval HAL status
 616:Drivers/STM32F7xx_HAL_Driver/Src/stm32f7xx_hal_rtc_ex.c ****   */
 617:Drivers/STM32F7xx_HAL_Driver/Src/stm32f7xx_hal_rtc_ex.c **** HAL_StatusTypeDef HAL_RTCEx_SetTamper_IT(RTC_HandleTypeDef *hrtc, RTC_TamperTypeDef *sTamper)
 618:Drivers/STM32F7xx_HAL_Driver/Src/stm32f7xx_hal_rtc_ex.c **** {
 1054              		.loc 1 618 1 is_stmt 1 view -0
 1055              		.cfi_startproc
 1056              		@ args = 0, pretend = 0, frame = 0
 1057              		@ frame_needed = 0, uses_anonymous_args = 0
 1058              		@ link register save eliminated.
 619:Drivers/STM32F7xx_HAL_Driver/Src/stm32f7xx_hal_rtc_ex.c ****   uint32_t tmpreg = 0U;
 1059              		.loc 1 619 3 view .LVU382
 620:Drivers/STM32F7xx_HAL_Driver/Src/stm32f7xx_hal_rtc_ex.c **** 
 621:Drivers/STM32F7xx_HAL_Driver/Src/stm32f7xx_hal_rtc_ex.c ****   /* Check the parameters */
 622:Drivers/STM32F7xx_HAL_Driver/Src/stm32f7xx_hal_rtc_ex.c ****   assert_param(IS_RTC_TAMPER(sTamper->Tamper));
 1060              		.loc 1 622 3 view .LVU383
 623:Drivers/STM32F7xx_HAL_Driver/Src/stm32f7xx_hal_rtc_ex.c ****   assert_param(IS_RTC_TAMPER_INTERRUPT(sTamper->Interrupt));
 1061              		.loc 1 623 3 view .LVU384
 624:Drivers/STM32F7xx_HAL_Driver/Src/stm32f7xx_hal_rtc_ex.c ****   assert_param(IS_RTC_TAMPER_TRIGGER(sTamper->Trigger));
 1062              		.loc 1 624 3 view .LVU385
 625:Drivers/STM32F7xx_HAL_Driver/Src/stm32f7xx_hal_rtc_ex.c ****   assert_param(IS_RTC_TAMPER_ERASE_MODE(sTamper->NoErase));
 1063              		.loc 1 625 3 view .LVU386
 626:Drivers/STM32F7xx_HAL_Driver/Src/stm32f7xx_hal_rtc_ex.c ****   assert_param(IS_RTC_TAMPER_MASKFLAG_STATE(sTamper->MaskFlag));
 1064              		.loc 1 626 3 view .LVU387
 627:Drivers/STM32F7xx_HAL_Driver/Src/stm32f7xx_hal_rtc_ex.c ****   assert_param(IS_RTC_TAMPER_FILTER(sTamper->Filter));
 1065              		.loc 1 627 3 view .LVU388
 628:Drivers/STM32F7xx_HAL_Driver/Src/stm32f7xx_hal_rtc_ex.c ****   assert_param(IS_RTC_TAMPER_FILTER_CONFIG_CORRECT(sTamper->Filter, sTamper->Trigger));
 1066              		.loc 1 628 3 view .LVU389
 629:Drivers/STM32F7xx_HAL_Driver/Src/stm32f7xx_hal_rtc_ex.c ****   assert_param(IS_RTC_TAMPER_SAMPLING_FREQ(sTamper->SamplingFrequency));
 1067              		.loc 1 629 3 view .LVU390
 630:Drivers/STM32F7xx_HAL_Driver/Src/stm32f7xx_hal_rtc_ex.c ****   assert_param(IS_RTC_TAMPER_PRECHARGE_DURATION(sTamper->PrechargeDuration));
 1068              		.loc 1 630 3 view .LVU391
 631:Drivers/STM32F7xx_HAL_Driver/Src/stm32f7xx_hal_rtc_ex.c ****   assert_param(IS_RTC_TAMPER_PULLUP_STATE(sTamper->TamperPullUp));
 1069              		.loc 1 631 3 view .LVU392
 632:Drivers/STM32F7xx_HAL_Driver/Src/stm32f7xx_hal_rtc_ex.c ****   assert_param(IS_RTC_TAMPER_TIMESTAMPONTAMPER_DETECTION(sTamper->TimeStampOnTamperDetection));
 1070              		.loc 1 632 3 view .LVU393
 633:Drivers/STM32F7xx_HAL_Driver/Src/stm32f7xx_hal_rtc_ex.c **** 
 634:Drivers/STM32F7xx_HAL_Driver/Src/stm32f7xx_hal_rtc_ex.c ****   /* Process Locked */
 635:Drivers/STM32F7xx_HAL_Driver/Src/stm32f7xx_hal_rtc_ex.c ****   __HAL_LOCK(hrtc);
 1071              		.loc 1 635 3 view .LVU394
 1072              		.loc 1 635 3 view .LVU395
 1073 0000 037F     		ldrb	r3, [r0, #28]	@ zero_extendqisi2
 1074 0002 012B     		cmp	r3, #1
 1075 0004 73D0     		beq	.L83
 618:Drivers/STM32F7xx_HAL_Driver/Src/stm32f7xx_hal_rtc_ex.c ****   uint32_t tmpreg = 0U;
 1076              		.loc 1 618 1 is_stmt 0 discriminator 2 view .LVU396
 1077 0006 30B4     		push	{r4, r5}
 1078              	.LCFI11:
 1079              		.cfi_def_cfa_offset 8
 1080              		.cfi_offset 4, -8
 1081              		.cfi_offset 5, -4
 1082 0008 0246     		mov	r2, r0
 1083              		.loc 1 635 3 is_stmt 1 discriminator 2 view .LVU397
 1084 000a 0123     		movs	r3, #1
 1085 000c 0377     		strb	r3, [r0, #28]
 1086              		.loc 1 635 3 discriminator 2 view .LVU398
 636:Drivers/STM32F7xx_HAL_Driver/Src/stm32f7xx_hal_rtc_ex.c **** 
ARM GAS  /tmp/ccxe0t7k.s 			page 32


 637:Drivers/STM32F7xx_HAL_Driver/Src/stm32f7xx_hal_rtc_ex.c ****   hrtc->State = HAL_RTC_STATE_BUSY;
 1087              		.loc 1 637 3 discriminator 2 view .LVU399
 1088              		.loc 1 637 15 is_stmt 0 discriminator 2 view .LVU400
 1089 000e 0223     		movs	r3, #2
 1090 0010 4377     		strb	r3, [r0, #29]
 638:Drivers/STM32F7xx_HAL_Driver/Src/stm32f7xx_hal_rtc_ex.c **** 
 639:Drivers/STM32F7xx_HAL_Driver/Src/stm32f7xx_hal_rtc_ex.c ****   /* Copy control register into temporary variable */
 640:Drivers/STM32F7xx_HAL_Driver/Src/stm32f7xx_hal_rtc_ex.c ****   tmpreg = hrtc->Instance->TAMPCR;
 1091              		.loc 1 640 3 is_stmt 1 discriminator 2 view .LVU401
 1092              		.loc 1 640 16 is_stmt 0 discriminator 2 view .LVU402
 1093 0012 0468     		ldr	r4, [r0]
 1094              		.loc 1 640 10 discriminator 2 view .LVU403
 1095 0014 236C     		ldr	r3, [r4, #64]
 1096              	.LVL83:
 641:Drivers/STM32F7xx_HAL_Driver/Src/stm32f7xx_hal_rtc_ex.c **** 
 642:Drivers/STM32F7xx_HAL_Driver/Src/stm32f7xx_hal_rtc_ex.c ****   /* Enable selected tamper */
 643:Drivers/STM32F7xx_HAL_Driver/Src/stm32f7xx_hal_rtc_ex.c ****   tmpreg |= (sTamper->Tamper);
 1097              		.loc 1 643 3 is_stmt 1 discriminator 2 view .LVU404
 1098              		.loc 1 643 21 is_stmt 0 discriminator 2 view .LVU405
 1099 0016 0868     		ldr	r0, [r1]
 1100              	.LVL84:
 1101              		.loc 1 643 10 discriminator 2 view .LVU406
 1102 0018 0343     		orrs	r3, r3, r0
 1103              	.LVL85:
 644:Drivers/STM32F7xx_HAL_Driver/Src/stm32f7xx_hal_rtc_ex.c **** 
 645:Drivers/STM32F7xx_HAL_Driver/Src/stm32f7xx_hal_rtc_ex.c ****   /* Configure the tamper trigger bit (this bit is just on the right of the
 646:Drivers/STM32F7xx_HAL_Driver/Src/stm32f7xx_hal_rtc_ex.c ****        tamper enable bit, hence the one-time right shift before updating it) */
 647:Drivers/STM32F7xx_HAL_Driver/Src/stm32f7xx_hal_rtc_ex.c ****   if (sTamper->Trigger == RTC_TAMPERTRIGGER_FALLINGEDGE)
 1104              		.loc 1 647 3 is_stmt 1 discriminator 2 view .LVU407
 1105              		.loc 1 647 6 is_stmt 0 discriminator 2 view .LVU408
 1106 001a 8D68     		ldr	r5, [r1, #8]
 1107 001c 022D     		cmp	r5, #2
 1108 001e 43D0     		beq	.L88
 648:Drivers/STM32F7xx_HAL_Driver/Src/stm32f7xx_hal_rtc_ex.c ****   {
 649:Drivers/STM32F7xx_HAL_Driver/Src/stm32f7xx_hal_rtc_ex.c ****     /* Set the tamper trigger bit (case of falling edge or high level) */
 650:Drivers/STM32F7xx_HAL_Driver/Src/stm32f7xx_hal_rtc_ex.c ****     tmpreg |= (uint32_t)(sTamper->Tamper << 1U);
 651:Drivers/STM32F7xx_HAL_Driver/Src/stm32f7xx_hal_rtc_ex.c ****   }
 652:Drivers/STM32F7xx_HAL_Driver/Src/stm32f7xx_hal_rtc_ex.c ****   else
 653:Drivers/STM32F7xx_HAL_Driver/Src/stm32f7xx_hal_rtc_ex.c ****   {
 654:Drivers/STM32F7xx_HAL_Driver/Src/stm32f7xx_hal_rtc_ex.c ****     /* Clear the tamper trigger bit (case of rising edge or low level) */
 655:Drivers/STM32F7xx_HAL_Driver/Src/stm32f7xx_hal_rtc_ex.c ****     tmpreg &= (uint32_t)~(sTamper->Tamper << 1U);
 1109              		.loc 1 655 5 is_stmt 1 view .LVU409
 1110              		.loc 1 655 12 is_stmt 0 view .LVU410
 1111 0020 23EA4003 		bic	r3, r3, r0, lsl #1
 1112              	.LVL86:
 1113              	.L70:
 656:Drivers/STM32F7xx_HAL_Driver/Src/stm32f7xx_hal_rtc_ex.c ****   }
 657:Drivers/STM32F7xx_HAL_Driver/Src/stm32f7xx_hal_rtc_ex.c **** 
 658:Drivers/STM32F7xx_HAL_Driver/Src/stm32f7xx_hal_rtc_ex.c ****   /* Configure the backup registers erasure enabling bits */
 659:Drivers/STM32F7xx_HAL_Driver/Src/stm32f7xx_hal_rtc_ex.c ****   if (sTamper->NoErase != RTC_TAMPER_ERASE_BACKUP_ENABLE)
 1114              		.loc 1 659 3 is_stmt 1 view .LVU411
 1115              		.loc 1 659 6 is_stmt 0 view .LVU412
 1116 0024 CD68     		ldr	r5, [r1, #12]
 1117 0026 002D     		cmp	r5, #0
 1118 0028 41D0     		beq	.L71
 660:Drivers/STM32F7xx_HAL_Driver/Src/stm32f7xx_hal_rtc_ex.c ****   {
 661:Drivers/STM32F7xx_HAL_Driver/Src/stm32f7xx_hal_rtc_ex.c ****     if ((sTamper->Tamper & RTC_TAMPER_1) != 0U)
ARM GAS  /tmp/ccxe0t7k.s 			page 33


 1119              		.loc 1 661 5 is_stmt 1 view .LVU413
 1120              		.loc 1 661 8 is_stmt 0 view .LVU414
 1121 002a 10F0010F 		tst	r0, #1
 1122 002e 01D0     		beq	.L72
 662:Drivers/STM32F7xx_HAL_Driver/Src/stm32f7xx_hal_rtc_ex.c ****     {
 663:Drivers/STM32F7xx_HAL_Driver/Src/stm32f7xx_hal_rtc_ex.c ****       tmpreg |= (uint32_t)(RTC_TAMPCR_TAMP1NOERASE);
 1123              		.loc 1 663 7 is_stmt 1 view .LVU415
 1124              		.loc 1 663 14 is_stmt 0 view .LVU416
 1125 0030 43F40033 		orr	r3, r3, #131072
 1126              	.LVL87:
 1127              	.L72:
 664:Drivers/STM32F7xx_HAL_Driver/Src/stm32f7xx_hal_rtc_ex.c ****     }
 665:Drivers/STM32F7xx_HAL_Driver/Src/stm32f7xx_hal_rtc_ex.c ****     if ((sTamper->Tamper & RTC_TAMPER_2) != 0U)
 1128              		.loc 1 665 5 is_stmt 1 view .LVU417
 1129              		.loc 1 665 8 is_stmt 0 view .LVU418
 1130 0034 10F0080F 		tst	r0, #8
 1131 0038 01D0     		beq	.L73
 666:Drivers/STM32F7xx_HAL_Driver/Src/stm32f7xx_hal_rtc_ex.c ****     {
 667:Drivers/STM32F7xx_HAL_Driver/Src/stm32f7xx_hal_rtc_ex.c ****       tmpreg |= (uint32_t)(RTC_TAMPCR_TAMP2NOERASE);
 1132              		.loc 1 667 7 is_stmt 1 view .LVU419
 1133              		.loc 1 667 14 is_stmt 0 view .LVU420
 1134 003a 43F48013 		orr	r3, r3, #1048576
 1135              	.LVL88:
 1136              	.L73:
 668:Drivers/STM32F7xx_HAL_Driver/Src/stm32f7xx_hal_rtc_ex.c ****     }
 669:Drivers/STM32F7xx_HAL_Driver/Src/stm32f7xx_hal_rtc_ex.c ****     if ((sTamper->Tamper & RTC_TAMPER_3) != 0U)
 1137              		.loc 1 669 5 is_stmt 1 view .LVU421
 1138              		.loc 1 669 8 is_stmt 0 view .LVU422
 1139 003e 10F0200F 		tst	r0, #32
 1140 0042 01D0     		beq	.L74
 670:Drivers/STM32F7xx_HAL_Driver/Src/stm32f7xx_hal_rtc_ex.c ****     {
 671:Drivers/STM32F7xx_HAL_Driver/Src/stm32f7xx_hal_rtc_ex.c ****       tmpreg |= (uint32_t)(RTC_TAMPCR_TAMP3NOERASE);
 1141              		.loc 1 671 7 is_stmt 1 view .LVU423
 1142              		.loc 1 671 14 is_stmt 0 view .LVU424
 1143 0044 43F40003 		orr	r3, r3, #8388608
 1144              	.LVL89:
 1145              	.L74:
 672:Drivers/STM32F7xx_HAL_Driver/Src/stm32f7xx_hal_rtc_ex.c ****     }
 673:Drivers/STM32F7xx_HAL_Driver/Src/stm32f7xx_hal_rtc_ex.c ****   }
 674:Drivers/STM32F7xx_HAL_Driver/Src/stm32f7xx_hal_rtc_ex.c ****   else
 675:Drivers/STM32F7xx_HAL_Driver/Src/stm32f7xx_hal_rtc_ex.c ****   {
 676:Drivers/STM32F7xx_HAL_Driver/Src/stm32f7xx_hal_rtc_ex.c ****     if ((sTamper->Tamper & RTC_TAMPER_1) != 0U)
 677:Drivers/STM32F7xx_HAL_Driver/Src/stm32f7xx_hal_rtc_ex.c ****     {
 678:Drivers/STM32F7xx_HAL_Driver/Src/stm32f7xx_hal_rtc_ex.c ****       tmpreg &= (uint32_t)~(RTC_TAMPCR_TAMP1NOERASE);
 679:Drivers/STM32F7xx_HAL_Driver/Src/stm32f7xx_hal_rtc_ex.c ****     }
 680:Drivers/STM32F7xx_HAL_Driver/Src/stm32f7xx_hal_rtc_ex.c ****     if ((sTamper->Tamper & RTC_TAMPER_2) != 0U)
 681:Drivers/STM32F7xx_HAL_Driver/Src/stm32f7xx_hal_rtc_ex.c ****     {
 682:Drivers/STM32F7xx_HAL_Driver/Src/stm32f7xx_hal_rtc_ex.c ****       tmpreg &= (uint32_t)~(RTC_TAMPCR_TAMP2NOERASE);
 683:Drivers/STM32F7xx_HAL_Driver/Src/stm32f7xx_hal_rtc_ex.c ****     }
 684:Drivers/STM32F7xx_HAL_Driver/Src/stm32f7xx_hal_rtc_ex.c ****     if ((sTamper->Tamper & RTC_TAMPER_3) != 0U)
 685:Drivers/STM32F7xx_HAL_Driver/Src/stm32f7xx_hal_rtc_ex.c ****     {
 686:Drivers/STM32F7xx_HAL_Driver/Src/stm32f7xx_hal_rtc_ex.c ****       tmpreg &= (uint32_t)~(RTC_TAMPCR_TAMP3NOERASE);
 687:Drivers/STM32F7xx_HAL_Driver/Src/stm32f7xx_hal_rtc_ex.c ****     }
 688:Drivers/STM32F7xx_HAL_Driver/Src/stm32f7xx_hal_rtc_ex.c ****   }
 689:Drivers/STM32F7xx_HAL_Driver/Src/stm32f7xx_hal_rtc_ex.c **** 
 690:Drivers/STM32F7xx_HAL_Driver/Src/stm32f7xx_hal_rtc_ex.c ****   /* Configure the tamper flags masking bits */
 691:Drivers/STM32F7xx_HAL_Driver/Src/stm32f7xx_hal_rtc_ex.c ****   if (sTamper->MaskFlag != RTC_TAMPERMASK_FLAG_DISABLE)
ARM GAS  /tmp/ccxe0t7k.s 			page 34


 1146              		.loc 1 691 3 is_stmt 1 view .LVU425
 1147              		.loc 1 691 6 is_stmt 0 view .LVU426
 1148 0048 0D69     		ldr	r5, [r1, #16]
 1149 004a 002D     		cmp	r5, #0
 1150 004c 3FD0     		beq	.L77
 692:Drivers/STM32F7xx_HAL_Driver/Src/stm32f7xx_hal_rtc_ex.c ****   {
 693:Drivers/STM32F7xx_HAL_Driver/Src/stm32f7xx_hal_rtc_ex.c ****     if ((sTamper->Tamper & RTC_TAMPER_1) != 0U)
 1151              		.loc 1 693 5 is_stmt 1 view .LVU427
 1152              		.loc 1 693 8 is_stmt 0 view .LVU428
 1153 004e 10F0010F 		tst	r0, #1
 1154 0052 01D0     		beq	.L78
 694:Drivers/STM32F7xx_HAL_Driver/Src/stm32f7xx_hal_rtc_ex.c ****     {
 695:Drivers/STM32F7xx_HAL_Driver/Src/stm32f7xx_hal_rtc_ex.c ****       tmpreg |= (uint32_t)(RTC_TAMPCR_TAMP1MF);
 1155              		.loc 1 695 7 is_stmt 1 view .LVU429
 1156              		.loc 1 695 14 is_stmt 0 view .LVU430
 1157 0054 43F48023 		orr	r3, r3, #262144
 1158              	.LVL90:
 1159              	.L78:
 696:Drivers/STM32F7xx_HAL_Driver/Src/stm32f7xx_hal_rtc_ex.c ****     }
 697:Drivers/STM32F7xx_HAL_Driver/Src/stm32f7xx_hal_rtc_ex.c ****     if ((sTamper->Tamper & RTC_TAMPER_2) != 0U)
 1160              		.loc 1 697 5 is_stmt 1 view .LVU431
 1161              		.loc 1 697 8 is_stmt 0 view .LVU432
 1162 0058 10F0080F 		tst	r0, #8
 1163 005c 01D0     		beq	.L79
 698:Drivers/STM32F7xx_HAL_Driver/Src/stm32f7xx_hal_rtc_ex.c ****     {
 699:Drivers/STM32F7xx_HAL_Driver/Src/stm32f7xx_hal_rtc_ex.c ****       tmpreg |= (uint32_t)(RTC_TAMPCR_TAMP2MF);
 1164              		.loc 1 699 7 is_stmt 1 view .LVU433
 1165              		.loc 1 699 14 is_stmt 0 view .LVU434
 1166 005e 43F40013 		orr	r3, r3, #2097152
 1167              	.LVL91:
 1168              	.L79:
 700:Drivers/STM32F7xx_HAL_Driver/Src/stm32f7xx_hal_rtc_ex.c ****     }
 701:Drivers/STM32F7xx_HAL_Driver/Src/stm32f7xx_hal_rtc_ex.c ****     if ((sTamper->Tamper & RTC_TAMPER_3) != 0U)
 1169              		.loc 1 701 5 is_stmt 1 view .LVU435
 1170              		.loc 1 701 8 is_stmt 0 view .LVU436
 1171 0062 10F0200F 		tst	r0, #32
 1172 0066 01D0     		beq	.L80
 702:Drivers/STM32F7xx_HAL_Driver/Src/stm32f7xx_hal_rtc_ex.c ****     {
 703:Drivers/STM32F7xx_HAL_Driver/Src/stm32f7xx_hal_rtc_ex.c ****       tmpreg |= (uint32_t)(RTC_TAMPCR_TAMP3MF);
 1173              		.loc 1 703 7 is_stmt 1 view .LVU437
 1174              		.loc 1 703 14 is_stmt 0 view .LVU438
 1175 0068 43F08073 		orr	r3, r3, #16777216
 1176              	.LVL92:
 1177              	.L80:
 704:Drivers/STM32F7xx_HAL_Driver/Src/stm32f7xx_hal_rtc_ex.c ****     }
 705:Drivers/STM32F7xx_HAL_Driver/Src/stm32f7xx_hal_rtc_ex.c ****   }
 706:Drivers/STM32F7xx_HAL_Driver/Src/stm32f7xx_hal_rtc_ex.c ****   else
 707:Drivers/STM32F7xx_HAL_Driver/Src/stm32f7xx_hal_rtc_ex.c ****   {
 708:Drivers/STM32F7xx_HAL_Driver/Src/stm32f7xx_hal_rtc_ex.c ****     if ((sTamper->Tamper & RTC_TAMPER_1) != 0U)
 709:Drivers/STM32F7xx_HAL_Driver/Src/stm32f7xx_hal_rtc_ex.c ****     {
 710:Drivers/STM32F7xx_HAL_Driver/Src/stm32f7xx_hal_rtc_ex.c ****       tmpreg &= (uint32_t)~(RTC_TAMPCR_TAMP1MF);
 711:Drivers/STM32F7xx_HAL_Driver/Src/stm32f7xx_hal_rtc_ex.c ****     }
 712:Drivers/STM32F7xx_HAL_Driver/Src/stm32f7xx_hal_rtc_ex.c ****     if ((sTamper->Tamper & RTC_TAMPER_2) != 0U)
 713:Drivers/STM32F7xx_HAL_Driver/Src/stm32f7xx_hal_rtc_ex.c ****     {
 714:Drivers/STM32F7xx_HAL_Driver/Src/stm32f7xx_hal_rtc_ex.c ****       tmpreg &= (uint32_t)~(RTC_TAMPCR_TAMP2MF);
 715:Drivers/STM32F7xx_HAL_Driver/Src/stm32f7xx_hal_rtc_ex.c ****     }
 716:Drivers/STM32F7xx_HAL_Driver/Src/stm32f7xx_hal_rtc_ex.c ****     if ((sTamper->Tamper & RTC_TAMPER_3) != 0U)
ARM GAS  /tmp/ccxe0t7k.s 			page 35


 717:Drivers/STM32F7xx_HAL_Driver/Src/stm32f7xx_hal_rtc_ex.c ****     {
 718:Drivers/STM32F7xx_HAL_Driver/Src/stm32f7xx_hal_rtc_ex.c ****       tmpreg &= (uint32_t)~(RTC_TAMPCR_TAMP3MF);
 719:Drivers/STM32F7xx_HAL_Driver/Src/stm32f7xx_hal_rtc_ex.c ****     }
 720:Drivers/STM32F7xx_HAL_Driver/Src/stm32f7xx_hal_rtc_ex.c ****   }
 721:Drivers/STM32F7xx_HAL_Driver/Src/stm32f7xx_hal_rtc_ex.c **** 
 722:Drivers/STM32F7xx_HAL_Driver/Src/stm32f7xx_hal_rtc_ex.c ****   /* Clear remaining fields before setting them */
 723:Drivers/STM32F7xx_HAL_Driver/Src/stm32f7xx_hal_rtc_ex.c ****   tmpreg &= ~(RTC_TAMPERFILTER_MASK              | \
 1178              		.loc 1 723 3 is_stmt 1 view .LVU439
 1179              		.loc 1 723 10 is_stmt 0 view .LVU440
 1180 006c 2148     		ldr	r0, .L89
 1181 006e 1840     		ands	r0, r0, r3
 1182              	.LVL93:
 724:Drivers/STM32F7xx_HAL_Driver/Src/stm32f7xx_hal_rtc_ex.c ****               RTC_TAMPERSAMPLINGFREQ_RTCCLK_MASK | \
 725:Drivers/STM32F7xx_HAL_Driver/Src/stm32f7xx_hal_rtc_ex.c ****               RTC_TAMPERPRECHARGEDURATION_MASK   | \
 726:Drivers/STM32F7xx_HAL_Driver/Src/stm32f7xx_hal_rtc_ex.c ****               RTC_TAMPER_PULLUP_MASK             | \
 727:Drivers/STM32F7xx_HAL_Driver/Src/stm32f7xx_hal_rtc_ex.c ****               RTC_TIMESTAMPONTAMPERDETECTION_MASK);
 728:Drivers/STM32F7xx_HAL_Driver/Src/stm32f7xx_hal_rtc_ex.c **** 
 729:Drivers/STM32F7xx_HAL_Driver/Src/stm32f7xx_hal_rtc_ex.c ****   /* Set remaining parameters of desired configuration into temporary variable */
 730:Drivers/STM32F7xx_HAL_Driver/Src/stm32f7xx_hal_rtc_ex.c ****   tmpreg |= ((uint32_t)sTamper->Filter            | \
 1183              		.loc 1 730 3 is_stmt 1 view .LVU441
 1184              		.loc 1 730 31 is_stmt 0 view .LVU442
 1185 0070 4B69     		ldr	r3, [r1, #20]
 1186              		.loc 1 730 51 view .LVU443
 1187 0072 8D69     		ldr	r5, [r1, #24]
 1188 0074 2B43     		orrs	r3, r3, r5
 731:Drivers/STM32F7xx_HAL_Driver/Src/stm32f7xx_hal_rtc_ex.c ****              (uint32_t)sTamper->SamplingFrequency | \
 1189              		.loc 1 731 51 view .LVU444
 1190 0076 CD69     		ldr	r5, [r1, #28]
 1191 0078 2B43     		orrs	r3, r3, r5
 732:Drivers/STM32F7xx_HAL_Driver/Src/stm32f7xx_hal_rtc_ex.c ****              (uint32_t)sTamper->PrechargeDuration | \
 1192              		.loc 1 732 51 view .LVU445
 1193 007a 0D6A     		ldr	r5, [r1, #32]
 1194 007c 2B43     		orrs	r3, r3, r5
 733:Drivers/STM32F7xx_HAL_Driver/Src/stm32f7xx_hal_rtc_ex.c ****              (uint32_t)sTamper->TamperPullUp      | \
 1195              		.loc 1 733 51 view .LVU446
 1196 007e 4D6A     		ldr	r5, [r1, #36]
 1197 0080 2B43     		orrs	r3, r3, r5
 730:Drivers/STM32F7xx_HAL_Driver/Src/stm32f7xx_hal_rtc_ex.c ****              (uint32_t)sTamper->SamplingFrequency | \
 1198              		.loc 1 730 10 view .LVU447
 1199 0082 0343     		orrs	r3, r3, r0
 1200              	.LVL94:
 734:Drivers/STM32F7xx_HAL_Driver/Src/stm32f7xx_hal_rtc_ex.c ****              (uint32_t)sTamper->TimeStampOnTamperDetection);
 735:Drivers/STM32F7xx_HAL_Driver/Src/stm32f7xx_hal_rtc_ex.c **** 
 736:Drivers/STM32F7xx_HAL_Driver/Src/stm32f7xx_hal_rtc_ex.c ****   /* Enable interrupt on selected tamper */
 737:Drivers/STM32F7xx_HAL_Driver/Src/stm32f7xx_hal_rtc_ex.c ****   tmpreg |= (uint32_t)sTamper->Interrupt;
 1201              		.loc 1 737 3 is_stmt 1 view .LVU448
 1202              		.loc 1 737 30 is_stmt 0 view .LVU449
 1203 0084 4968     		ldr	r1, [r1, #4]
 1204              	.LVL95:
 1205              		.loc 1 737 10 view .LVU450
 1206 0086 0B43     		orrs	r3, r3, r1
 1207              	.LVL96:
 738:Drivers/STM32F7xx_HAL_Driver/Src/stm32f7xx_hal_rtc_ex.c **** 
 739:Drivers/STM32F7xx_HAL_Driver/Src/stm32f7xx_hal_rtc_ex.c ****   /* Copy desired configuration into configuration register */
 740:Drivers/STM32F7xx_HAL_Driver/Src/stm32f7xx_hal_rtc_ex.c ****   hrtc->Instance->TAMPCR = tmpreg;
 1208              		.loc 1 740 3 is_stmt 1 view .LVU451
 1209              		.loc 1 740 26 is_stmt 0 view .LVU452
ARM GAS  /tmp/ccxe0t7k.s 			page 36


 1210 0088 2364     		str	r3, [r4, #64]
 741:Drivers/STM32F7xx_HAL_Driver/Src/stm32f7xx_hal_rtc_ex.c **** 
 742:Drivers/STM32F7xx_HAL_Driver/Src/stm32f7xx_hal_rtc_ex.c ****   /* RTC Tamper Interrupt Configuration: EXTI configuration */
 743:Drivers/STM32F7xx_HAL_Driver/Src/stm32f7xx_hal_rtc_ex.c ****   __HAL_RTC_TAMPER_TIMESTAMP_EXTI_ENABLE_IT();
 1211              		.loc 1 743 3 is_stmt 1 view .LVU453
 1212 008a 1B4B     		ldr	r3, .L89+4
 1213              	.LVL97:
 1214              		.loc 1 743 3 is_stmt 0 view .LVU454
 1215 008c 1968     		ldr	r1, [r3]
 1216 008e 41F40011 		orr	r1, r1, #2097152
 1217 0092 1960     		str	r1, [r3]
 1218              	.LVL98:
 744:Drivers/STM32F7xx_HAL_Driver/Src/stm32f7xx_hal_rtc_ex.c ****   __HAL_RTC_TAMPER_TIMESTAMP_EXTI_ENABLE_RISING_EDGE();
 1219              		.loc 1 744 3 is_stmt 1 view .LVU455
 1220 0094 9968     		ldr	r1, [r3, #8]
 1221 0096 41F40011 		orr	r1, r1, #2097152
 1222 009a 9960     		str	r1, [r3, #8]
 745:Drivers/STM32F7xx_HAL_Driver/Src/stm32f7xx_hal_rtc_ex.c **** 
 746:Drivers/STM32F7xx_HAL_Driver/Src/stm32f7xx_hal_rtc_ex.c ****   hrtc->State = HAL_RTC_STATE_READY;
 1223              		.loc 1 746 3 view .LVU456
 1224              		.loc 1 746 15 is_stmt 0 view .LVU457
 1225 009c 0123     		movs	r3, #1
 1226 009e 5377     		strb	r3, [r2, #29]
 747:Drivers/STM32F7xx_HAL_Driver/Src/stm32f7xx_hal_rtc_ex.c **** 
 748:Drivers/STM32F7xx_HAL_Driver/Src/stm32f7xx_hal_rtc_ex.c ****   /* Process Unlocked */
 749:Drivers/STM32F7xx_HAL_Driver/Src/stm32f7xx_hal_rtc_ex.c ****   __HAL_UNLOCK(hrtc);
 1227              		.loc 1 749 3 is_stmt 1 view .LVU458
 1228              		.loc 1 749 3 view .LVU459
 1229 00a0 0020     		movs	r0, #0
 1230 00a2 1077     		strb	r0, [r2, #28]
 1231              		.loc 1 749 3 view .LVU460
 750:Drivers/STM32F7xx_HAL_Driver/Src/stm32f7xx_hal_rtc_ex.c **** 
 751:Drivers/STM32F7xx_HAL_Driver/Src/stm32f7xx_hal_rtc_ex.c ****   return HAL_OK;
 1232              		.loc 1 751 3 view .LVU461
 752:Drivers/STM32F7xx_HAL_Driver/Src/stm32f7xx_hal_rtc_ex.c **** }
 1233              		.loc 1 752 1 is_stmt 0 view .LVU462
 1234 00a4 30BC     		pop	{r4, r5}
 1235              	.LCFI12:
 1236              		.cfi_remember_state
 1237              		.cfi_restore 5
 1238              		.cfi_restore 4
 1239              		.cfi_def_cfa_offset 0
 1240 00a6 7047     		bx	lr
 1241              	.LVL99:
 1242              	.L88:
 1243              	.LCFI13:
 1244              		.cfi_restore_state
 650:Drivers/STM32F7xx_HAL_Driver/Src/stm32f7xx_hal_rtc_ex.c ****   }
 1245              		.loc 1 650 5 is_stmt 1 view .LVU463
 650:Drivers/STM32F7xx_HAL_Driver/Src/stm32f7xx_hal_rtc_ex.c ****   }
 1246              		.loc 1 650 12 is_stmt 0 view .LVU464
 1247 00a8 43EA4003 		orr	r3, r3, r0, lsl #1
 1248              	.LVL100:
 650:Drivers/STM32F7xx_HAL_Driver/Src/stm32f7xx_hal_rtc_ex.c ****   }
 1249              		.loc 1 650 12 view .LVU465
 1250 00ac BAE7     		b	.L70
 1251              	.L71:
ARM GAS  /tmp/ccxe0t7k.s 			page 37


 676:Drivers/STM32F7xx_HAL_Driver/Src/stm32f7xx_hal_rtc_ex.c ****     {
 1252              		.loc 1 676 5 is_stmt 1 view .LVU466
 676:Drivers/STM32F7xx_HAL_Driver/Src/stm32f7xx_hal_rtc_ex.c ****     {
 1253              		.loc 1 676 8 is_stmt 0 view .LVU467
 1254 00ae 10F0010F 		tst	r0, #1
 1255 00b2 01D0     		beq	.L75
 678:Drivers/STM32F7xx_HAL_Driver/Src/stm32f7xx_hal_rtc_ex.c ****     }
 1256              		.loc 1 678 7 is_stmt 1 view .LVU468
 678:Drivers/STM32F7xx_HAL_Driver/Src/stm32f7xx_hal_rtc_ex.c ****     }
 1257              		.loc 1 678 14 is_stmt 0 view .LVU469
 1258 00b4 23F40033 		bic	r3, r3, #131072
 1259              	.LVL101:
 1260              	.L75:
 680:Drivers/STM32F7xx_HAL_Driver/Src/stm32f7xx_hal_rtc_ex.c ****     {
 1261              		.loc 1 680 5 is_stmt 1 view .LVU470
 680:Drivers/STM32F7xx_HAL_Driver/Src/stm32f7xx_hal_rtc_ex.c ****     {
 1262              		.loc 1 680 8 is_stmt 0 view .LVU471
 1263 00b8 10F0080F 		tst	r0, #8
 1264 00bc 01D0     		beq	.L76
 682:Drivers/STM32F7xx_HAL_Driver/Src/stm32f7xx_hal_rtc_ex.c ****     }
 1265              		.loc 1 682 7 is_stmt 1 view .LVU472
 682:Drivers/STM32F7xx_HAL_Driver/Src/stm32f7xx_hal_rtc_ex.c ****     }
 1266              		.loc 1 682 14 is_stmt 0 view .LVU473
 1267 00be 23F48013 		bic	r3, r3, #1048576
 1268              	.LVL102:
 1269              	.L76:
 684:Drivers/STM32F7xx_HAL_Driver/Src/stm32f7xx_hal_rtc_ex.c ****     {
 1270              		.loc 1 684 5 is_stmt 1 view .LVU474
 684:Drivers/STM32F7xx_HAL_Driver/Src/stm32f7xx_hal_rtc_ex.c ****     {
 1271              		.loc 1 684 8 is_stmt 0 view .LVU475
 1272 00c2 10F0200F 		tst	r0, #32
 1273 00c6 BFD0     		beq	.L74
 686:Drivers/STM32F7xx_HAL_Driver/Src/stm32f7xx_hal_rtc_ex.c ****     }
 1274              		.loc 1 686 7 is_stmt 1 view .LVU476
 686:Drivers/STM32F7xx_HAL_Driver/Src/stm32f7xx_hal_rtc_ex.c ****     }
 1275              		.loc 1 686 14 is_stmt 0 view .LVU477
 1276 00c8 23F40003 		bic	r3, r3, #8388608
 1277              	.LVL103:
 686:Drivers/STM32F7xx_HAL_Driver/Src/stm32f7xx_hal_rtc_ex.c ****     }
 1278              		.loc 1 686 14 view .LVU478
 1279 00cc BCE7     		b	.L74
 1280              	.L77:
 708:Drivers/STM32F7xx_HAL_Driver/Src/stm32f7xx_hal_rtc_ex.c ****     {
 1281              		.loc 1 708 5 is_stmt 1 view .LVU479
 708:Drivers/STM32F7xx_HAL_Driver/Src/stm32f7xx_hal_rtc_ex.c ****     {
 1282              		.loc 1 708 8 is_stmt 0 view .LVU480
 1283 00ce 10F0010F 		tst	r0, #1
 1284 00d2 01D0     		beq	.L81
 710:Drivers/STM32F7xx_HAL_Driver/Src/stm32f7xx_hal_rtc_ex.c ****     }
 1285              		.loc 1 710 7 is_stmt 1 view .LVU481
 710:Drivers/STM32F7xx_HAL_Driver/Src/stm32f7xx_hal_rtc_ex.c ****     }
 1286              		.loc 1 710 14 is_stmt 0 view .LVU482
 1287 00d4 23F48023 		bic	r3, r3, #262144
 1288              	.LVL104:
 1289              	.L81:
 712:Drivers/STM32F7xx_HAL_Driver/Src/stm32f7xx_hal_rtc_ex.c ****     {
 1290              		.loc 1 712 5 is_stmt 1 view .LVU483
ARM GAS  /tmp/ccxe0t7k.s 			page 38


 712:Drivers/STM32F7xx_HAL_Driver/Src/stm32f7xx_hal_rtc_ex.c ****     {
 1291              		.loc 1 712 8 is_stmt 0 view .LVU484
 1292 00d8 10F0080F 		tst	r0, #8
 1293 00dc 01D0     		beq	.L82
 714:Drivers/STM32F7xx_HAL_Driver/Src/stm32f7xx_hal_rtc_ex.c ****     }
 1294              		.loc 1 714 7 is_stmt 1 view .LVU485
 714:Drivers/STM32F7xx_HAL_Driver/Src/stm32f7xx_hal_rtc_ex.c ****     }
 1295              		.loc 1 714 14 is_stmt 0 view .LVU486
 1296 00de 23F40013 		bic	r3, r3, #2097152
 1297              	.LVL105:
 1298              	.L82:
 716:Drivers/STM32F7xx_HAL_Driver/Src/stm32f7xx_hal_rtc_ex.c ****     {
 1299              		.loc 1 716 5 is_stmt 1 view .LVU487
 716:Drivers/STM32F7xx_HAL_Driver/Src/stm32f7xx_hal_rtc_ex.c ****     {
 1300              		.loc 1 716 8 is_stmt 0 view .LVU488
 1301 00e2 10F0200F 		tst	r0, #32
 1302 00e6 C1D0     		beq	.L80
 718:Drivers/STM32F7xx_HAL_Driver/Src/stm32f7xx_hal_rtc_ex.c ****     }
 1303              		.loc 1 718 7 is_stmt 1 view .LVU489
 718:Drivers/STM32F7xx_HAL_Driver/Src/stm32f7xx_hal_rtc_ex.c ****     }
 1304              		.loc 1 718 14 is_stmt 0 view .LVU490
 1305 00e8 23F08073 		bic	r3, r3, #16777216
 1306              	.LVL106:
 718:Drivers/STM32F7xx_HAL_Driver/Src/stm32f7xx_hal_rtc_ex.c ****     }
 1307              		.loc 1 718 14 view .LVU491
 1308 00ec BEE7     		b	.L80
 1309              	.LVL107:
 1310              	.L83:
 1311              	.LCFI14:
 1312              		.cfi_def_cfa_offset 0
 1313              		.cfi_restore 4
 1314              		.cfi_restore 5
 635:Drivers/STM32F7xx_HAL_Driver/Src/stm32f7xx_hal_rtc_ex.c **** 
 1315              		.loc 1 635 3 view .LVU492
 1316 00ee 0220     		movs	r0, #2
 1317              	.LVL108:
 1318              		.loc 1 752 1 view .LVU493
 1319 00f0 7047     		bx	lr
 1320              	.L90:
 1321 00f2 00BF     		.align	2
 1322              	.L89:
 1323 00f4 7F00FFFF 		.word	-65409
 1324 00f8 003C0140 		.word	1073822720
 1325              		.cfi_endproc
 1326              	.LFE148:
 1328              		.section	.text.HAL_RTCEx_DeactivateTamper,"ax",%progbits
 1329              		.align	1
 1330              		.global	HAL_RTCEx_DeactivateTamper
 1331              		.syntax unified
 1332              		.thumb
 1333              		.thumb_func
 1335              	HAL_RTCEx_DeactivateTamper:
 1336              	.LVL109:
 1337              	.LFB149:
 753:Drivers/STM32F7xx_HAL_Driver/Src/stm32f7xx_hal_rtc_ex.c **** 
 754:Drivers/STM32F7xx_HAL_Driver/Src/stm32f7xx_hal_rtc_ex.c **** /**
 755:Drivers/STM32F7xx_HAL_Driver/Src/stm32f7xx_hal_rtc_ex.c ****   * @brief  Deactivates Tamper.
ARM GAS  /tmp/ccxe0t7k.s 			page 39


 756:Drivers/STM32F7xx_HAL_Driver/Src/stm32f7xx_hal_rtc_ex.c ****   * @note   By calling this API the tamper global interrupt will be disabled.
 757:Drivers/STM32F7xx_HAL_Driver/Src/stm32f7xx_hal_rtc_ex.c ****   * @param  hrtc pointer to a RTC_HandleTypeDef structure that contains
 758:Drivers/STM32F7xx_HAL_Driver/Src/stm32f7xx_hal_rtc_ex.c ****   *                the configuration information for RTC.
 759:Drivers/STM32F7xx_HAL_Driver/Src/stm32f7xx_hal_rtc_ex.c ****   * @param  Tamper Selected tamper pin.
 760:Drivers/STM32F7xx_HAL_Driver/Src/stm32f7xx_hal_rtc_ex.c ****   *          This parameter can be any combination of the following values:
 761:Drivers/STM32F7xx_HAL_Driver/Src/stm32f7xx_hal_rtc_ex.c ****   *            @arg RTC_TAMPER_1:  Tamper 1
 762:Drivers/STM32F7xx_HAL_Driver/Src/stm32f7xx_hal_rtc_ex.c ****   *            @arg RTC_TAMPER_2:  Tamper 2
 763:Drivers/STM32F7xx_HAL_Driver/Src/stm32f7xx_hal_rtc_ex.c ****   *            @arg RTC_TAMPER_3:  Tamper 3
 764:Drivers/STM32F7xx_HAL_Driver/Src/stm32f7xx_hal_rtc_ex.c ****   * @retval HAL status
 765:Drivers/STM32F7xx_HAL_Driver/Src/stm32f7xx_hal_rtc_ex.c ****   */
 766:Drivers/STM32F7xx_HAL_Driver/Src/stm32f7xx_hal_rtc_ex.c **** HAL_StatusTypeDef HAL_RTCEx_DeactivateTamper(RTC_HandleTypeDef *hrtc, uint32_t Tamper)
 767:Drivers/STM32F7xx_HAL_Driver/Src/stm32f7xx_hal_rtc_ex.c **** {
 1338              		.loc 1 767 1 is_stmt 1 view -0
 1339              		.cfi_startproc
 1340              		@ args = 0, pretend = 0, frame = 0
 1341              		@ frame_needed = 0, uses_anonymous_args = 0
 1342              		@ link register save eliminated.
 768:Drivers/STM32F7xx_HAL_Driver/Src/stm32f7xx_hal_rtc_ex.c ****   assert_param(IS_RTC_TAMPER(Tamper));
 1343              		.loc 1 768 3 view .LVU495
 769:Drivers/STM32F7xx_HAL_Driver/Src/stm32f7xx_hal_rtc_ex.c **** 
 770:Drivers/STM32F7xx_HAL_Driver/Src/stm32f7xx_hal_rtc_ex.c ****   /* Process Locked */
 771:Drivers/STM32F7xx_HAL_Driver/Src/stm32f7xx_hal_rtc_ex.c ****   __HAL_LOCK(hrtc);
 1344              		.loc 1 771 3 view .LVU496
 1345              		.loc 1 771 3 view .LVU497
 1346 0000 027F     		ldrb	r2, [r0, #28]	@ zero_extendqisi2
 1347 0002 012A     		cmp	r2, #1
 1348 0004 29D0     		beq	.L96
 767:Drivers/STM32F7xx_HAL_Driver/Src/stm32f7xx_hal_rtc_ex.c ****   assert_param(IS_RTC_TAMPER(Tamper));
 1349              		.loc 1 767 1 is_stmt 0 discriminator 2 view .LVU498
 1350 0006 10B4     		push	{r4}
 1351              	.LCFI15:
 1352              		.cfi_def_cfa_offset 4
 1353              		.cfi_offset 4, -4
 1354 0008 0346     		mov	r3, r0
 1355              		.loc 1 771 3 is_stmt 1 discriminator 2 view .LVU499
 1356 000a 0122     		movs	r2, #1
 1357 000c 0277     		strb	r2, [r0, #28]
 1358              		.loc 1 771 3 discriminator 2 view .LVU500
 772:Drivers/STM32F7xx_HAL_Driver/Src/stm32f7xx_hal_rtc_ex.c **** 
 773:Drivers/STM32F7xx_HAL_Driver/Src/stm32f7xx_hal_rtc_ex.c ****   hrtc->State = HAL_RTC_STATE_BUSY;
 1359              		.loc 1 773 3 discriminator 2 view .LVU501
 1360              		.loc 1 773 15 is_stmt 0 discriminator 2 view .LVU502
 1361 000e 0222     		movs	r2, #2
 1362 0010 4277     		strb	r2, [r0, #29]
 774:Drivers/STM32F7xx_HAL_Driver/Src/stm32f7xx_hal_rtc_ex.c **** 
 775:Drivers/STM32F7xx_HAL_Driver/Src/stm32f7xx_hal_rtc_ex.c ****   /* Disable the selected Tamper pin */
 776:Drivers/STM32F7xx_HAL_Driver/Src/stm32f7xx_hal_rtc_ex.c ****   hrtc->Instance->TAMPCR &= (uint32_t)~Tamper;
 1363              		.loc 1 776 3 is_stmt 1 discriminator 2 view .LVU503
 1364              		.loc 1 776 7 is_stmt 0 discriminator 2 view .LVU504
 1365 0012 0068     		ldr	r0, [r0]
 1366              	.LVL110:
 1367              		.loc 1 776 17 discriminator 2 view .LVU505
 1368 0014 026C     		ldr	r2, [r0, #64]
 1369              		.loc 1 776 26 discriminator 2 view .LVU506
 1370 0016 22EA0102 		bic	r2, r2, r1
 1371 001a 0264     		str	r2, [r0, #64]
 777:Drivers/STM32F7xx_HAL_Driver/Src/stm32f7xx_hal_rtc_ex.c **** 
ARM GAS  /tmp/ccxe0t7k.s 			page 40


 778:Drivers/STM32F7xx_HAL_Driver/Src/stm32f7xx_hal_rtc_ex.c ****   if ((Tamper & RTC_TAMPER_1) != 0U)
 1372              		.loc 1 778 3 is_stmt 1 discriminator 2 view .LVU507
 1373              		.loc 1 778 6 is_stmt 0 discriminator 2 view .LVU508
 1374 001c 11F0010F 		tst	r1, #1
 1375 0020 04D0     		beq	.L93
 779:Drivers/STM32F7xx_HAL_Driver/Src/stm32f7xx_hal_rtc_ex.c ****   {
 780:Drivers/STM32F7xx_HAL_Driver/Src/stm32f7xx_hal_rtc_ex.c ****     /* Disable the Tamper 1 interrupt */
 781:Drivers/STM32F7xx_HAL_Driver/Src/stm32f7xx_hal_rtc_ex.c ****     hrtc->Instance->TAMPCR &= (uint32_t)~(RTC_IT_TAMP | RTC_IT_TAMP1);
 1376              		.loc 1 781 5 is_stmt 1 view .LVU509
 1377              		.loc 1 781 9 is_stmt 0 view .LVU510
 1378 0022 1868     		ldr	r0, [r3]
 1379              		.loc 1 781 19 view .LVU511
 1380 0024 046C     		ldr	r4, [r0, #64]
 1381              		.loc 1 781 28 view .LVU512
 1382 0026 0E4A     		ldr	r2, .L101
 1383 0028 2240     		ands	r2, r2, r4
 1384 002a 0264     		str	r2, [r0, #64]
 1385              	.L93:
 782:Drivers/STM32F7xx_HAL_Driver/Src/stm32f7xx_hal_rtc_ex.c ****   }
 783:Drivers/STM32F7xx_HAL_Driver/Src/stm32f7xx_hal_rtc_ex.c ****   if ((Tamper & RTC_TAMPER_2) != 0U)
 1386              		.loc 1 783 3 is_stmt 1 view .LVU513
 1387              		.loc 1 783 6 is_stmt 0 view .LVU514
 1388 002c 11F0080F 		tst	r1, #8
 1389 0030 04D0     		beq	.L94
 784:Drivers/STM32F7xx_HAL_Driver/Src/stm32f7xx_hal_rtc_ex.c ****   {
 785:Drivers/STM32F7xx_HAL_Driver/Src/stm32f7xx_hal_rtc_ex.c ****     /* Disable the Tamper 2 interrupt */
 786:Drivers/STM32F7xx_HAL_Driver/Src/stm32f7xx_hal_rtc_ex.c ****     hrtc->Instance->TAMPCR &= (uint32_t)~(RTC_IT_TAMP | RTC_IT_TAMP2);
 1390              		.loc 1 786 5 is_stmt 1 view .LVU515
 1391              		.loc 1 786 9 is_stmt 0 view .LVU516
 1392 0032 1868     		ldr	r0, [r3]
 1393              		.loc 1 786 19 view .LVU517
 1394 0034 046C     		ldr	r4, [r0, #64]
 1395              		.loc 1 786 28 view .LVU518
 1396 0036 0B4A     		ldr	r2, .L101+4
 1397 0038 2240     		ands	r2, r2, r4
 1398 003a 0264     		str	r2, [r0, #64]
 1399              	.L94:
 787:Drivers/STM32F7xx_HAL_Driver/Src/stm32f7xx_hal_rtc_ex.c ****   }
 788:Drivers/STM32F7xx_HAL_Driver/Src/stm32f7xx_hal_rtc_ex.c ****   if ((Tamper & RTC_TAMPER_3) != 0U)
 1400              		.loc 1 788 3 is_stmt 1 view .LVU519
 1401              		.loc 1 788 6 is_stmt 0 view .LVU520
 1402 003c 11F0200F 		tst	r1, #32
 1403 0040 04D0     		beq	.L95
 789:Drivers/STM32F7xx_HAL_Driver/Src/stm32f7xx_hal_rtc_ex.c ****   {
 790:Drivers/STM32F7xx_HAL_Driver/Src/stm32f7xx_hal_rtc_ex.c ****     /* Disable the Tamper 3 interrupt */
 791:Drivers/STM32F7xx_HAL_Driver/Src/stm32f7xx_hal_rtc_ex.c ****     hrtc->Instance->TAMPCR &= (uint32_t)~(RTC_IT_TAMP | RTC_IT_TAMP3);
 1404              		.loc 1 791 5 is_stmt 1 view .LVU521
 1405              		.loc 1 791 9 is_stmt 0 view .LVU522
 1406 0042 1968     		ldr	r1, [r3]
 1407              	.LVL111:
 1408              		.loc 1 791 19 view .LVU523
 1409 0044 086C     		ldr	r0, [r1, #64]
 1410              		.loc 1 791 28 view .LVU524
 1411 0046 084A     		ldr	r2, .L101+8
 1412 0048 0240     		ands	r2, r2, r0
 1413 004a 0A64     		str	r2, [r1, #64]
 1414              	.L95:
ARM GAS  /tmp/ccxe0t7k.s 			page 41


 792:Drivers/STM32F7xx_HAL_Driver/Src/stm32f7xx_hal_rtc_ex.c ****   }
 793:Drivers/STM32F7xx_HAL_Driver/Src/stm32f7xx_hal_rtc_ex.c **** 
 794:Drivers/STM32F7xx_HAL_Driver/Src/stm32f7xx_hal_rtc_ex.c ****   hrtc->State = HAL_RTC_STATE_READY;
 1415              		.loc 1 794 3 is_stmt 1 view .LVU525
 1416              		.loc 1 794 15 is_stmt 0 view .LVU526
 1417 004c 0122     		movs	r2, #1
 1418 004e 5A77     		strb	r2, [r3, #29]
 795:Drivers/STM32F7xx_HAL_Driver/Src/stm32f7xx_hal_rtc_ex.c **** 
 796:Drivers/STM32F7xx_HAL_Driver/Src/stm32f7xx_hal_rtc_ex.c ****   /* Process Unlocked */
 797:Drivers/STM32F7xx_HAL_Driver/Src/stm32f7xx_hal_rtc_ex.c ****   __HAL_UNLOCK(hrtc);
 1419              		.loc 1 797 3 is_stmt 1 view .LVU527
 1420              		.loc 1 797 3 view .LVU528
 1421 0050 0020     		movs	r0, #0
 1422 0052 1877     		strb	r0, [r3, #28]
 1423              		.loc 1 797 3 view .LVU529
 798:Drivers/STM32F7xx_HAL_Driver/Src/stm32f7xx_hal_rtc_ex.c **** 
 799:Drivers/STM32F7xx_HAL_Driver/Src/stm32f7xx_hal_rtc_ex.c ****   return HAL_OK;
 1424              		.loc 1 799 3 view .LVU530
 800:Drivers/STM32F7xx_HAL_Driver/Src/stm32f7xx_hal_rtc_ex.c **** }
 1425              		.loc 1 800 1 is_stmt 0 view .LVU531
 1426 0054 5DF8044B 		ldr	r4, [sp], #4
 1427              	.LCFI16:
 1428              		.cfi_restore 4
 1429              		.cfi_def_cfa_offset 0
 1430 0058 7047     		bx	lr
 1431              	.LVL112:
 1432              	.L96:
 771:Drivers/STM32F7xx_HAL_Driver/Src/stm32f7xx_hal_rtc_ex.c **** 
 1433              		.loc 1 771 3 view .LVU532
 1434 005a 0220     		movs	r0, #2
 1435              	.LVL113:
 1436              		.loc 1 800 1 view .LVU533
 1437 005c 7047     		bx	lr
 1438              	.L102:
 1439 005e 00BF     		.align	2
 1440              	.L101:
 1441 0060 FBFFFEFF 		.word	-65541
 1442 0064 FBFFF7FF 		.word	-524293
 1443 0068 FBFFBFFF 		.word	-4194309
 1444              		.cfi_endproc
 1445              	.LFE149:
 1447              		.section	.text.HAL_RTCEx_TimeStampEventCallback,"ax",%progbits
 1448              		.align	1
 1449              		.weak	HAL_RTCEx_TimeStampEventCallback
 1450              		.syntax unified
 1451              		.thumb
 1452              		.thumb_func
 1454              	HAL_RTCEx_TimeStampEventCallback:
 1455              	.LVL114:
 1456              	.LFB151:
 801:Drivers/STM32F7xx_HAL_Driver/Src/stm32f7xx_hal_rtc_ex.c **** 
 802:Drivers/STM32F7xx_HAL_Driver/Src/stm32f7xx_hal_rtc_ex.c **** /**
 803:Drivers/STM32F7xx_HAL_Driver/Src/stm32f7xx_hal_rtc_ex.c ****   * @brief  Handles Timestamp and Tamper interrupt request.
 804:Drivers/STM32F7xx_HAL_Driver/Src/stm32f7xx_hal_rtc_ex.c ****   * @param  hrtc pointer to a RTC_HandleTypeDef structure that contains
 805:Drivers/STM32F7xx_HAL_Driver/Src/stm32f7xx_hal_rtc_ex.c ****   *                the configuration information for RTC.
 806:Drivers/STM32F7xx_HAL_Driver/Src/stm32f7xx_hal_rtc_ex.c ****   * @retval None
 807:Drivers/STM32F7xx_HAL_Driver/Src/stm32f7xx_hal_rtc_ex.c ****   */
ARM GAS  /tmp/ccxe0t7k.s 			page 42


 808:Drivers/STM32F7xx_HAL_Driver/Src/stm32f7xx_hal_rtc_ex.c **** void HAL_RTCEx_TamperTimeStampIRQHandler(RTC_HandleTypeDef *hrtc)
 809:Drivers/STM32F7xx_HAL_Driver/Src/stm32f7xx_hal_rtc_ex.c **** {
 810:Drivers/STM32F7xx_HAL_Driver/Src/stm32f7xx_hal_rtc_ex.c ****   /* Clear the EXTI's Flag for RTC Timestamp and Tamper */
 811:Drivers/STM32F7xx_HAL_Driver/Src/stm32f7xx_hal_rtc_ex.c ****   __HAL_RTC_TAMPER_TIMESTAMP_EXTI_CLEAR_FLAG();
 812:Drivers/STM32F7xx_HAL_Driver/Src/stm32f7xx_hal_rtc_ex.c **** 
 813:Drivers/STM32F7xx_HAL_Driver/Src/stm32f7xx_hal_rtc_ex.c ****   /* Get the Timestamp interrupt source enable status */
 814:Drivers/STM32F7xx_HAL_Driver/Src/stm32f7xx_hal_rtc_ex.c ****   if (__HAL_RTC_TIMESTAMP_GET_IT_SOURCE(hrtc, RTC_IT_TS) != 0U)
 815:Drivers/STM32F7xx_HAL_Driver/Src/stm32f7xx_hal_rtc_ex.c ****   {
 816:Drivers/STM32F7xx_HAL_Driver/Src/stm32f7xx_hal_rtc_ex.c ****     /* Get the pending status of the Timestamp Interrupt */
 817:Drivers/STM32F7xx_HAL_Driver/Src/stm32f7xx_hal_rtc_ex.c ****     if (__HAL_RTC_TIMESTAMP_GET_FLAG(hrtc, RTC_FLAG_TSF) != 0U)
 818:Drivers/STM32F7xx_HAL_Driver/Src/stm32f7xx_hal_rtc_ex.c ****     {
 819:Drivers/STM32F7xx_HAL_Driver/Src/stm32f7xx_hal_rtc_ex.c ****       /* Timestamp callback */
 820:Drivers/STM32F7xx_HAL_Driver/Src/stm32f7xx_hal_rtc_ex.c **** #if (USE_HAL_RTC_REGISTER_CALLBACKS == 1)
 821:Drivers/STM32F7xx_HAL_Driver/Src/stm32f7xx_hal_rtc_ex.c ****       hrtc->TimeStampEventCallback(hrtc);
 822:Drivers/STM32F7xx_HAL_Driver/Src/stm32f7xx_hal_rtc_ex.c **** #else
 823:Drivers/STM32F7xx_HAL_Driver/Src/stm32f7xx_hal_rtc_ex.c ****       HAL_RTCEx_TimeStampEventCallback(hrtc);
 824:Drivers/STM32F7xx_HAL_Driver/Src/stm32f7xx_hal_rtc_ex.c **** #endif /* USE_HAL_RTC_REGISTER_CALLBACKS */
 825:Drivers/STM32F7xx_HAL_Driver/Src/stm32f7xx_hal_rtc_ex.c **** 
 826:Drivers/STM32F7xx_HAL_Driver/Src/stm32f7xx_hal_rtc_ex.c ****       /* Clear the Timestamp interrupt pending bit after returning from callback
 827:Drivers/STM32F7xx_HAL_Driver/Src/stm32f7xx_hal_rtc_ex.c ****          as RTC_TSTR and RTC_TSDR registers are cleared when TSF bit is reset */
 828:Drivers/STM32F7xx_HAL_Driver/Src/stm32f7xx_hal_rtc_ex.c ****       __HAL_RTC_TIMESTAMP_CLEAR_FLAG(hrtc, RTC_FLAG_TSF);
 829:Drivers/STM32F7xx_HAL_Driver/Src/stm32f7xx_hal_rtc_ex.c ****     }
 830:Drivers/STM32F7xx_HAL_Driver/Src/stm32f7xx_hal_rtc_ex.c ****   }
 831:Drivers/STM32F7xx_HAL_Driver/Src/stm32f7xx_hal_rtc_ex.c **** 
 832:Drivers/STM32F7xx_HAL_Driver/Src/stm32f7xx_hal_rtc_ex.c ****   /* Get the Tamper 1 interrupt source enable status */
 833:Drivers/STM32F7xx_HAL_Driver/Src/stm32f7xx_hal_rtc_ex.c ****   if (__HAL_RTC_TAMPER_GET_IT_SOURCE(hrtc, RTC_IT_TAMP | RTC_IT_TAMP1) != 0U)
 834:Drivers/STM32F7xx_HAL_Driver/Src/stm32f7xx_hal_rtc_ex.c ****   {
 835:Drivers/STM32F7xx_HAL_Driver/Src/stm32f7xx_hal_rtc_ex.c ****     /* Get the pending status of the Tamper 1 Interrupt */
 836:Drivers/STM32F7xx_HAL_Driver/Src/stm32f7xx_hal_rtc_ex.c ****     if (__HAL_RTC_TAMPER_GET_FLAG(hrtc, RTC_FLAG_TAMP1F) != 0U)
 837:Drivers/STM32F7xx_HAL_Driver/Src/stm32f7xx_hal_rtc_ex.c ****     {
 838:Drivers/STM32F7xx_HAL_Driver/Src/stm32f7xx_hal_rtc_ex.c ****       /* Clear the Tamper interrupt pending bit */
 839:Drivers/STM32F7xx_HAL_Driver/Src/stm32f7xx_hal_rtc_ex.c ****       __HAL_RTC_TAMPER_CLEAR_FLAG(hrtc, RTC_FLAG_TAMP1F);
 840:Drivers/STM32F7xx_HAL_Driver/Src/stm32f7xx_hal_rtc_ex.c **** 
 841:Drivers/STM32F7xx_HAL_Driver/Src/stm32f7xx_hal_rtc_ex.c ****       /* Tamper callback */
 842:Drivers/STM32F7xx_HAL_Driver/Src/stm32f7xx_hal_rtc_ex.c **** #if (USE_HAL_RTC_REGISTER_CALLBACKS == 1)
 843:Drivers/STM32F7xx_HAL_Driver/Src/stm32f7xx_hal_rtc_ex.c ****       hrtc->Tamper1EventCallback(hrtc);
 844:Drivers/STM32F7xx_HAL_Driver/Src/stm32f7xx_hal_rtc_ex.c **** #else
 845:Drivers/STM32F7xx_HAL_Driver/Src/stm32f7xx_hal_rtc_ex.c ****       HAL_RTCEx_Tamper1EventCallback(hrtc);
 846:Drivers/STM32F7xx_HAL_Driver/Src/stm32f7xx_hal_rtc_ex.c **** #endif /* USE_HAL_RTC_REGISTER_CALLBACKS */
 847:Drivers/STM32F7xx_HAL_Driver/Src/stm32f7xx_hal_rtc_ex.c ****     }
 848:Drivers/STM32F7xx_HAL_Driver/Src/stm32f7xx_hal_rtc_ex.c ****   }
 849:Drivers/STM32F7xx_HAL_Driver/Src/stm32f7xx_hal_rtc_ex.c **** 
 850:Drivers/STM32F7xx_HAL_Driver/Src/stm32f7xx_hal_rtc_ex.c ****   /* Get the Tamper 2 interrupt source enable status */
 851:Drivers/STM32F7xx_HAL_Driver/Src/stm32f7xx_hal_rtc_ex.c ****   if (__HAL_RTC_TAMPER_GET_IT_SOURCE(hrtc, RTC_IT_TAMP | RTC_IT_TAMP2) != 0U)
 852:Drivers/STM32F7xx_HAL_Driver/Src/stm32f7xx_hal_rtc_ex.c ****   {
 853:Drivers/STM32F7xx_HAL_Driver/Src/stm32f7xx_hal_rtc_ex.c ****     /* Get the pending status of the Tamper 2 Interrupt */
 854:Drivers/STM32F7xx_HAL_Driver/Src/stm32f7xx_hal_rtc_ex.c ****     if (__HAL_RTC_TAMPER_GET_FLAG(hrtc, RTC_FLAG_TAMP2F) != 0U)
 855:Drivers/STM32F7xx_HAL_Driver/Src/stm32f7xx_hal_rtc_ex.c ****     {
 856:Drivers/STM32F7xx_HAL_Driver/Src/stm32f7xx_hal_rtc_ex.c ****       /* Clear the Tamper interrupt pending bit */
 857:Drivers/STM32F7xx_HAL_Driver/Src/stm32f7xx_hal_rtc_ex.c ****       __HAL_RTC_TAMPER_CLEAR_FLAG(hrtc, RTC_FLAG_TAMP2F);
 858:Drivers/STM32F7xx_HAL_Driver/Src/stm32f7xx_hal_rtc_ex.c **** 
 859:Drivers/STM32F7xx_HAL_Driver/Src/stm32f7xx_hal_rtc_ex.c ****       /* Tamper callback */
 860:Drivers/STM32F7xx_HAL_Driver/Src/stm32f7xx_hal_rtc_ex.c **** #if (USE_HAL_RTC_REGISTER_CALLBACKS == 1)
 861:Drivers/STM32F7xx_HAL_Driver/Src/stm32f7xx_hal_rtc_ex.c ****       hrtc->Tamper2EventCallback(hrtc);
 862:Drivers/STM32F7xx_HAL_Driver/Src/stm32f7xx_hal_rtc_ex.c **** #else
 863:Drivers/STM32F7xx_HAL_Driver/Src/stm32f7xx_hal_rtc_ex.c ****       HAL_RTCEx_Tamper2EventCallback(hrtc);
 864:Drivers/STM32F7xx_HAL_Driver/Src/stm32f7xx_hal_rtc_ex.c **** #endif /* USE_HAL_RTC_REGISTER_CALLBACKS */
ARM GAS  /tmp/ccxe0t7k.s 			page 43


 865:Drivers/STM32F7xx_HAL_Driver/Src/stm32f7xx_hal_rtc_ex.c ****     }
 866:Drivers/STM32F7xx_HAL_Driver/Src/stm32f7xx_hal_rtc_ex.c ****   }
 867:Drivers/STM32F7xx_HAL_Driver/Src/stm32f7xx_hal_rtc_ex.c **** 
 868:Drivers/STM32F7xx_HAL_Driver/Src/stm32f7xx_hal_rtc_ex.c ****   /* Get the Tamper 3 interrupt source enable status */
 869:Drivers/STM32F7xx_HAL_Driver/Src/stm32f7xx_hal_rtc_ex.c ****   if (__HAL_RTC_TAMPER_GET_IT_SOURCE(hrtc, RTC_IT_TAMP | RTC_IT_TAMP3) != 0U)
 870:Drivers/STM32F7xx_HAL_Driver/Src/stm32f7xx_hal_rtc_ex.c ****   {
 871:Drivers/STM32F7xx_HAL_Driver/Src/stm32f7xx_hal_rtc_ex.c ****     /* Get the pending status of the Tamper 3 Interrupt */
 872:Drivers/STM32F7xx_HAL_Driver/Src/stm32f7xx_hal_rtc_ex.c ****     if (__HAL_RTC_TAMPER_GET_FLAG(hrtc, RTC_FLAG_TAMP3F) != 0U)
 873:Drivers/STM32F7xx_HAL_Driver/Src/stm32f7xx_hal_rtc_ex.c ****     {
 874:Drivers/STM32F7xx_HAL_Driver/Src/stm32f7xx_hal_rtc_ex.c ****       /* Clear the Tamper interrupt pending bit */
 875:Drivers/STM32F7xx_HAL_Driver/Src/stm32f7xx_hal_rtc_ex.c ****       __HAL_RTC_TAMPER_CLEAR_FLAG(hrtc, RTC_FLAG_TAMP3F);
 876:Drivers/STM32F7xx_HAL_Driver/Src/stm32f7xx_hal_rtc_ex.c **** 
 877:Drivers/STM32F7xx_HAL_Driver/Src/stm32f7xx_hal_rtc_ex.c ****       /* Tamper callback */
 878:Drivers/STM32F7xx_HAL_Driver/Src/stm32f7xx_hal_rtc_ex.c **** #if (USE_HAL_RTC_REGISTER_CALLBACKS == 1)
 879:Drivers/STM32F7xx_HAL_Driver/Src/stm32f7xx_hal_rtc_ex.c ****       hrtc->Tamper3EventCallback(hrtc);
 880:Drivers/STM32F7xx_HAL_Driver/Src/stm32f7xx_hal_rtc_ex.c **** #else
 881:Drivers/STM32F7xx_HAL_Driver/Src/stm32f7xx_hal_rtc_ex.c ****       HAL_RTCEx_Tamper3EventCallback(hrtc);
 882:Drivers/STM32F7xx_HAL_Driver/Src/stm32f7xx_hal_rtc_ex.c **** #endif /* USE_HAL_RTC_REGISTER_CALLBACKS */
 883:Drivers/STM32F7xx_HAL_Driver/Src/stm32f7xx_hal_rtc_ex.c ****     }
 884:Drivers/STM32F7xx_HAL_Driver/Src/stm32f7xx_hal_rtc_ex.c ****   }
 885:Drivers/STM32F7xx_HAL_Driver/Src/stm32f7xx_hal_rtc_ex.c **** 
 886:Drivers/STM32F7xx_HAL_Driver/Src/stm32f7xx_hal_rtc_ex.c ****   /* Change RTC state */
 887:Drivers/STM32F7xx_HAL_Driver/Src/stm32f7xx_hal_rtc_ex.c ****   hrtc->State = HAL_RTC_STATE_READY;
 888:Drivers/STM32F7xx_HAL_Driver/Src/stm32f7xx_hal_rtc_ex.c **** }
 889:Drivers/STM32F7xx_HAL_Driver/Src/stm32f7xx_hal_rtc_ex.c **** 
 890:Drivers/STM32F7xx_HAL_Driver/Src/stm32f7xx_hal_rtc_ex.c **** /**
 891:Drivers/STM32F7xx_HAL_Driver/Src/stm32f7xx_hal_rtc_ex.c ****   * @brief  Timestamp callback.
 892:Drivers/STM32F7xx_HAL_Driver/Src/stm32f7xx_hal_rtc_ex.c ****   * @param  hrtc pointer to a RTC_HandleTypeDef structure that contains
 893:Drivers/STM32F7xx_HAL_Driver/Src/stm32f7xx_hal_rtc_ex.c ****   *                the configuration information for RTC.
 894:Drivers/STM32F7xx_HAL_Driver/Src/stm32f7xx_hal_rtc_ex.c ****   * @retval None
 895:Drivers/STM32F7xx_HAL_Driver/Src/stm32f7xx_hal_rtc_ex.c ****   */
 896:Drivers/STM32F7xx_HAL_Driver/Src/stm32f7xx_hal_rtc_ex.c **** __weak void HAL_RTCEx_TimeStampEventCallback(RTC_HandleTypeDef *hrtc)
 897:Drivers/STM32F7xx_HAL_Driver/Src/stm32f7xx_hal_rtc_ex.c **** {
 1457              		.loc 1 897 1 is_stmt 1 view -0
 1458              		.cfi_startproc
 1459              		@ args = 0, pretend = 0, frame = 0
 1460              		@ frame_needed = 0, uses_anonymous_args = 0
 1461              		@ link register save eliminated.
 898:Drivers/STM32F7xx_HAL_Driver/Src/stm32f7xx_hal_rtc_ex.c ****   /* Prevent unused argument(s) compilation warning */
 899:Drivers/STM32F7xx_HAL_Driver/Src/stm32f7xx_hal_rtc_ex.c ****   UNUSED(hrtc);
 1462              		.loc 1 899 3 view .LVU535
 900:Drivers/STM32F7xx_HAL_Driver/Src/stm32f7xx_hal_rtc_ex.c **** 
 901:Drivers/STM32F7xx_HAL_Driver/Src/stm32f7xx_hal_rtc_ex.c ****   /* NOTE: This function should not be modified, when the callback is needed,
 902:Drivers/STM32F7xx_HAL_Driver/Src/stm32f7xx_hal_rtc_ex.c ****            the HAL_RTCEx_TimeStampEventCallback could be implemented in the user file
 903:Drivers/STM32F7xx_HAL_Driver/Src/stm32f7xx_hal_rtc_ex.c ****   */
 904:Drivers/STM32F7xx_HAL_Driver/Src/stm32f7xx_hal_rtc_ex.c **** }
 1463              		.loc 1 904 1 is_stmt 0 view .LVU536
 1464 0000 7047     		bx	lr
 1465              		.cfi_endproc
 1466              	.LFE151:
 1468              		.section	.text.HAL_RTCEx_Tamper1EventCallback,"ax",%progbits
 1469              		.align	1
 1470              		.weak	HAL_RTCEx_Tamper1EventCallback
 1471              		.syntax unified
 1472              		.thumb
 1473              		.thumb_func
 1475              	HAL_RTCEx_Tamper1EventCallback:
ARM GAS  /tmp/ccxe0t7k.s 			page 44


 1476              	.LVL115:
 1477              	.LFB152:
 905:Drivers/STM32F7xx_HAL_Driver/Src/stm32f7xx_hal_rtc_ex.c **** 
 906:Drivers/STM32F7xx_HAL_Driver/Src/stm32f7xx_hal_rtc_ex.c **** /**
 907:Drivers/STM32F7xx_HAL_Driver/Src/stm32f7xx_hal_rtc_ex.c ****   * @brief  Tamper 1 callback.
 908:Drivers/STM32F7xx_HAL_Driver/Src/stm32f7xx_hal_rtc_ex.c ****   * @param  hrtc pointer to a RTC_HandleTypeDef structure that contains
 909:Drivers/STM32F7xx_HAL_Driver/Src/stm32f7xx_hal_rtc_ex.c ****   *                the configuration information for RTC.
 910:Drivers/STM32F7xx_HAL_Driver/Src/stm32f7xx_hal_rtc_ex.c ****   * @retval None
 911:Drivers/STM32F7xx_HAL_Driver/Src/stm32f7xx_hal_rtc_ex.c ****   */
 912:Drivers/STM32F7xx_HAL_Driver/Src/stm32f7xx_hal_rtc_ex.c **** __weak void HAL_RTCEx_Tamper1EventCallback(RTC_HandleTypeDef *hrtc)
 913:Drivers/STM32F7xx_HAL_Driver/Src/stm32f7xx_hal_rtc_ex.c **** {
 1478              		.loc 1 913 1 is_stmt 1 view -0
 1479              		.cfi_startproc
 1480              		@ args = 0, pretend = 0, frame = 0
 1481              		@ frame_needed = 0, uses_anonymous_args = 0
 1482              		@ link register save eliminated.
 914:Drivers/STM32F7xx_HAL_Driver/Src/stm32f7xx_hal_rtc_ex.c ****   /* Prevent unused argument(s) compilation warning */
 915:Drivers/STM32F7xx_HAL_Driver/Src/stm32f7xx_hal_rtc_ex.c ****   UNUSED(hrtc);
 1483              		.loc 1 915 3 view .LVU538
 916:Drivers/STM32F7xx_HAL_Driver/Src/stm32f7xx_hal_rtc_ex.c **** 
 917:Drivers/STM32F7xx_HAL_Driver/Src/stm32f7xx_hal_rtc_ex.c ****   /* NOTE: This function should not be modified, when the callback is needed,
 918:Drivers/STM32F7xx_HAL_Driver/Src/stm32f7xx_hal_rtc_ex.c ****            the HAL_RTCEx_Tamper1EventCallback could be implemented in the user file
 919:Drivers/STM32F7xx_HAL_Driver/Src/stm32f7xx_hal_rtc_ex.c ****    */
 920:Drivers/STM32F7xx_HAL_Driver/Src/stm32f7xx_hal_rtc_ex.c **** }
 1484              		.loc 1 920 1 is_stmt 0 view .LVU539
 1485 0000 7047     		bx	lr
 1486              		.cfi_endproc
 1487              	.LFE152:
 1489              		.section	.text.HAL_RTCEx_Tamper2EventCallback,"ax",%progbits
 1490              		.align	1
 1491              		.weak	HAL_RTCEx_Tamper2EventCallback
 1492              		.syntax unified
 1493              		.thumb
 1494              		.thumb_func
 1496              	HAL_RTCEx_Tamper2EventCallback:
 1497              	.LVL116:
 1498              	.LFB153:
 921:Drivers/STM32F7xx_HAL_Driver/Src/stm32f7xx_hal_rtc_ex.c **** 
 922:Drivers/STM32F7xx_HAL_Driver/Src/stm32f7xx_hal_rtc_ex.c **** /**
 923:Drivers/STM32F7xx_HAL_Driver/Src/stm32f7xx_hal_rtc_ex.c ****   * @brief  Tamper 2 callback.
 924:Drivers/STM32F7xx_HAL_Driver/Src/stm32f7xx_hal_rtc_ex.c ****   * @param  hrtc pointer to a RTC_HandleTypeDef structure that contains
 925:Drivers/STM32F7xx_HAL_Driver/Src/stm32f7xx_hal_rtc_ex.c ****   *                the configuration information for RTC.
 926:Drivers/STM32F7xx_HAL_Driver/Src/stm32f7xx_hal_rtc_ex.c ****   * @retval None
 927:Drivers/STM32F7xx_HAL_Driver/Src/stm32f7xx_hal_rtc_ex.c ****   */
 928:Drivers/STM32F7xx_HAL_Driver/Src/stm32f7xx_hal_rtc_ex.c **** __weak void HAL_RTCEx_Tamper2EventCallback(RTC_HandleTypeDef *hrtc)
 929:Drivers/STM32F7xx_HAL_Driver/Src/stm32f7xx_hal_rtc_ex.c **** {
 1499              		.loc 1 929 1 is_stmt 1 view -0
 1500              		.cfi_startproc
 1501              		@ args = 0, pretend = 0, frame = 0
 1502              		@ frame_needed = 0, uses_anonymous_args = 0
 1503              		@ link register save eliminated.
 930:Drivers/STM32F7xx_HAL_Driver/Src/stm32f7xx_hal_rtc_ex.c ****   /* Prevent unused argument(s) compilation warning */
 931:Drivers/STM32F7xx_HAL_Driver/Src/stm32f7xx_hal_rtc_ex.c ****   UNUSED(hrtc);
 1504              		.loc 1 931 3 view .LVU541
 932:Drivers/STM32F7xx_HAL_Driver/Src/stm32f7xx_hal_rtc_ex.c **** 
 933:Drivers/STM32F7xx_HAL_Driver/Src/stm32f7xx_hal_rtc_ex.c ****   /* NOTE: This function should not be modified, when the callback is needed,
 934:Drivers/STM32F7xx_HAL_Driver/Src/stm32f7xx_hal_rtc_ex.c ****            the HAL_RTCEx_Tamper2EventCallback could be implemented in the user file
ARM GAS  /tmp/ccxe0t7k.s 			page 45


 935:Drivers/STM32F7xx_HAL_Driver/Src/stm32f7xx_hal_rtc_ex.c ****    */
 936:Drivers/STM32F7xx_HAL_Driver/Src/stm32f7xx_hal_rtc_ex.c **** }
 1505              		.loc 1 936 1 is_stmt 0 view .LVU542
 1506 0000 7047     		bx	lr
 1507              		.cfi_endproc
 1508              	.LFE153:
 1510              		.section	.text.HAL_RTCEx_Tamper3EventCallback,"ax",%progbits
 1511              		.align	1
 1512              		.weak	HAL_RTCEx_Tamper3EventCallback
 1513              		.syntax unified
 1514              		.thumb
 1515              		.thumb_func
 1517              	HAL_RTCEx_Tamper3EventCallback:
 1518              	.LVL117:
 1519              	.LFB154:
 937:Drivers/STM32F7xx_HAL_Driver/Src/stm32f7xx_hal_rtc_ex.c **** 
 938:Drivers/STM32F7xx_HAL_Driver/Src/stm32f7xx_hal_rtc_ex.c **** /**
 939:Drivers/STM32F7xx_HAL_Driver/Src/stm32f7xx_hal_rtc_ex.c ****   * @brief  Tamper 3 callback.
 940:Drivers/STM32F7xx_HAL_Driver/Src/stm32f7xx_hal_rtc_ex.c ****   * @param  hrtc pointer to a RTC_HandleTypeDef structure that contains
 941:Drivers/STM32F7xx_HAL_Driver/Src/stm32f7xx_hal_rtc_ex.c ****   *                the configuration information for RTC.
 942:Drivers/STM32F7xx_HAL_Driver/Src/stm32f7xx_hal_rtc_ex.c ****   * @retval None
 943:Drivers/STM32F7xx_HAL_Driver/Src/stm32f7xx_hal_rtc_ex.c ****   */
 944:Drivers/STM32F7xx_HAL_Driver/Src/stm32f7xx_hal_rtc_ex.c **** __weak void HAL_RTCEx_Tamper3EventCallback(RTC_HandleTypeDef *hrtc)
 945:Drivers/STM32F7xx_HAL_Driver/Src/stm32f7xx_hal_rtc_ex.c **** {
 1520              		.loc 1 945 1 is_stmt 1 view -0
 1521              		.cfi_startproc
 1522              		@ args = 0, pretend = 0, frame = 0
 1523              		@ frame_needed = 0, uses_anonymous_args = 0
 1524              		@ link register save eliminated.
 946:Drivers/STM32F7xx_HAL_Driver/Src/stm32f7xx_hal_rtc_ex.c ****   /* Prevent unused argument(s) compilation warning */
 947:Drivers/STM32F7xx_HAL_Driver/Src/stm32f7xx_hal_rtc_ex.c ****   UNUSED(hrtc);
 1525              		.loc 1 947 3 view .LVU544
 948:Drivers/STM32F7xx_HAL_Driver/Src/stm32f7xx_hal_rtc_ex.c **** 
 949:Drivers/STM32F7xx_HAL_Driver/Src/stm32f7xx_hal_rtc_ex.c ****   /* NOTE: This function should not be modified, when the callback is needed,
 950:Drivers/STM32F7xx_HAL_Driver/Src/stm32f7xx_hal_rtc_ex.c ****            the HAL_RTCEx_Tamper3EventCallback could be implemented in the user file
 951:Drivers/STM32F7xx_HAL_Driver/Src/stm32f7xx_hal_rtc_ex.c ****    */
 952:Drivers/STM32F7xx_HAL_Driver/Src/stm32f7xx_hal_rtc_ex.c **** }
 1526              		.loc 1 952 1 is_stmt 0 view .LVU545
 1527 0000 7047     		bx	lr
 1528              		.cfi_endproc
 1529              	.LFE154:
 1531              		.section	.text.HAL_RTCEx_TamperTimeStampIRQHandler,"ax",%progbits
 1532              		.align	1
 1533              		.global	HAL_RTCEx_TamperTimeStampIRQHandler
 1534              		.syntax unified
 1535              		.thumb
 1536              		.thumb_func
 1538              	HAL_RTCEx_TamperTimeStampIRQHandler:
 1539              	.LVL118:
 1540              	.LFB150:
 809:Drivers/STM32F7xx_HAL_Driver/Src/stm32f7xx_hal_rtc_ex.c ****   /* Clear the EXTI's Flag for RTC Timestamp and Tamper */
 1541              		.loc 1 809 1 is_stmt 1 view -0
 1542              		.cfi_startproc
 1543              		@ args = 0, pretend = 0, frame = 0
 1544              		@ frame_needed = 0, uses_anonymous_args = 0
 809:Drivers/STM32F7xx_HAL_Driver/Src/stm32f7xx_hal_rtc_ex.c ****   /* Clear the EXTI's Flag for RTC Timestamp and Tamper */
 1545              		.loc 1 809 1 is_stmt 0 view .LVU547
ARM GAS  /tmp/ccxe0t7k.s 			page 46


 1546 0000 10B5     		push	{r4, lr}
 1547              	.LCFI17:
 1548              		.cfi_def_cfa_offset 8
 1549              		.cfi_offset 4, -8
 1550              		.cfi_offset 14, -4
 1551 0002 0446     		mov	r4, r0
 811:Drivers/STM32F7xx_HAL_Driver/Src/stm32f7xx_hal_rtc_ex.c **** 
 1552              		.loc 1 811 3 is_stmt 1 view .LVU548
 1553 0004 2A4B     		ldr	r3, .L117
 1554 0006 4FF40012 		mov	r2, #2097152
 1555 000a 5A61     		str	r2, [r3, #20]
 814:Drivers/STM32F7xx_HAL_Driver/Src/stm32f7xx_hal_rtc_ex.c ****   {
 1556              		.loc 1 814 3 view .LVU549
 814:Drivers/STM32F7xx_HAL_Driver/Src/stm32f7xx_hal_rtc_ex.c ****   {
 1557              		.loc 1 814 7 is_stmt 0 view .LVU550
 1558 000c 0368     		ldr	r3, [r0]
 1559 000e 9A68     		ldr	r2, [r3, #8]
 814:Drivers/STM32F7xx_HAL_Driver/Src/stm32f7xx_hal_rtc_ex.c ****   {
 1560              		.loc 1 814 6 view .LVU551
 1561 0010 12F4004F 		tst	r2, #32768
 1562 0014 03D0     		beq	.L108
 817:Drivers/STM32F7xx_HAL_Driver/Src/stm32f7xx_hal_rtc_ex.c ****     {
 1563              		.loc 1 817 5 is_stmt 1 view .LVU552
 817:Drivers/STM32F7xx_HAL_Driver/Src/stm32f7xx_hal_rtc_ex.c ****     {
 1564              		.loc 1 817 9 is_stmt 0 view .LVU553
 1565 0016 DB68     		ldr	r3, [r3, #12]
 817:Drivers/STM32F7xx_HAL_Driver/Src/stm32f7xx_hal_rtc_ex.c ****     {
 1566              		.loc 1 817 8 view .LVU554
 1567 0018 13F4006F 		tst	r3, #2048
 1568 001c 1DD1     		bne	.L113
 1569              	.LVL119:
 1570              	.L108:
 833:Drivers/STM32F7xx_HAL_Driver/Src/stm32f7xx_hal_rtc_ex.c ****   {
 1571              		.loc 1 833 3 is_stmt 1 view .LVU555
 833:Drivers/STM32F7xx_HAL_Driver/Src/stm32f7xx_hal_rtc_ex.c ****   {
 1572              		.loc 1 833 7 is_stmt 0 view .LVU556
 1573 001e 2268     		ldr	r2, [r4]
 1574 0020 116C     		ldr	r1, [r2, #64]
 1575 0022 244B     		ldr	r3, .L117+4
 1576 0024 0B40     		ands	r3, r3, r1
 833:Drivers/STM32F7xx_HAL_Driver/Src/stm32f7xx_hal_rtc_ex.c ****   {
 1577              		.loc 1 833 6 view .LVU557
 1578 0026 1BB1     		cbz	r3, .L109
 836:Drivers/STM32F7xx_HAL_Driver/Src/stm32f7xx_hal_rtc_ex.c ****     {
 1579              		.loc 1 836 5 is_stmt 1 view .LVU558
 836:Drivers/STM32F7xx_HAL_Driver/Src/stm32f7xx_hal_rtc_ex.c ****     {
 1580              		.loc 1 836 9 is_stmt 0 view .LVU559
 1581 0028 D368     		ldr	r3, [r2, #12]
 836:Drivers/STM32F7xx_HAL_Driver/Src/stm32f7xx_hal_rtc_ex.c ****     {
 1582              		.loc 1 836 8 view .LVU560
 1583 002a 13F4005F 		tst	r3, #8192
 1584 002e 1DD1     		bne	.L114
 1585              	.L109:
 851:Drivers/STM32F7xx_HAL_Driver/Src/stm32f7xx_hal_rtc_ex.c ****   {
 1586              		.loc 1 851 3 is_stmt 1 view .LVU561
 851:Drivers/STM32F7xx_HAL_Driver/Src/stm32f7xx_hal_rtc_ex.c ****   {
 1587              		.loc 1 851 7 is_stmt 0 view .LVU562
ARM GAS  /tmp/ccxe0t7k.s 			page 47


 1588 0030 2268     		ldr	r2, [r4]
 1589 0032 116C     		ldr	r1, [r2, #64]
 1590 0034 204B     		ldr	r3, .L117+8
 1591 0036 0B40     		ands	r3, r3, r1
 851:Drivers/STM32F7xx_HAL_Driver/Src/stm32f7xx_hal_rtc_ex.c ****   {
 1592              		.loc 1 851 6 view .LVU563
 1593 0038 1BB1     		cbz	r3, .L110
 854:Drivers/STM32F7xx_HAL_Driver/Src/stm32f7xx_hal_rtc_ex.c ****     {
 1594              		.loc 1 854 5 is_stmt 1 view .LVU564
 854:Drivers/STM32F7xx_HAL_Driver/Src/stm32f7xx_hal_rtc_ex.c ****     {
 1595              		.loc 1 854 9 is_stmt 0 view .LVU565
 1596 003a D368     		ldr	r3, [r2, #12]
 854:Drivers/STM32F7xx_HAL_Driver/Src/stm32f7xx_hal_rtc_ex.c ****     {
 1597              		.loc 1 854 8 view .LVU566
 1598 003c 13F4804F 		tst	r3, #16384
 1599 0040 1DD1     		bne	.L115
 1600              	.L110:
 869:Drivers/STM32F7xx_HAL_Driver/Src/stm32f7xx_hal_rtc_ex.c ****   {
 1601              		.loc 1 869 3 is_stmt 1 view .LVU567
 869:Drivers/STM32F7xx_HAL_Driver/Src/stm32f7xx_hal_rtc_ex.c ****   {
 1602              		.loc 1 869 7 is_stmt 0 view .LVU568
 1603 0042 2268     		ldr	r2, [r4]
 1604 0044 116C     		ldr	r1, [r2, #64]
 1605 0046 1D4B     		ldr	r3, .L117+12
 1606 0048 0B40     		ands	r3, r3, r1
 869:Drivers/STM32F7xx_HAL_Driver/Src/stm32f7xx_hal_rtc_ex.c ****   {
 1607              		.loc 1 869 6 view .LVU569
 1608 004a 1BB1     		cbz	r3, .L111
 872:Drivers/STM32F7xx_HAL_Driver/Src/stm32f7xx_hal_rtc_ex.c ****     {
 1609              		.loc 1 872 5 is_stmt 1 view .LVU570
 872:Drivers/STM32F7xx_HAL_Driver/Src/stm32f7xx_hal_rtc_ex.c ****     {
 1610              		.loc 1 872 9 is_stmt 0 view .LVU571
 1611 004c D368     		ldr	r3, [r2, #12]
 872:Drivers/STM32F7xx_HAL_Driver/Src/stm32f7xx_hal_rtc_ex.c ****     {
 1612              		.loc 1 872 8 view .LVU572
 1613 004e 13F4004F 		tst	r3, #32768
 1614 0052 1DD1     		bne	.L116
 1615              	.L111:
 887:Drivers/STM32F7xx_HAL_Driver/Src/stm32f7xx_hal_rtc_ex.c **** }
 1616              		.loc 1 887 3 is_stmt 1 view .LVU573
 887:Drivers/STM32F7xx_HAL_Driver/Src/stm32f7xx_hal_rtc_ex.c **** }
 1617              		.loc 1 887 15 is_stmt 0 view .LVU574
 1618 0054 0123     		movs	r3, #1
 1619 0056 6377     		strb	r3, [r4, #29]
 888:Drivers/STM32F7xx_HAL_Driver/Src/stm32f7xx_hal_rtc_ex.c **** 
 1620              		.loc 1 888 1 view .LVU575
 1621 0058 10BD     		pop	{r4, pc}
 1622              	.LVL120:
 1623              	.L113:
 823:Drivers/STM32F7xx_HAL_Driver/Src/stm32f7xx_hal_rtc_ex.c **** #endif /* USE_HAL_RTC_REGISTER_CALLBACKS */
 1624              		.loc 1 823 7 is_stmt 1 view .LVU576
 1625 005a FFF7FEFF 		bl	HAL_RTCEx_TimeStampEventCallback
 1626              	.LVL121:
 828:Drivers/STM32F7xx_HAL_Driver/Src/stm32f7xx_hal_rtc_ex.c ****     }
 1627              		.loc 1 828 7 view .LVU577
 1628 005e 2268     		ldr	r2, [r4]
 1629 0060 D368     		ldr	r3, [r2, #12]
ARM GAS  /tmp/ccxe0t7k.s 			page 48


 1630 0062 DBB2     		uxtb	r3, r3
 1631 0064 63F40863 		orn	r3, r3, #2176
 1632 0068 D360     		str	r3, [r2, #12]
 1633 006a D8E7     		b	.L108
 1634              	.L114:
 839:Drivers/STM32F7xx_HAL_Driver/Src/stm32f7xx_hal_rtc_ex.c **** 
 1635              		.loc 1 839 7 view .LVU578
 1636 006c D368     		ldr	r3, [r2, #12]
 1637 006e DBB2     		uxtb	r3, r3
 1638 0070 63F40253 		orn	r3, r3, #8320
 1639 0074 D360     		str	r3, [r2, #12]
 845:Drivers/STM32F7xx_HAL_Driver/Src/stm32f7xx_hal_rtc_ex.c **** #endif /* USE_HAL_RTC_REGISTER_CALLBACKS */
 1640              		.loc 1 845 7 view .LVU579
 1641 0076 2046     		mov	r0, r4
 1642 0078 FFF7FEFF 		bl	HAL_RTCEx_Tamper1EventCallback
 1643              	.LVL122:
 1644 007c D8E7     		b	.L109
 1645              	.L115:
 857:Drivers/STM32F7xx_HAL_Driver/Src/stm32f7xx_hal_rtc_ex.c **** 
 1646              		.loc 1 857 7 view .LVU580
 1647 007e D368     		ldr	r3, [r2, #12]
 1648 0080 DBB2     		uxtb	r3, r3
 1649 0082 63F48143 		orn	r3, r3, #16512
 1650 0086 D360     		str	r3, [r2, #12]
 863:Drivers/STM32F7xx_HAL_Driver/Src/stm32f7xx_hal_rtc_ex.c **** #endif /* USE_HAL_RTC_REGISTER_CALLBACKS */
 1651              		.loc 1 863 7 view .LVU581
 1652 0088 2046     		mov	r0, r4
 1653 008a FFF7FEFF 		bl	HAL_RTCEx_Tamper2EventCallback
 1654              	.LVL123:
 1655 008e D8E7     		b	.L110
 1656              	.L116:
 875:Drivers/STM32F7xx_HAL_Driver/Src/stm32f7xx_hal_rtc_ex.c **** 
 1657              		.loc 1 875 7 view .LVU582
 1658 0090 D368     		ldr	r3, [r2, #12]
 1659 0092 DBB2     		uxtb	r3, r3
 1660 0094 43F07F43 		orr	r3, r3, #-16777216
 1661 0098 43F47F03 		orr	r3, r3, #16711680
 1662 009c 43F4FE43 		orr	r3, r3, #32512
 1663 00a0 43F07F03 		orr	r3, r3, #127
 1664 00a4 D360     		str	r3, [r2, #12]
 881:Drivers/STM32F7xx_HAL_Driver/Src/stm32f7xx_hal_rtc_ex.c **** #endif /* USE_HAL_RTC_REGISTER_CALLBACKS */
 1665              		.loc 1 881 7 view .LVU583
 1666 00a6 2046     		mov	r0, r4
 1667 00a8 FFF7FEFF 		bl	HAL_RTCEx_Tamper3EventCallback
 1668              	.LVL124:
 1669 00ac D2E7     		b	.L111
 1670              	.L118:
 1671 00ae 00BF     		.align	2
 1672              	.L117:
 1673 00b0 003C0140 		.word	1073822720
 1674 00b4 04000100 		.word	65540
 1675 00b8 04000800 		.word	524292
 1676 00bc 04004000 		.word	4194308
 1677              		.cfi_endproc
 1678              	.LFE150:
 1680              		.section	.text.HAL_RTCEx_PollForTimeStampEvent,"ax",%progbits
 1681              		.align	1
ARM GAS  /tmp/ccxe0t7k.s 			page 49


 1682              		.global	HAL_RTCEx_PollForTimeStampEvent
 1683              		.syntax unified
 1684              		.thumb
 1685              		.thumb_func
 1687              	HAL_RTCEx_PollForTimeStampEvent:
 1688              	.LVL125:
 1689              	.LFB155:
 953:Drivers/STM32F7xx_HAL_Driver/Src/stm32f7xx_hal_rtc_ex.c **** 
 954:Drivers/STM32F7xx_HAL_Driver/Src/stm32f7xx_hal_rtc_ex.c **** /**
 955:Drivers/STM32F7xx_HAL_Driver/Src/stm32f7xx_hal_rtc_ex.c ****   * @brief  Handles Timestamp polling request.
 956:Drivers/STM32F7xx_HAL_Driver/Src/stm32f7xx_hal_rtc_ex.c ****   * @param  hrtc pointer to a RTC_HandleTypeDef structure that contains
 957:Drivers/STM32F7xx_HAL_Driver/Src/stm32f7xx_hal_rtc_ex.c ****   *                the configuration information for RTC.
 958:Drivers/STM32F7xx_HAL_Driver/Src/stm32f7xx_hal_rtc_ex.c ****   * @param  Timeout Timeout duration
 959:Drivers/STM32F7xx_HAL_Driver/Src/stm32f7xx_hal_rtc_ex.c ****   * @retval HAL status
 960:Drivers/STM32F7xx_HAL_Driver/Src/stm32f7xx_hal_rtc_ex.c ****   */
 961:Drivers/STM32F7xx_HAL_Driver/Src/stm32f7xx_hal_rtc_ex.c **** HAL_StatusTypeDef HAL_RTCEx_PollForTimeStampEvent(RTC_HandleTypeDef *hrtc, uint32_t Timeout)
 962:Drivers/STM32F7xx_HAL_Driver/Src/stm32f7xx_hal_rtc_ex.c **** {
 1690              		.loc 1 962 1 view -0
 1691              		.cfi_startproc
 1692              		@ args = 0, pretend = 0, frame = 0
 1693              		@ frame_needed = 0, uses_anonymous_args = 0
 1694              		.loc 1 962 1 is_stmt 0 view .LVU585
 1695 0000 70B5     		push	{r4, r5, r6, lr}
 1696              	.LCFI18:
 1697              		.cfi_def_cfa_offset 16
 1698              		.cfi_offset 4, -16
 1699              		.cfi_offset 5, -12
 1700              		.cfi_offset 6, -8
 1701              		.cfi_offset 14, -4
 1702 0002 0546     		mov	r5, r0
 1703 0004 0C46     		mov	r4, r1
 963:Drivers/STM32F7xx_HAL_Driver/Src/stm32f7xx_hal_rtc_ex.c ****   uint32_t tickstart = 0U;
 1704              		.loc 1 963 3 is_stmt 1 view .LVU586
 1705              	.LVL126:
 964:Drivers/STM32F7xx_HAL_Driver/Src/stm32f7xx_hal_rtc_ex.c **** 
 965:Drivers/STM32F7xx_HAL_Driver/Src/stm32f7xx_hal_rtc_ex.c ****   /* Get tick */
 966:Drivers/STM32F7xx_HAL_Driver/Src/stm32f7xx_hal_rtc_ex.c ****   tickstart = HAL_GetTick();
 1706              		.loc 1 966 3 view .LVU587
 1707              		.loc 1 966 15 is_stmt 0 view .LVU588
 1708 0006 FFF7FEFF 		bl	HAL_GetTick
 1709              	.LVL127:
 1710              		.loc 1 966 15 view .LVU589
 1711 000a 0646     		mov	r6, r0
 1712              	.LVL128:
 967:Drivers/STM32F7xx_HAL_Driver/Src/stm32f7xx_hal_rtc_ex.c **** 
 968:Drivers/STM32F7xx_HAL_Driver/Src/stm32f7xx_hal_rtc_ex.c ****   while (__HAL_RTC_TIMESTAMP_GET_FLAG(hrtc, RTC_FLAG_TSF) == 0U)
 1713              		.loc 1 968 3 is_stmt 1 view .LVU590
 1714              		.loc 1 968 9 is_stmt 0 view .LVU591
 1715 000c 04E0     		b	.L120
 1716              	.LVL129:
 1717              	.L121:
 969:Drivers/STM32F7xx_HAL_Driver/Src/stm32f7xx_hal_rtc_ex.c ****   {
 970:Drivers/STM32F7xx_HAL_Driver/Src/stm32f7xx_hal_rtc_ex.c ****     if (Timeout != HAL_MAX_DELAY)
 971:Drivers/STM32F7xx_HAL_Driver/Src/stm32f7xx_hal_rtc_ex.c ****     {
 972:Drivers/STM32F7xx_HAL_Driver/Src/stm32f7xx_hal_rtc_ex.c ****       if ((Timeout == 0U) || ((HAL_GetTick() - tickstart) > Timeout))
 973:Drivers/STM32F7xx_HAL_Driver/Src/stm32f7xx_hal_rtc_ex.c ****       {
 974:Drivers/STM32F7xx_HAL_Driver/Src/stm32f7xx_hal_rtc_ex.c ****         hrtc->State = HAL_RTC_STATE_TIMEOUT;
ARM GAS  /tmp/ccxe0t7k.s 			page 50


 975:Drivers/STM32F7xx_HAL_Driver/Src/stm32f7xx_hal_rtc_ex.c ****         return HAL_TIMEOUT;
 976:Drivers/STM32F7xx_HAL_Driver/Src/stm32f7xx_hal_rtc_ex.c ****       }
 977:Drivers/STM32F7xx_HAL_Driver/Src/stm32f7xx_hal_rtc_ex.c ****     }
 978:Drivers/STM32F7xx_HAL_Driver/Src/stm32f7xx_hal_rtc_ex.c **** 
 979:Drivers/STM32F7xx_HAL_Driver/Src/stm32f7xx_hal_rtc_ex.c ****     if (__HAL_RTC_TIMESTAMP_GET_FLAG(hrtc, RTC_FLAG_TSOVF) != 0U)
 1718              		.loc 1 979 5 is_stmt 1 view .LVU592
 1719              		.loc 1 979 9 is_stmt 0 view .LVU593
 1720 000e 2B68     		ldr	r3, [r5]
 1721 0010 DA68     		ldr	r2, [r3, #12]
 1722              		.loc 1 979 8 view .LVU594
 1723 0012 12F4805F 		tst	r2, #4096
 1724 0016 10D1     		bne	.L126
 1725              	.L120:
 968:Drivers/STM32F7xx_HAL_Driver/Src/stm32f7xx_hal_rtc_ex.c ****   {
 1726              		.loc 1 968 59 is_stmt 1 view .LVU595
 968:Drivers/STM32F7xx_HAL_Driver/Src/stm32f7xx_hal_rtc_ex.c ****   {
 1727              		.loc 1 968 10 is_stmt 0 view .LVU596
 1728 0018 2B68     		ldr	r3, [r5]
 1729 001a DB68     		ldr	r3, [r3, #12]
 968:Drivers/STM32F7xx_HAL_Driver/Src/stm32f7xx_hal_rtc_ex.c ****   {
 1730              		.loc 1 968 59 view .LVU597
 1731 001c 13F4006F 		tst	r3, #2048
 1732 0020 14D1     		bne	.L127
 970:Drivers/STM32F7xx_HAL_Driver/Src/stm32f7xx_hal_rtc_ex.c ****     {
 1733              		.loc 1 970 5 is_stmt 1 view .LVU598
 970:Drivers/STM32F7xx_HAL_Driver/Src/stm32f7xx_hal_rtc_ex.c ****     {
 1734              		.loc 1 970 8 is_stmt 0 view .LVU599
 1735 0022 B4F1FF3F 		cmp	r4, #-1
 1736 0026 F2D0     		beq	.L121
 972:Drivers/STM32F7xx_HAL_Driver/Src/stm32f7xx_hal_rtc_ex.c ****       {
 1737              		.loc 1 972 7 is_stmt 1 view .LVU600
 972:Drivers/STM32F7xx_HAL_Driver/Src/stm32f7xx_hal_rtc_ex.c ****       {
 1738              		.loc 1 972 10 is_stmt 0 view .LVU601
 1739 0028 24B1     		cbz	r4, .L122
 972:Drivers/STM32F7xx_HAL_Driver/Src/stm32f7xx_hal_rtc_ex.c ****       {
 1740              		.loc 1 972 32 discriminator 1 view .LVU602
 1741 002a FFF7FEFF 		bl	HAL_GetTick
 1742              	.LVL130:
 972:Drivers/STM32F7xx_HAL_Driver/Src/stm32f7xx_hal_rtc_ex.c ****       {
 1743              		.loc 1 972 46 discriminator 1 view .LVU603
 1744 002e 831B     		subs	r3, r0, r6
 972:Drivers/STM32F7xx_HAL_Driver/Src/stm32f7xx_hal_rtc_ex.c ****       {
 1745              		.loc 1 972 27 discriminator 1 view .LVU604
 1746 0030 A342     		cmp	r3, r4
 1747 0032 ECD9     		bls	.L121
 1748              	.L122:
 974:Drivers/STM32F7xx_HAL_Driver/Src/stm32f7xx_hal_rtc_ex.c ****         return HAL_TIMEOUT;
 1749              		.loc 1 974 9 is_stmt 1 view .LVU605
 974:Drivers/STM32F7xx_HAL_Driver/Src/stm32f7xx_hal_rtc_ex.c ****         return HAL_TIMEOUT;
 1750              		.loc 1 974 21 is_stmt 0 view .LVU606
 1751 0034 0320     		movs	r0, #3
 1752 0036 6877     		strb	r0, [r5, #29]
 975:Drivers/STM32F7xx_HAL_Driver/Src/stm32f7xx_hal_rtc_ex.c ****       }
 1753              		.loc 1 975 9 is_stmt 1 view .LVU607
 1754              	.L123:
 980:Drivers/STM32F7xx_HAL_Driver/Src/stm32f7xx_hal_rtc_ex.c ****     {
 981:Drivers/STM32F7xx_HAL_Driver/Src/stm32f7xx_hal_rtc_ex.c ****       /* Clear the Timestamp Overrun Flag */
ARM GAS  /tmp/ccxe0t7k.s 			page 51


 982:Drivers/STM32F7xx_HAL_Driver/Src/stm32f7xx_hal_rtc_ex.c ****       __HAL_RTC_TIMESTAMP_CLEAR_FLAG(hrtc, RTC_FLAG_TSOVF);
 983:Drivers/STM32F7xx_HAL_Driver/Src/stm32f7xx_hal_rtc_ex.c **** 
 984:Drivers/STM32F7xx_HAL_Driver/Src/stm32f7xx_hal_rtc_ex.c ****       /* Change Timestamp state */
 985:Drivers/STM32F7xx_HAL_Driver/Src/stm32f7xx_hal_rtc_ex.c ****       hrtc->State = HAL_RTC_STATE_ERROR;
 986:Drivers/STM32F7xx_HAL_Driver/Src/stm32f7xx_hal_rtc_ex.c **** 
 987:Drivers/STM32F7xx_HAL_Driver/Src/stm32f7xx_hal_rtc_ex.c ****       return HAL_ERROR;
 988:Drivers/STM32F7xx_HAL_Driver/Src/stm32f7xx_hal_rtc_ex.c ****     }
 989:Drivers/STM32F7xx_HAL_Driver/Src/stm32f7xx_hal_rtc_ex.c ****   }
 990:Drivers/STM32F7xx_HAL_Driver/Src/stm32f7xx_hal_rtc_ex.c **** 
 991:Drivers/STM32F7xx_HAL_Driver/Src/stm32f7xx_hal_rtc_ex.c ****   /* Change RTC state */
 992:Drivers/STM32F7xx_HAL_Driver/Src/stm32f7xx_hal_rtc_ex.c ****   hrtc->State = HAL_RTC_STATE_READY;
 993:Drivers/STM32F7xx_HAL_Driver/Src/stm32f7xx_hal_rtc_ex.c **** 
 994:Drivers/STM32F7xx_HAL_Driver/Src/stm32f7xx_hal_rtc_ex.c ****   return HAL_OK;
 995:Drivers/STM32F7xx_HAL_Driver/Src/stm32f7xx_hal_rtc_ex.c **** }
 1755              		.loc 1 995 1 is_stmt 0 view .LVU608
 1756 0038 70BD     		pop	{r4, r5, r6, pc}
 1757              	.LVL131:
 1758              	.L126:
 982:Drivers/STM32F7xx_HAL_Driver/Src/stm32f7xx_hal_rtc_ex.c **** 
 1759              		.loc 1 982 7 is_stmt 1 view .LVU609
 1760 003a DA68     		ldr	r2, [r3, #12]
 1761 003c D2B2     		uxtb	r2, r2
 1762 003e 62F48452 		orn	r2, r2, #4224
 1763 0042 DA60     		str	r2, [r3, #12]
 985:Drivers/STM32F7xx_HAL_Driver/Src/stm32f7xx_hal_rtc_ex.c **** 
 1764              		.loc 1 985 7 view .LVU610
 985:Drivers/STM32F7xx_HAL_Driver/Src/stm32f7xx_hal_rtc_ex.c **** 
 1765              		.loc 1 985 19 is_stmt 0 view .LVU611
 1766 0044 0423     		movs	r3, #4
 1767 0046 6B77     		strb	r3, [r5, #29]
 987:Drivers/STM32F7xx_HAL_Driver/Src/stm32f7xx_hal_rtc_ex.c ****     }
 1768              		.loc 1 987 7 is_stmt 1 view .LVU612
 987:Drivers/STM32F7xx_HAL_Driver/Src/stm32f7xx_hal_rtc_ex.c ****     }
 1769              		.loc 1 987 14 is_stmt 0 view .LVU613
 1770 0048 0120     		movs	r0, #1
 1771 004a F5E7     		b	.L123
 1772              	.L127:
 992:Drivers/STM32F7xx_HAL_Driver/Src/stm32f7xx_hal_rtc_ex.c **** 
 1773              		.loc 1 992 3 is_stmt 1 view .LVU614
 992:Drivers/STM32F7xx_HAL_Driver/Src/stm32f7xx_hal_rtc_ex.c **** 
 1774              		.loc 1 992 15 is_stmt 0 view .LVU615
 1775 004c 0123     		movs	r3, #1
 1776 004e 6B77     		strb	r3, [r5, #29]
 994:Drivers/STM32F7xx_HAL_Driver/Src/stm32f7xx_hal_rtc_ex.c **** }
 1777              		.loc 1 994 3 is_stmt 1 view .LVU616
 994:Drivers/STM32F7xx_HAL_Driver/Src/stm32f7xx_hal_rtc_ex.c **** }
 1778              		.loc 1 994 10 is_stmt 0 view .LVU617
 1779 0050 0020     		movs	r0, #0
 1780 0052 F1E7     		b	.L123
 1781              		.cfi_endproc
 1782              	.LFE155:
 1784              		.section	.text.HAL_RTCEx_PollForTamper1Event,"ax",%progbits
 1785              		.align	1
 1786              		.global	HAL_RTCEx_PollForTamper1Event
 1787              		.syntax unified
 1788              		.thumb
 1789              		.thumb_func
ARM GAS  /tmp/ccxe0t7k.s 			page 52


 1791              	HAL_RTCEx_PollForTamper1Event:
 1792              	.LVL132:
 1793              	.LFB156:
 996:Drivers/STM32F7xx_HAL_Driver/Src/stm32f7xx_hal_rtc_ex.c **** 
 997:Drivers/STM32F7xx_HAL_Driver/Src/stm32f7xx_hal_rtc_ex.c **** /**
 998:Drivers/STM32F7xx_HAL_Driver/Src/stm32f7xx_hal_rtc_ex.c ****   * @brief  Handles Tamper 1 Polling.
 999:Drivers/STM32F7xx_HAL_Driver/Src/stm32f7xx_hal_rtc_ex.c ****   * @param  hrtc pointer to a RTC_HandleTypeDef structure that contains
1000:Drivers/STM32F7xx_HAL_Driver/Src/stm32f7xx_hal_rtc_ex.c ****   *                the configuration information for RTC.
1001:Drivers/STM32F7xx_HAL_Driver/Src/stm32f7xx_hal_rtc_ex.c ****   * @param  Timeout Timeout duration
1002:Drivers/STM32F7xx_HAL_Driver/Src/stm32f7xx_hal_rtc_ex.c ****   * @retval HAL status
1003:Drivers/STM32F7xx_HAL_Driver/Src/stm32f7xx_hal_rtc_ex.c ****   */
1004:Drivers/STM32F7xx_HAL_Driver/Src/stm32f7xx_hal_rtc_ex.c **** HAL_StatusTypeDef HAL_RTCEx_PollForTamper1Event(RTC_HandleTypeDef *hrtc, uint32_t Timeout)
1005:Drivers/STM32F7xx_HAL_Driver/Src/stm32f7xx_hal_rtc_ex.c **** {
 1794              		.loc 1 1005 1 is_stmt 1 view -0
 1795              		.cfi_startproc
 1796              		@ args = 0, pretend = 0, frame = 0
 1797              		@ frame_needed = 0, uses_anonymous_args = 0
 1798              		.loc 1 1005 1 is_stmt 0 view .LVU619
 1799 0000 70B5     		push	{r4, r5, r6, lr}
 1800              	.LCFI19:
 1801              		.cfi_def_cfa_offset 16
 1802              		.cfi_offset 4, -16
 1803              		.cfi_offset 5, -12
 1804              		.cfi_offset 6, -8
 1805              		.cfi_offset 14, -4
 1806 0002 0446     		mov	r4, r0
 1807 0004 0D46     		mov	r5, r1
1006:Drivers/STM32F7xx_HAL_Driver/Src/stm32f7xx_hal_rtc_ex.c ****   uint32_t tickstart = 0U;
 1808              		.loc 1 1006 3 is_stmt 1 view .LVU620
 1809              	.LVL133:
1007:Drivers/STM32F7xx_HAL_Driver/Src/stm32f7xx_hal_rtc_ex.c **** 
1008:Drivers/STM32F7xx_HAL_Driver/Src/stm32f7xx_hal_rtc_ex.c ****   /* Get tick */
1009:Drivers/STM32F7xx_HAL_Driver/Src/stm32f7xx_hal_rtc_ex.c ****   tickstart = HAL_GetTick();
 1810              		.loc 1 1009 3 view .LVU621
 1811              		.loc 1 1009 15 is_stmt 0 view .LVU622
 1812 0006 FFF7FEFF 		bl	HAL_GetTick
 1813              	.LVL134:
 1814              		.loc 1 1009 15 view .LVU623
 1815 000a 0646     		mov	r6, r0
 1816              	.LVL135:
1010:Drivers/STM32F7xx_HAL_Driver/Src/stm32f7xx_hal_rtc_ex.c **** 
1011:Drivers/STM32F7xx_HAL_Driver/Src/stm32f7xx_hal_rtc_ex.c ****   /* Get the status of the Interrupt */
1012:Drivers/STM32F7xx_HAL_Driver/Src/stm32f7xx_hal_rtc_ex.c ****   while (__HAL_RTC_TAMPER_GET_FLAG(hrtc, RTC_FLAG_TAMP1F) == 0U)
 1817              		.loc 1 1012 3 is_stmt 1 view .LVU624
 1818              	.L130:
 1819              		.loc 1 1012 59 view .LVU625
 1820              		.loc 1 1012 10 is_stmt 0 view .LVU626
 1821 000c 2368     		ldr	r3, [r4]
 1822 000e DA68     		ldr	r2, [r3, #12]
 1823              		.loc 1 1012 59 view .LVU627
 1824 0010 12F4005F 		tst	r2, #8192
 1825 0014 0BD1     		bne	.L135
1013:Drivers/STM32F7xx_HAL_Driver/Src/stm32f7xx_hal_rtc_ex.c ****   {
1014:Drivers/STM32F7xx_HAL_Driver/Src/stm32f7xx_hal_rtc_ex.c ****     if (Timeout != HAL_MAX_DELAY)
 1826              		.loc 1 1014 5 is_stmt 1 view .LVU628
 1827              		.loc 1 1014 8 is_stmt 0 view .LVU629
 1828 0016 B5F1FF3F 		cmp	r5, #-1
ARM GAS  /tmp/ccxe0t7k.s 			page 53


 1829 001a F7D0     		beq	.L130
1015:Drivers/STM32F7xx_HAL_Driver/Src/stm32f7xx_hal_rtc_ex.c ****     {
1016:Drivers/STM32F7xx_HAL_Driver/Src/stm32f7xx_hal_rtc_ex.c ****       if ((Timeout == 0U) || ((HAL_GetTick() - tickstart) > Timeout))
 1830              		.loc 1 1016 7 is_stmt 1 view .LVU630
 1831              		.loc 1 1016 10 is_stmt 0 view .LVU631
 1832 001c 25B1     		cbz	r5, .L131
 1833              		.loc 1 1016 32 discriminator 1 view .LVU632
 1834 001e FFF7FEFF 		bl	HAL_GetTick
 1835              	.LVL136:
 1836              		.loc 1 1016 46 discriminator 1 view .LVU633
 1837 0022 801B     		subs	r0, r0, r6
 1838              		.loc 1 1016 27 discriminator 1 view .LVU634
 1839 0024 A842     		cmp	r0, r5
 1840 0026 F1D9     		bls	.L130
 1841              	.L131:
1017:Drivers/STM32F7xx_HAL_Driver/Src/stm32f7xx_hal_rtc_ex.c ****       {
1018:Drivers/STM32F7xx_HAL_Driver/Src/stm32f7xx_hal_rtc_ex.c ****         hrtc->State = HAL_RTC_STATE_TIMEOUT;
 1842              		.loc 1 1018 9 is_stmt 1 view .LVU635
 1843              		.loc 1 1018 21 is_stmt 0 view .LVU636
 1844 0028 0320     		movs	r0, #3
 1845 002a 6077     		strb	r0, [r4, #29]
1019:Drivers/STM32F7xx_HAL_Driver/Src/stm32f7xx_hal_rtc_ex.c ****         return HAL_TIMEOUT;
 1846              		.loc 1 1019 9 is_stmt 1 view .LVU637
 1847              		.loc 1 1019 16 is_stmt 0 view .LVU638
 1848 002c 07E0     		b	.L132
 1849              	.L135:
1020:Drivers/STM32F7xx_HAL_Driver/Src/stm32f7xx_hal_rtc_ex.c ****       }
1021:Drivers/STM32F7xx_HAL_Driver/Src/stm32f7xx_hal_rtc_ex.c ****     }
1022:Drivers/STM32F7xx_HAL_Driver/Src/stm32f7xx_hal_rtc_ex.c ****   }
1023:Drivers/STM32F7xx_HAL_Driver/Src/stm32f7xx_hal_rtc_ex.c **** 
1024:Drivers/STM32F7xx_HAL_Driver/Src/stm32f7xx_hal_rtc_ex.c ****   /* Clear the Tamper Flag */
1025:Drivers/STM32F7xx_HAL_Driver/Src/stm32f7xx_hal_rtc_ex.c ****   __HAL_RTC_TAMPER_CLEAR_FLAG(hrtc, RTC_FLAG_TAMP1F);
 1850              		.loc 1 1025 3 is_stmt 1 view .LVU639
 1851 002e DA68     		ldr	r2, [r3, #12]
 1852 0030 D2B2     		uxtb	r2, r2
 1853 0032 62F40252 		orn	r2, r2, #8320
 1854 0036 DA60     		str	r2, [r3, #12]
1026:Drivers/STM32F7xx_HAL_Driver/Src/stm32f7xx_hal_rtc_ex.c **** 
1027:Drivers/STM32F7xx_HAL_Driver/Src/stm32f7xx_hal_rtc_ex.c ****   /* Change RTC state */
1028:Drivers/STM32F7xx_HAL_Driver/Src/stm32f7xx_hal_rtc_ex.c ****   hrtc->State = HAL_RTC_STATE_READY;
 1855              		.loc 1 1028 3 view .LVU640
 1856              		.loc 1 1028 15 is_stmt 0 view .LVU641
 1857 0038 0123     		movs	r3, #1
 1858 003a 6377     		strb	r3, [r4, #29]
1029:Drivers/STM32F7xx_HAL_Driver/Src/stm32f7xx_hal_rtc_ex.c **** 
1030:Drivers/STM32F7xx_HAL_Driver/Src/stm32f7xx_hal_rtc_ex.c ****   return HAL_OK;
 1859              		.loc 1 1030 3 is_stmt 1 view .LVU642
 1860              		.loc 1 1030 10 is_stmt 0 view .LVU643
 1861 003c 0020     		movs	r0, #0
 1862              	.L132:
1031:Drivers/STM32F7xx_HAL_Driver/Src/stm32f7xx_hal_rtc_ex.c **** }
 1863              		.loc 1 1031 1 view .LVU644
 1864 003e 70BD     		pop	{r4, r5, r6, pc}
 1865              		.loc 1 1031 1 view .LVU645
 1866              		.cfi_endproc
 1867              	.LFE156:
 1869              		.section	.text.HAL_RTCEx_PollForTamper2Event,"ax",%progbits
ARM GAS  /tmp/ccxe0t7k.s 			page 54


 1870              		.align	1
 1871              		.global	HAL_RTCEx_PollForTamper2Event
 1872              		.syntax unified
 1873              		.thumb
 1874              		.thumb_func
 1876              	HAL_RTCEx_PollForTamper2Event:
 1877              	.LVL137:
 1878              	.LFB157:
1032:Drivers/STM32F7xx_HAL_Driver/Src/stm32f7xx_hal_rtc_ex.c **** 
1033:Drivers/STM32F7xx_HAL_Driver/Src/stm32f7xx_hal_rtc_ex.c **** /**
1034:Drivers/STM32F7xx_HAL_Driver/Src/stm32f7xx_hal_rtc_ex.c ****   * @brief  Handles Tamper 2 Polling.
1035:Drivers/STM32F7xx_HAL_Driver/Src/stm32f7xx_hal_rtc_ex.c ****   * @param  hrtc pointer to a RTC_HandleTypeDef structure that contains
1036:Drivers/STM32F7xx_HAL_Driver/Src/stm32f7xx_hal_rtc_ex.c ****   *                the configuration information for RTC.
1037:Drivers/STM32F7xx_HAL_Driver/Src/stm32f7xx_hal_rtc_ex.c ****   * @param  Timeout Timeout duration
1038:Drivers/STM32F7xx_HAL_Driver/Src/stm32f7xx_hal_rtc_ex.c ****   * @retval HAL status
1039:Drivers/STM32F7xx_HAL_Driver/Src/stm32f7xx_hal_rtc_ex.c ****   */
1040:Drivers/STM32F7xx_HAL_Driver/Src/stm32f7xx_hal_rtc_ex.c **** HAL_StatusTypeDef HAL_RTCEx_PollForTamper2Event(RTC_HandleTypeDef *hrtc, uint32_t Timeout)
1041:Drivers/STM32F7xx_HAL_Driver/Src/stm32f7xx_hal_rtc_ex.c **** {
 1879              		.loc 1 1041 1 is_stmt 1 view -0
 1880              		.cfi_startproc
 1881              		@ args = 0, pretend = 0, frame = 0
 1882              		@ frame_needed = 0, uses_anonymous_args = 0
 1883              		.loc 1 1041 1 is_stmt 0 view .LVU647
 1884 0000 70B5     		push	{r4, r5, r6, lr}
 1885              	.LCFI20:
 1886              		.cfi_def_cfa_offset 16
 1887              		.cfi_offset 4, -16
 1888              		.cfi_offset 5, -12
 1889              		.cfi_offset 6, -8
 1890              		.cfi_offset 14, -4
 1891 0002 0446     		mov	r4, r0
 1892 0004 0D46     		mov	r5, r1
1042:Drivers/STM32F7xx_HAL_Driver/Src/stm32f7xx_hal_rtc_ex.c ****   uint32_t tickstart = 0U;
 1893              		.loc 1 1042 3 is_stmt 1 view .LVU648
 1894              	.LVL138:
1043:Drivers/STM32F7xx_HAL_Driver/Src/stm32f7xx_hal_rtc_ex.c **** 
1044:Drivers/STM32F7xx_HAL_Driver/Src/stm32f7xx_hal_rtc_ex.c ****   /* Get tick */
1045:Drivers/STM32F7xx_HAL_Driver/Src/stm32f7xx_hal_rtc_ex.c ****   tickstart = HAL_GetTick();
 1895              		.loc 1 1045 3 view .LVU649
 1896              		.loc 1 1045 15 is_stmt 0 view .LVU650
 1897 0006 FFF7FEFF 		bl	HAL_GetTick
 1898              	.LVL139:
 1899              		.loc 1 1045 15 view .LVU651
 1900 000a 0646     		mov	r6, r0
 1901              	.LVL140:
1046:Drivers/STM32F7xx_HAL_Driver/Src/stm32f7xx_hal_rtc_ex.c **** 
1047:Drivers/STM32F7xx_HAL_Driver/Src/stm32f7xx_hal_rtc_ex.c ****   /* Get the status of the Interrupt */
1048:Drivers/STM32F7xx_HAL_Driver/Src/stm32f7xx_hal_rtc_ex.c ****   while (__HAL_RTC_TAMPER_GET_FLAG(hrtc, RTC_FLAG_TAMP2F) == 0U)
 1902              		.loc 1 1048 3 is_stmt 1 view .LVU652
 1903              	.L138:
 1904              		.loc 1 1048 59 view .LVU653
 1905              		.loc 1 1048 10 is_stmt 0 view .LVU654
 1906 000c 2368     		ldr	r3, [r4]
 1907 000e DA68     		ldr	r2, [r3, #12]
 1908              		.loc 1 1048 59 view .LVU655
 1909 0010 12F4804F 		tst	r2, #16384
 1910 0014 0BD1     		bne	.L143
ARM GAS  /tmp/ccxe0t7k.s 			page 55


1049:Drivers/STM32F7xx_HAL_Driver/Src/stm32f7xx_hal_rtc_ex.c ****   {
1050:Drivers/STM32F7xx_HAL_Driver/Src/stm32f7xx_hal_rtc_ex.c ****     if (Timeout != HAL_MAX_DELAY)
 1911              		.loc 1 1050 5 is_stmt 1 view .LVU656
 1912              		.loc 1 1050 8 is_stmt 0 view .LVU657
 1913 0016 B5F1FF3F 		cmp	r5, #-1
 1914 001a F7D0     		beq	.L138
1051:Drivers/STM32F7xx_HAL_Driver/Src/stm32f7xx_hal_rtc_ex.c ****     {
1052:Drivers/STM32F7xx_HAL_Driver/Src/stm32f7xx_hal_rtc_ex.c ****       if ((Timeout == 0U) || ((HAL_GetTick() - tickstart) > Timeout))
 1915              		.loc 1 1052 7 is_stmt 1 view .LVU658
 1916              		.loc 1 1052 10 is_stmt 0 view .LVU659
 1917 001c 25B1     		cbz	r5, .L139
 1918              		.loc 1 1052 32 discriminator 1 view .LVU660
 1919 001e FFF7FEFF 		bl	HAL_GetTick
 1920              	.LVL141:
 1921              		.loc 1 1052 46 discriminator 1 view .LVU661
 1922 0022 801B     		subs	r0, r0, r6
 1923              		.loc 1 1052 27 discriminator 1 view .LVU662
 1924 0024 A842     		cmp	r0, r5
 1925 0026 F1D9     		bls	.L138
 1926              	.L139:
1053:Drivers/STM32F7xx_HAL_Driver/Src/stm32f7xx_hal_rtc_ex.c ****       {
1054:Drivers/STM32F7xx_HAL_Driver/Src/stm32f7xx_hal_rtc_ex.c ****         hrtc->State = HAL_RTC_STATE_TIMEOUT;
 1927              		.loc 1 1054 9 is_stmt 1 view .LVU663
 1928              		.loc 1 1054 21 is_stmt 0 view .LVU664
 1929 0028 0320     		movs	r0, #3
 1930 002a 6077     		strb	r0, [r4, #29]
1055:Drivers/STM32F7xx_HAL_Driver/Src/stm32f7xx_hal_rtc_ex.c ****         return HAL_TIMEOUT;
 1931              		.loc 1 1055 9 is_stmt 1 view .LVU665
 1932              		.loc 1 1055 16 is_stmt 0 view .LVU666
 1933 002c 07E0     		b	.L140
 1934              	.L143:
1056:Drivers/STM32F7xx_HAL_Driver/Src/stm32f7xx_hal_rtc_ex.c ****       }
1057:Drivers/STM32F7xx_HAL_Driver/Src/stm32f7xx_hal_rtc_ex.c ****     }
1058:Drivers/STM32F7xx_HAL_Driver/Src/stm32f7xx_hal_rtc_ex.c ****   }
1059:Drivers/STM32F7xx_HAL_Driver/Src/stm32f7xx_hal_rtc_ex.c **** 
1060:Drivers/STM32F7xx_HAL_Driver/Src/stm32f7xx_hal_rtc_ex.c ****   /* Clear the Tamper Flag */
1061:Drivers/STM32F7xx_HAL_Driver/Src/stm32f7xx_hal_rtc_ex.c ****   __HAL_RTC_TAMPER_CLEAR_FLAG(hrtc, RTC_FLAG_TAMP2F);
 1935              		.loc 1 1061 3 is_stmt 1 view .LVU667
 1936 002e DA68     		ldr	r2, [r3, #12]
 1937 0030 D2B2     		uxtb	r2, r2
 1938 0032 62F48142 		orn	r2, r2, #16512
 1939 0036 DA60     		str	r2, [r3, #12]
1062:Drivers/STM32F7xx_HAL_Driver/Src/stm32f7xx_hal_rtc_ex.c **** 
1063:Drivers/STM32F7xx_HAL_Driver/Src/stm32f7xx_hal_rtc_ex.c ****   /* Change RTC state */
1064:Drivers/STM32F7xx_HAL_Driver/Src/stm32f7xx_hal_rtc_ex.c ****   hrtc->State = HAL_RTC_STATE_READY;
 1940              		.loc 1 1064 3 view .LVU668
 1941              		.loc 1 1064 15 is_stmt 0 view .LVU669
 1942 0038 0123     		movs	r3, #1
 1943 003a 6377     		strb	r3, [r4, #29]
1065:Drivers/STM32F7xx_HAL_Driver/Src/stm32f7xx_hal_rtc_ex.c **** 
1066:Drivers/STM32F7xx_HAL_Driver/Src/stm32f7xx_hal_rtc_ex.c ****   return HAL_OK;
 1944              		.loc 1 1066 3 is_stmt 1 view .LVU670
 1945              		.loc 1 1066 10 is_stmt 0 view .LVU671
 1946 003c 0020     		movs	r0, #0
 1947              	.L140:
1067:Drivers/STM32F7xx_HAL_Driver/Src/stm32f7xx_hal_rtc_ex.c **** }
 1948              		.loc 1 1067 1 view .LVU672
ARM GAS  /tmp/ccxe0t7k.s 			page 56


 1949 003e 70BD     		pop	{r4, r5, r6, pc}
 1950              		.loc 1 1067 1 view .LVU673
 1951              		.cfi_endproc
 1952              	.LFE157:
 1954              		.section	.text.HAL_RTCEx_PollForTamper3Event,"ax",%progbits
 1955              		.align	1
 1956              		.global	HAL_RTCEx_PollForTamper3Event
 1957              		.syntax unified
 1958              		.thumb
 1959              		.thumb_func
 1961              	HAL_RTCEx_PollForTamper3Event:
 1962              	.LVL142:
 1963              	.LFB158:
1068:Drivers/STM32F7xx_HAL_Driver/Src/stm32f7xx_hal_rtc_ex.c **** 
1069:Drivers/STM32F7xx_HAL_Driver/Src/stm32f7xx_hal_rtc_ex.c **** /**
1070:Drivers/STM32F7xx_HAL_Driver/Src/stm32f7xx_hal_rtc_ex.c ****   * @brief  Handles Tamper 3 Polling.
1071:Drivers/STM32F7xx_HAL_Driver/Src/stm32f7xx_hal_rtc_ex.c ****   * @param  hrtc pointer to a RTC_HandleTypeDef structure that contains
1072:Drivers/STM32F7xx_HAL_Driver/Src/stm32f7xx_hal_rtc_ex.c ****   *                the configuration information for RTC.
1073:Drivers/STM32F7xx_HAL_Driver/Src/stm32f7xx_hal_rtc_ex.c ****   * @param  Timeout Timeout duration
1074:Drivers/STM32F7xx_HAL_Driver/Src/stm32f7xx_hal_rtc_ex.c ****   * @retval HAL status
1075:Drivers/STM32F7xx_HAL_Driver/Src/stm32f7xx_hal_rtc_ex.c ****   */
1076:Drivers/STM32F7xx_HAL_Driver/Src/stm32f7xx_hal_rtc_ex.c **** HAL_StatusTypeDef HAL_RTCEx_PollForTamper3Event(RTC_HandleTypeDef *hrtc, uint32_t Timeout)
1077:Drivers/STM32F7xx_HAL_Driver/Src/stm32f7xx_hal_rtc_ex.c **** {
 1964              		.loc 1 1077 1 is_stmt 1 view -0
 1965              		.cfi_startproc
 1966              		@ args = 0, pretend = 0, frame = 0
 1967              		@ frame_needed = 0, uses_anonymous_args = 0
 1968              		.loc 1 1077 1 is_stmt 0 view .LVU675
 1969 0000 70B5     		push	{r4, r5, r6, lr}
 1970              	.LCFI21:
 1971              		.cfi_def_cfa_offset 16
 1972              		.cfi_offset 4, -16
 1973              		.cfi_offset 5, -12
 1974              		.cfi_offset 6, -8
 1975              		.cfi_offset 14, -4
 1976 0002 0446     		mov	r4, r0
 1977 0004 0D46     		mov	r5, r1
1078:Drivers/STM32F7xx_HAL_Driver/Src/stm32f7xx_hal_rtc_ex.c ****   uint32_t tickstart = HAL_GetTick();
 1978              		.loc 1 1078 3 is_stmt 1 view .LVU676
 1979              		.loc 1 1078 24 is_stmt 0 view .LVU677
 1980 0006 FFF7FEFF 		bl	HAL_GetTick
 1981              	.LVL143:
 1982              		.loc 1 1078 24 view .LVU678
 1983 000a 0646     		mov	r6, r0
 1984              	.LVL144:
1079:Drivers/STM32F7xx_HAL_Driver/Src/stm32f7xx_hal_rtc_ex.c **** 
1080:Drivers/STM32F7xx_HAL_Driver/Src/stm32f7xx_hal_rtc_ex.c ****   /* Get the status of the Interrupt */
1081:Drivers/STM32F7xx_HAL_Driver/Src/stm32f7xx_hal_rtc_ex.c ****   while (__HAL_RTC_TAMPER_GET_FLAG(hrtc, RTC_FLAG_TAMP3F) == 0U)
 1985              		.loc 1 1081 3 is_stmt 1 view .LVU679
 1986              	.L146:
 1987              		.loc 1 1081 59 view .LVU680
 1988              		.loc 1 1081 10 is_stmt 0 view .LVU681
 1989 000c 2368     		ldr	r3, [r4]
 1990 000e DA68     		ldr	r2, [r3, #12]
 1991              		.loc 1 1081 59 view .LVU682
 1992 0010 12F4004F 		tst	r2, #32768
 1993 0014 0BD1     		bne	.L151
ARM GAS  /tmp/ccxe0t7k.s 			page 57


1082:Drivers/STM32F7xx_HAL_Driver/Src/stm32f7xx_hal_rtc_ex.c ****   {
1083:Drivers/STM32F7xx_HAL_Driver/Src/stm32f7xx_hal_rtc_ex.c ****     if (Timeout != HAL_MAX_DELAY)
 1994              		.loc 1 1083 5 is_stmt 1 view .LVU683
 1995              		.loc 1 1083 8 is_stmt 0 view .LVU684
 1996 0016 B5F1FF3F 		cmp	r5, #-1
 1997 001a F7D0     		beq	.L146
1084:Drivers/STM32F7xx_HAL_Driver/Src/stm32f7xx_hal_rtc_ex.c ****     {
1085:Drivers/STM32F7xx_HAL_Driver/Src/stm32f7xx_hal_rtc_ex.c ****       if ((Timeout == 0U) || ((HAL_GetTick() - tickstart) > Timeout))
 1998              		.loc 1 1085 7 is_stmt 1 view .LVU685
 1999              		.loc 1 1085 10 is_stmt 0 view .LVU686
 2000 001c 25B1     		cbz	r5, .L147
 2001              		.loc 1 1085 32 discriminator 1 view .LVU687
 2002 001e FFF7FEFF 		bl	HAL_GetTick
 2003              	.LVL145:
 2004              		.loc 1 1085 46 discriminator 1 view .LVU688
 2005 0022 801B     		subs	r0, r0, r6
 2006              		.loc 1 1085 27 discriminator 1 view .LVU689
 2007 0024 A842     		cmp	r0, r5
 2008 0026 F1D9     		bls	.L146
 2009              	.L147:
1086:Drivers/STM32F7xx_HAL_Driver/Src/stm32f7xx_hal_rtc_ex.c ****       {
1087:Drivers/STM32F7xx_HAL_Driver/Src/stm32f7xx_hal_rtc_ex.c ****         hrtc->State = HAL_RTC_STATE_TIMEOUT;
 2010              		.loc 1 1087 9 is_stmt 1 view .LVU690
 2011              		.loc 1 1087 21 is_stmt 0 view .LVU691
 2012 0028 0320     		movs	r0, #3
 2013 002a 6077     		strb	r0, [r4, #29]
1088:Drivers/STM32F7xx_HAL_Driver/Src/stm32f7xx_hal_rtc_ex.c ****         return HAL_TIMEOUT;
 2014              		.loc 1 1088 9 is_stmt 1 view .LVU692
 2015              		.loc 1 1088 16 is_stmt 0 view .LVU693
 2016 002c 0DE0     		b	.L148
 2017              	.L151:
1089:Drivers/STM32F7xx_HAL_Driver/Src/stm32f7xx_hal_rtc_ex.c ****       }
1090:Drivers/STM32F7xx_HAL_Driver/Src/stm32f7xx_hal_rtc_ex.c ****     }
1091:Drivers/STM32F7xx_HAL_Driver/Src/stm32f7xx_hal_rtc_ex.c ****   }
1092:Drivers/STM32F7xx_HAL_Driver/Src/stm32f7xx_hal_rtc_ex.c **** 
1093:Drivers/STM32F7xx_HAL_Driver/Src/stm32f7xx_hal_rtc_ex.c ****   /* Clear the Tamper Flag */
1094:Drivers/STM32F7xx_HAL_Driver/Src/stm32f7xx_hal_rtc_ex.c ****   __HAL_RTC_TAMPER_CLEAR_FLAG(hrtc, RTC_FLAG_TAMP3F);
 2018              		.loc 1 1094 3 is_stmt 1 view .LVU694
 2019 002e DA68     		ldr	r2, [r3, #12]
 2020 0030 D2B2     		uxtb	r2, r2
 2021 0032 42F07F42 		orr	r2, r2, #-16777216
 2022 0036 42F47F02 		orr	r2, r2, #16711680
 2023 003a 42F4FE42 		orr	r2, r2, #32512
 2024 003e 42F07F02 		orr	r2, r2, #127
 2025 0042 DA60     		str	r2, [r3, #12]
1095:Drivers/STM32F7xx_HAL_Driver/Src/stm32f7xx_hal_rtc_ex.c **** 
1096:Drivers/STM32F7xx_HAL_Driver/Src/stm32f7xx_hal_rtc_ex.c ****   /* Change RTC state */
1097:Drivers/STM32F7xx_HAL_Driver/Src/stm32f7xx_hal_rtc_ex.c ****   hrtc->State = HAL_RTC_STATE_READY;
 2026              		.loc 1 1097 3 view .LVU695
 2027              		.loc 1 1097 15 is_stmt 0 view .LVU696
 2028 0044 0123     		movs	r3, #1
 2029 0046 6377     		strb	r3, [r4, #29]
1098:Drivers/STM32F7xx_HAL_Driver/Src/stm32f7xx_hal_rtc_ex.c **** 
1099:Drivers/STM32F7xx_HAL_Driver/Src/stm32f7xx_hal_rtc_ex.c ****   return HAL_OK;
 2030              		.loc 1 1099 3 is_stmt 1 view .LVU697
 2031              		.loc 1 1099 10 is_stmt 0 view .LVU698
 2032 0048 0020     		movs	r0, #0
ARM GAS  /tmp/ccxe0t7k.s 			page 58


 2033              	.L148:
1100:Drivers/STM32F7xx_HAL_Driver/Src/stm32f7xx_hal_rtc_ex.c **** }
 2034              		.loc 1 1100 1 view .LVU699
 2035 004a 70BD     		pop	{r4, r5, r6, pc}
 2036              		.loc 1 1100 1 view .LVU700
 2037              		.cfi_endproc
 2038              	.LFE158:
 2040              		.section	.text.HAL_RTCEx_SetWakeUpTimer,"ax",%progbits
 2041              		.align	1
 2042              		.global	HAL_RTCEx_SetWakeUpTimer
 2043              		.syntax unified
 2044              		.thumb
 2045              		.thumb_func
 2047              	HAL_RTCEx_SetWakeUpTimer:
 2048              	.LVL146:
 2049              	.LFB159:
1101:Drivers/STM32F7xx_HAL_Driver/Src/stm32f7xx_hal_rtc_ex.c **** 
1102:Drivers/STM32F7xx_HAL_Driver/Src/stm32f7xx_hal_rtc_ex.c **** /**
1103:Drivers/STM32F7xx_HAL_Driver/Src/stm32f7xx_hal_rtc_ex.c ****   * @}
1104:Drivers/STM32F7xx_HAL_Driver/Src/stm32f7xx_hal_rtc_ex.c ****   */
1105:Drivers/STM32F7xx_HAL_Driver/Src/stm32f7xx_hal_rtc_ex.c **** 
1106:Drivers/STM32F7xx_HAL_Driver/Src/stm32f7xx_hal_rtc_ex.c **** /** @defgroup RTCEx_Exported_Functions_Group2 RTC Wakeup functions
1107:Drivers/STM32F7xx_HAL_Driver/Src/stm32f7xx_hal_rtc_ex.c ****   * @brief    RTC Wakeup functions
1108:Drivers/STM32F7xx_HAL_Driver/Src/stm32f7xx_hal_rtc_ex.c ****   *
1109:Drivers/STM32F7xx_HAL_Driver/Src/stm32f7xx_hal_rtc_ex.c **** @verbatim
1110:Drivers/STM32F7xx_HAL_Driver/Src/stm32f7xx_hal_rtc_ex.c ****  ===============================================================================
1111:Drivers/STM32F7xx_HAL_Driver/Src/stm32f7xx_hal_rtc_ex.c ****                         ##### RTC Wakeup functions #####
1112:Drivers/STM32F7xx_HAL_Driver/Src/stm32f7xx_hal_rtc_ex.c ****  ===============================================================================
1113:Drivers/STM32F7xx_HAL_Driver/Src/stm32f7xx_hal_rtc_ex.c **** 
1114:Drivers/STM32F7xx_HAL_Driver/Src/stm32f7xx_hal_rtc_ex.c ****  [..] This section provides functions allowing to configure Wakeup feature
1115:Drivers/STM32F7xx_HAL_Driver/Src/stm32f7xx_hal_rtc_ex.c **** 
1116:Drivers/STM32F7xx_HAL_Driver/Src/stm32f7xx_hal_rtc_ex.c **** @endverbatim
1117:Drivers/STM32F7xx_HAL_Driver/Src/stm32f7xx_hal_rtc_ex.c ****   * @{
1118:Drivers/STM32F7xx_HAL_Driver/Src/stm32f7xx_hal_rtc_ex.c ****   */
1119:Drivers/STM32F7xx_HAL_Driver/Src/stm32f7xx_hal_rtc_ex.c **** 
1120:Drivers/STM32F7xx_HAL_Driver/Src/stm32f7xx_hal_rtc_ex.c **** /**
1121:Drivers/STM32F7xx_HAL_Driver/Src/stm32f7xx_hal_rtc_ex.c ****   * @brief  Sets wakeup timer.
1122:Drivers/STM32F7xx_HAL_Driver/Src/stm32f7xx_hal_rtc_ex.c ****   * @param  hrtc pointer to a RTC_HandleTypeDef structure that contains
1123:Drivers/STM32F7xx_HAL_Driver/Src/stm32f7xx_hal_rtc_ex.c ****   *                the configuration information for RTC.
1124:Drivers/STM32F7xx_HAL_Driver/Src/stm32f7xx_hal_rtc_ex.c ****   * @param  WakeUpCounter Wakeup counter
1125:Drivers/STM32F7xx_HAL_Driver/Src/stm32f7xx_hal_rtc_ex.c ****   * @param  WakeUpClock Wakeup clock
1126:Drivers/STM32F7xx_HAL_Driver/Src/stm32f7xx_hal_rtc_ex.c ****   * @retval HAL status
1127:Drivers/STM32F7xx_HAL_Driver/Src/stm32f7xx_hal_rtc_ex.c ****   */
1128:Drivers/STM32F7xx_HAL_Driver/Src/stm32f7xx_hal_rtc_ex.c **** HAL_StatusTypeDef HAL_RTCEx_SetWakeUpTimer(RTC_HandleTypeDef *hrtc, uint32_t WakeUpCounter, uint32_
1129:Drivers/STM32F7xx_HAL_Driver/Src/stm32f7xx_hal_rtc_ex.c **** {
 2050              		.loc 1 1129 1 is_stmt 1 view -0
 2051              		.cfi_startproc
 2052              		@ args = 0, pretend = 0, frame = 0
 2053              		@ frame_needed = 0, uses_anonymous_args = 0
 2054              		.loc 1 1129 1 is_stmt 0 view .LVU702
 2055 0000 F8B5     		push	{r3, r4, r5, r6, r7, lr}
 2056              	.LCFI22:
 2057              		.cfi_def_cfa_offset 24
 2058              		.cfi_offset 3, -24
 2059              		.cfi_offset 4, -20
 2060              		.cfi_offset 5, -16
 2061              		.cfi_offset 6, -12
ARM GAS  /tmp/ccxe0t7k.s 			page 59


 2062              		.cfi_offset 7, -8
 2063              		.cfi_offset 14, -4
1130:Drivers/STM32F7xx_HAL_Driver/Src/stm32f7xx_hal_rtc_ex.c ****   uint32_t tickstart = 0U;
 2064              		.loc 1 1130 3 is_stmt 1 view .LVU703
 2065              	.LVL147:
1131:Drivers/STM32F7xx_HAL_Driver/Src/stm32f7xx_hal_rtc_ex.c **** 
1132:Drivers/STM32F7xx_HAL_Driver/Src/stm32f7xx_hal_rtc_ex.c ****   /* Check the parameters */
1133:Drivers/STM32F7xx_HAL_Driver/Src/stm32f7xx_hal_rtc_ex.c ****   assert_param(IS_RTC_WAKEUP_CLOCK(WakeUpClock));
 2066              		.loc 1 1133 3 view .LVU704
1134:Drivers/STM32F7xx_HAL_Driver/Src/stm32f7xx_hal_rtc_ex.c ****   assert_param(IS_RTC_WAKEUP_COUNTER(WakeUpCounter));
 2067              		.loc 1 1134 3 view .LVU705
1135:Drivers/STM32F7xx_HAL_Driver/Src/stm32f7xx_hal_rtc_ex.c **** 
1136:Drivers/STM32F7xx_HAL_Driver/Src/stm32f7xx_hal_rtc_ex.c ****   /* Process Locked */
1137:Drivers/STM32F7xx_HAL_Driver/Src/stm32f7xx_hal_rtc_ex.c ****   __HAL_LOCK(hrtc);
 2068              		.loc 1 1137 3 view .LVU706
 2069              		.loc 1 1137 3 view .LVU707
 2070 0002 037F     		ldrb	r3, [r0, #28]	@ zero_extendqisi2
 2071 0004 012B     		cmp	r3, #1
 2072 0006 5FD0     		beq	.L159
 2073 0008 0446     		mov	r4, r0
 2074 000a 0D46     		mov	r5, r1
 2075 000c 1646     		mov	r6, r2
 2076              		.loc 1 1137 3 discriminator 2 view .LVU708
 2077 000e 0123     		movs	r3, #1
 2078 0010 0377     		strb	r3, [r0, #28]
 2079              		.loc 1 1137 3 discriminator 2 view .LVU709
1138:Drivers/STM32F7xx_HAL_Driver/Src/stm32f7xx_hal_rtc_ex.c **** 
1139:Drivers/STM32F7xx_HAL_Driver/Src/stm32f7xx_hal_rtc_ex.c ****   hrtc->State = HAL_RTC_STATE_BUSY;
 2080              		.loc 1 1139 3 discriminator 2 view .LVU710
 2081              		.loc 1 1139 15 is_stmt 0 discriminator 2 view .LVU711
 2082 0012 0223     		movs	r3, #2
 2083 0014 4377     		strb	r3, [r0, #29]
1140:Drivers/STM32F7xx_HAL_Driver/Src/stm32f7xx_hal_rtc_ex.c **** 
1141:Drivers/STM32F7xx_HAL_Driver/Src/stm32f7xx_hal_rtc_ex.c ****   /* Disable the write protection for RTC registers */
1142:Drivers/STM32F7xx_HAL_Driver/Src/stm32f7xx_hal_rtc_ex.c ****   __HAL_RTC_WRITEPROTECTION_DISABLE(hrtc);
 2084              		.loc 1 1142 3 is_stmt 1 discriminator 2 view .LVU712
 2085              		.loc 1 1142 3 discriminator 2 view .LVU713
 2086 0016 0368     		ldr	r3, [r0]
 2087 0018 CA22     		movs	r2, #202
 2088              	.LVL148:
 2089              		.loc 1 1142 3 is_stmt 0 discriminator 2 view .LVU714
 2090 001a 5A62     		str	r2, [r3, #36]
 2091              		.loc 1 1142 3 is_stmt 1 discriminator 2 view .LVU715
 2092 001c 0368     		ldr	r3, [r0]
 2093 001e 5322     		movs	r2, #83
 2094 0020 5A62     		str	r2, [r3, #36]
 2095              		.loc 1 1142 3 discriminator 2 view .LVU716
1143:Drivers/STM32F7xx_HAL_Driver/Src/stm32f7xx_hal_rtc_ex.c **** 
1144:Drivers/STM32F7xx_HAL_Driver/Src/stm32f7xx_hal_rtc_ex.c ****   /* Check RTC WUTWF flag is reset only when wakeup timer enabled*/
1145:Drivers/STM32F7xx_HAL_Driver/Src/stm32f7xx_hal_rtc_ex.c ****   if ((hrtc->Instance->CR & RTC_CR_WUTE) != 0U)
 2096              		.loc 1 1145 3 discriminator 2 view .LVU717
 2097              		.loc 1 1145 12 is_stmt 0 discriminator 2 view .LVU718
 2098 0022 0368     		ldr	r3, [r0]
 2099              		.loc 1 1145 22 discriminator 2 view .LVU719
 2100 0024 9B68     		ldr	r3, [r3, #8]
 2101              		.loc 1 1145 6 discriminator 2 view .LVU720
 2102 0026 13F4806F 		tst	r3, #1024
ARM GAS  /tmp/ccxe0t7k.s 			page 60


 2103 002a 15D0     		beq	.L154
1146:Drivers/STM32F7xx_HAL_Driver/Src/stm32f7xx_hal_rtc_ex.c ****   {
1147:Drivers/STM32F7xx_HAL_Driver/Src/stm32f7xx_hal_rtc_ex.c ****     tickstart = HAL_GetTick();
 2104              		.loc 1 1147 5 is_stmt 1 view .LVU721
 2105              		.loc 1 1147 17 is_stmt 0 view .LVU722
 2106 002c FFF7FEFF 		bl	HAL_GetTick
 2107              	.LVL149:
 2108              		.loc 1 1147 17 view .LVU723
 2109 0030 0746     		mov	r7, r0
 2110              	.LVL150:
1148:Drivers/STM32F7xx_HAL_Driver/Src/stm32f7xx_hal_rtc_ex.c **** 
1149:Drivers/STM32F7xx_HAL_Driver/Src/stm32f7xx_hal_rtc_ex.c ****     /* Wait till RTC WUTWF flag is reset and if timeout is reached exit */
1150:Drivers/STM32F7xx_HAL_Driver/Src/stm32f7xx_hal_rtc_ex.c ****     while (__HAL_RTC_WAKEUPTIMER_GET_FLAG(hrtc, RTC_FLAG_WUTWF) != 0U)
 2111              		.loc 1 1150 5 is_stmt 1 view .LVU724
 2112              	.L155:
 2113              		.loc 1 1150 65 view .LVU725
 2114              		.loc 1 1150 12 is_stmt 0 view .LVU726
 2115 0032 2368     		ldr	r3, [r4]
 2116 0034 DB68     		ldr	r3, [r3, #12]
 2117              		.loc 1 1150 65 view .LVU727
 2118 0036 13F0040F 		tst	r3, #4
 2119 003a 0DD0     		beq	.L154
1151:Drivers/STM32F7xx_HAL_Driver/Src/stm32f7xx_hal_rtc_ex.c ****     {
1152:Drivers/STM32F7xx_HAL_Driver/Src/stm32f7xx_hal_rtc_ex.c ****       if ((HAL_GetTick() - tickstart) > RTC_TIMEOUT_VALUE)
 2120              		.loc 1 1152 7 is_stmt 1 view .LVU728
 2121              		.loc 1 1152 12 is_stmt 0 view .LVU729
 2122 003c FFF7FEFF 		bl	HAL_GetTick
 2123              	.LVL151:
 2124              		.loc 1 1152 26 view .LVU730
 2125 0040 C01B     		subs	r0, r0, r7
 2126              		.loc 1 1152 10 view .LVU731
 2127 0042 B0F57A7F 		cmp	r0, #1000
 2128 0046 F4D9     		bls	.L155
1153:Drivers/STM32F7xx_HAL_Driver/Src/stm32f7xx_hal_rtc_ex.c ****       {
1154:Drivers/STM32F7xx_HAL_Driver/Src/stm32f7xx_hal_rtc_ex.c ****         /* Enable the write protection for RTC registers */
1155:Drivers/STM32F7xx_HAL_Driver/Src/stm32f7xx_hal_rtc_ex.c ****         __HAL_RTC_WRITEPROTECTION_ENABLE(hrtc);
 2129              		.loc 1 1155 9 is_stmt 1 view .LVU732
 2130              		.loc 1 1155 9 view .LVU733
 2131 0048 2368     		ldr	r3, [r4]
 2132 004a FF22     		movs	r2, #255
 2133 004c 5A62     		str	r2, [r3, #36]
 2134              		.loc 1 1155 9 view .LVU734
1156:Drivers/STM32F7xx_HAL_Driver/Src/stm32f7xx_hal_rtc_ex.c **** 
1157:Drivers/STM32F7xx_HAL_Driver/Src/stm32f7xx_hal_rtc_ex.c ****         hrtc->State = HAL_RTC_STATE_TIMEOUT;
 2135              		.loc 1 1157 9 view .LVU735
 2136              		.loc 1 1157 21 is_stmt 0 view .LVU736
 2137 004e 0320     		movs	r0, #3
 2138 0050 6077     		strb	r0, [r4, #29]
1158:Drivers/STM32F7xx_HAL_Driver/Src/stm32f7xx_hal_rtc_ex.c **** 
1159:Drivers/STM32F7xx_HAL_Driver/Src/stm32f7xx_hal_rtc_ex.c ****         /* Process Unlocked */
1160:Drivers/STM32F7xx_HAL_Driver/Src/stm32f7xx_hal_rtc_ex.c ****         __HAL_UNLOCK(hrtc);
 2139              		.loc 1 1160 9 is_stmt 1 view .LVU737
 2140              		.loc 1 1160 9 view .LVU738
 2141 0052 0023     		movs	r3, #0
 2142 0054 2377     		strb	r3, [r4, #28]
 2143              		.loc 1 1160 9 view .LVU739
1161:Drivers/STM32F7xx_HAL_Driver/Src/stm32f7xx_hal_rtc_ex.c **** 
ARM GAS  /tmp/ccxe0t7k.s 			page 61


1162:Drivers/STM32F7xx_HAL_Driver/Src/stm32f7xx_hal_rtc_ex.c ****         return HAL_TIMEOUT;
 2144              		.loc 1 1162 9 view .LVU740
 2145              		.loc 1 1162 16 is_stmt 0 view .LVU741
 2146 0056 36E0     		b	.L153
 2147              	.LVL152:
 2148              	.L154:
1163:Drivers/STM32F7xx_HAL_Driver/Src/stm32f7xx_hal_rtc_ex.c ****       }
1164:Drivers/STM32F7xx_HAL_Driver/Src/stm32f7xx_hal_rtc_ex.c ****     }
1165:Drivers/STM32F7xx_HAL_Driver/Src/stm32f7xx_hal_rtc_ex.c ****   }
1166:Drivers/STM32F7xx_HAL_Driver/Src/stm32f7xx_hal_rtc_ex.c **** 
1167:Drivers/STM32F7xx_HAL_Driver/Src/stm32f7xx_hal_rtc_ex.c ****   /* Disable the Wakeup timer */
1168:Drivers/STM32F7xx_HAL_Driver/Src/stm32f7xx_hal_rtc_ex.c ****   __HAL_RTC_WAKEUPTIMER_DISABLE(hrtc);
 2149              		.loc 1 1168 3 is_stmt 1 view .LVU742
 2150 0058 2268     		ldr	r2, [r4]
 2151 005a 9368     		ldr	r3, [r2, #8]
 2152 005c 23F48063 		bic	r3, r3, #1024
 2153 0060 9360     		str	r3, [r2, #8]
1169:Drivers/STM32F7xx_HAL_Driver/Src/stm32f7xx_hal_rtc_ex.c **** 
1170:Drivers/STM32F7xx_HAL_Driver/Src/stm32f7xx_hal_rtc_ex.c ****   /* Clear the Wakeup flag */
1171:Drivers/STM32F7xx_HAL_Driver/Src/stm32f7xx_hal_rtc_ex.c ****   __HAL_RTC_WAKEUPTIMER_CLEAR_FLAG(hrtc, RTC_FLAG_WUTF);
 2154              		.loc 1 1171 3 view .LVU743
 2155 0062 2268     		ldr	r2, [r4]
 2156 0064 D368     		ldr	r3, [r2, #12]
 2157 0066 DBB2     		uxtb	r3, r3
 2158 0068 63F49063 		orn	r3, r3, #1152
 2159 006c D360     		str	r3, [r2, #12]
1172:Drivers/STM32F7xx_HAL_Driver/Src/stm32f7xx_hal_rtc_ex.c **** 
1173:Drivers/STM32F7xx_HAL_Driver/Src/stm32f7xx_hal_rtc_ex.c ****   /* Get tick */
1174:Drivers/STM32F7xx_HAL_Driver/Src/stm32f7xx_hal_rtc_ex.c ****   tickstart = HAL_GetTick();
 2160              		.loc 1 1174 3 view .LVU744
 2161              		.loc 1 1174 15 is_stmt 0 view .LVU745
 2162 006e FFF7FEFF 		bl	HAL_GetTick
 2163              	.LVL153:
 2164 0072 0746     		mov	r7, r0
 2165              	.LVL154:
1175:Drivers/STM32F7xx_HAL_Driver/Src/stm32f7xx_hal_rtc_ex.c **** 
1176:Drivers/STM32F7xx_HAL_Driver/Src/stm32f7xx_hal_rtc_ex.c ****   /* Wait till RTC WUTWF flag is set and if timeout is reached exit */
1177:Drivers/STM32F7xx_HAL_Driver/Src/stm32f7xx_hal_rtc_ex.c ****   while (__HAL_RTC_WAKEUPTIMER_GET_FLAG(hrtc, RTC_FLAG_WUTWF) == 0U)
 2166              		.loc 1 1177 3 is_stmt 1 view .LVU746
 2167              	.L157:
 2168              		.loc 1 1177 63 view .LVU747
 2169              		.loc 1 1177 10 is_stmt 0 view .LVU748
 2170 0074 2368     		ldr	r3, [r4]
 2171 0076 DA68     		ldr	r2, [r3, #12]
 2172              		.loc 1 1177 63 view .LVU749
 2173 0078 12F0040F 		tst	r2, #4
 2174 007c 0DD1     		bne	.L161
1178:Drivers/STM32F7xx_HAL_Driver/Src/stm32f7xx_hal_rtc_ex.c ****   {
1179:Drivers/STM32F7xx_HAL_Driver/Src/stm32f7xx_hal_rtc_ex.c ****     if ((HAL_GetTick() - tickstart) > RTC_TIMEOUT_VALUE)
 2175              		.loc 1 1179 5 is_stmt 1 view .LVU750
 2176              		.loc 1 1179 10 is_stmt 0 view .LVU751
 2177 007e FFF7FEFF 		bl	HAL_GetTick
 2178              	.LVL155:
 2179              		.loc 1 1179 24 view .LVU752
 2180 0082 C01B     		subs	r0, r0, r7
 2181              		.loc 1 1179 8 view .LVU753
 2182 0084 B0F57A7F 		cmp	r0, #1000
ARM GAS  /tmp/ccxe0t7k.s 			page 62


 2183 0088 F4D9     		bls	.L157
1180:Drivers/STM32F7xx_HAL_Driver/Src/stm32f7xx_hal_rtc_ex.c ****     {
1181:Drivers/STM32F7xx_HAL_Driver/Src/stm32f7xx_hal_rtc_ex.c ****       /* Enable the write protection for RTC registers */
1182:Drivers/STM32F7xx_HAL_Driver/Src/stm32f7xx_hal_rtc_ex.c ****       __HAL_RTC_WRITEPROTECTION_ENABLE(hrtc);
 2184              		.loc 1 1182 7 is_stmt 1 view .LVU754
 2185              		.loc 1 1182 7 view .LVU755
 2186 008a 2368     		ldr	r3, [r4]
 2187 008c FF22     		movs	r2, #255
 2188 008e 5A62     		str	r2, [r3, #36]
 2189              		.loc 1 1182 7 view .LVU756
1183:Drivers/STM32F7xx_HAL_Driver/Src/stm32f7xx_hal_rtc_ex.c **** 
1184:Drivers/STM32F7xx_HAL_Driver/Src/stm32f7xx_hal_rtc_ex.c ****       hrtc->State = HAL_RTC_STATE_TIMEOUT;
 2190              		.loc 1 1184 7 view .LVU757
 2191              		.loc 1 1184 19 is_stmt 0 view .LVU758
 2192 0090 0320     		movs	r0, #3
 2193 0092 6077     		strb	r0, [r4, #29]
1185:Drivers/STM32F7xx_HAL_Driver/Src/stm32f7xx_hal_rtc_ex.c **** 
1186:Drivers/STM32F7xx_HAL_Driver/Src/stm32f7xx_hal_rtc_ex.c ****       /* Process Unlocked */
1187:Drivers/STM32F7xx_HAL_Driver/Src/stm32f7xx_hal_rtc_ex.c ****       __HAL_UNLOCK(hrtc);
 2194              		.loc 1 1187 7 is_stmt 1 view .LVU759
 2195              		.loc 1 1187 7 view .LVU760
 2196 0094 0023     		movs	r3, #0
 2197 0096 2377     		strb	r3, [r4, #28]
 2198              		.loc 1 1187 7 view .LVU761
1188:Drivers/STM32F7xx_HAL_Driver/Src/stm32f7xx_hal_rtc_ex.c **** 
1189:Drivers/STM32F7xx_HAL_Driver/Src/stm32f7xx_hal_rtc_ex.c ****       return HAL_TIMEOUT;
 2199              		.loc 1 1189 7 view .LVU762
 2200              		.loc 1 1189 14 is_stmt 0 view .LVU763
 2201 0098 15E0     		b	.L153
 2202              	.L161:
1190:Drivers/STM32F7xx_HAL_Driver/Src/stm32f7xx_hal_rtc_ex.c ****     }
1191:Drivers/STM32F7xx_HAL_Driver/Src/stm32f7xx_hal_rtc_ex.c ****   }
1192:Drivers/STM32F7xx_HAL_Driver/Src/stm32f7xx_hal_rtc_ex.c **** 
1193:Drivers/STM32F7xx_HAL_Driver/Src/stm32f7xx_hal_rtc_ex.c ****   /* Clear the Wakeup Timer clock source bits in CR register */
1194:Drivers/STM32F7xx_HAL_Driver/Src/stm32f7xx_hal_rtc_ex.c ****   hrtc->Instance->CR &= (uint32_t)~RTC_CR_WUCKSEL;
 2203              		.loc 1 1194 3 is_stmt 1 view .LVU764
 2204              		.loc 1 1194 17 is_stmt 0 view .LVU765
 2205 009a 9A68     		ldr	r2, [r3, #8]
 2206              		.loc 1 1194 22 view .LVU766
 2207 009c 22F00702 		bic	r2, r2, #7
 2208 00a0 9A60     		str	r2, [r3, #8]
1195:Drivers/STM32F7xx_HAL_Driver/Src/stm32f7xx_hal_rtc_ex.c **** 
1196:Drivers/STM32F7xx_HAL_Driver/Src/stm32f7xx_hal_rtc_ex.c ****   /* Configure the clock source */
1197:Drivers/STM32F7xx_HAL_Driver/Src/stm32f7xx_hal_rtc_ex.c ****   hrtc->Instance->CR |= (uint32_t)WakeUpClock;
 2209              		.loc 1 1197 3 is_stmt 1 view .LVU767
 2210              		.loc 1 1197 7 is_stmt 0 view .LVU768
 2211 00a2 2268     		ldr	r2, [r4]
 2212              		.loc 1 1197 17 view .LVU769
 2213 00a4 9368     		ldr	r3, [r2, #8]
 2214              		.loc 1 1197 22 view .LVU770
 2215 00a6 3343     		orrs	r3, r3, r6
 2216 00a8 9360     		str	r3, [r2, #8]
1198:Drivers/STM32F7xx_HAL_Driver/Src/stm32f7xx_hal_rtc_ex.c **** 
1199:Drivers/STM32F7xx_HAL_Driver/Src/stm32f7xx_hal_rtc_ex.c ****   /* Configure the Wakeup Timer counter */
1200:Drivers/STM32F7xx_HAL_Driver/Src/stm32f7xx_hal_rtc_ex.c ****   hrtc->Instance->WUTR = (uint32_t)WakeUpCounter;
 2217              		.loc 1 1200 3 is_stmt 1 view .LVU771
 2218              		.loc 1 1200 7 is_stmt 0 view .LVU772
ARM GAS  /tmp/ccxe0t7k.s 			page 63


 2219 00aa 2368     		ldr	r3, [r4]
 2220              		.loc 1 1200 24 view .LVU773
 2221 00ac 5D61     		str	r5, [r3, #20]
1201:Drivers/STM32F7xx_HAL_Driver/Src/stm32f7xx_hal_rtc_ex.c **** 
1202:Drivers/STM32F7xx_HAL_Driver/Src/stm32f7xx_hal_rtc_ex.c ****   /* Enable the Wakeup Timer */
1203:Drivers/STM32F7xx_HAL_Driver/Src/stm32f7xx_hal_rtc_ex.c ****   __HAL_RTC_WAKEUPTIMER_ENABLE(hrtc);
 2222              		.loc 1 1203 3 is_stmt 1 view .LVU774
 2223 00ae 2268     		ldr	r2, [r4]
 2224 00b0 9368     		ldr	r3, [r2, #8]
 2225 00b2 43F48063 		orr	r3, r3, #1024
 2226 00b6 9360     		str	r3, [r2, #8]
1204:Drivers/STM32F7xx_HAL_Driver/Src/stm32f7xx_hal_rtc_ex.c **** 
1205:Drivers/STM32F7xx_HAL_Driver/Src/stm32f7xx_hal_rtc_ex.c ****   /* Enable the write protection for RTC registers */
1206:Drivers/STM32F7xx_HAL_Driver/Src/stm32f7xx_hal_rtc_ex.c ****   __HAL_RTC_WRITEPROTECTION_ENABLE(hrtc);
 2227              		.loc 1 1206 3 view .LVU775
 2228              		.loc 1 1206 3 view .LVU776
 2229 00b8 2368     		ldr	r3, [r4]
 2230 00ba FF22     		movs	r2, #255
 2231 00bc 5A62     		str	r2, [r3, #36]
 2232              		.loc 1 1206 3 view .LVU777
1207:Drivers/STM32F7xx_HAL_Driver/Src/stm32f7xx_hal_rtc_ex.c **** 
1208:Drivers/STM32F7xx_HAL_Driver/Src/stm32f7xx_hal_rtc_ex.c ****   hrtc->State = HAL_RTC_STATE_READY;
 2233              		.loc 1 1208 3 view .LVU778
 2234              		.loc 1 1208 15 is_stmt 0 view .LVU779
 2235 00be 0123     		movs	r3, #1
 2236 00c0 6377     		strb	r3, [r4, #29]
1209:Drivers/STM32F7xx_HAL_Driver/Src/stm32f7xx_hal_rtc_ex.c **** 
1210:Drivers/STM32F7xx_HAL_Driver/Src/stm32f7xx_hal_rtc_ex.c ****   /* Process Unlocked */
1211:Drivers/STM32F7xx_HAL_Driver/Src/stm32f7xx_hal_rtc_ex.c ****   __HAL_UNLOCK(hrtc);
 2237              		.loc 1 1211 3 is_stmt 1 view .LVU780
 2238              		.loc 1 1211 3 view .LVU781
 2239 00c2 0020     		movs	r0, #0
 2240 00c4 2077     		strb	r0, [r4, #28]
 2241              		.loc 1 1211 3 view .LVU782
1212:Drivers/STM32F7xx_HAL_Driver/Src/stm32f7xx_hal_rtc_ex.c **** 
1213:Drivers/STM32F7xx_HAL_Driver/Src/stm32f7xx_hal_rtc_ex.c ****   return HAL_OK;
 2242              		.loc 1 1213 3 view .LVU783
 2243              	.LVL156:
 2244              	.L153:
1214:Drivers/STM32F7xx_HAL_Driver/Src/stm32f7xx_hal_rtc_ex.c **** }
 2245              		.loc 1 1214 1 is_stmt 0 view .LVU784
 2246 00c6 F8BD     		pop	{r3, r4, r5, r6, r7, pc}
 2247              	.LVL157:
 2248              	.L159:
1137:Drivers/STM32F7xx_HAL_Driver/Src/stm32f7xx_hal_rtc_ex.c **** 
 2249              		.loc 1 1137 3 view .LVU785
 2250 00c8 0220     		movs	r0, #2
 2251              	.LVL158:
1137:Drivers/STM32F7xx_HAL_Driver/Src/stm32f7xx_hal_rtc_ex.c **** 
 2252              		.loc 1 1137 3 view .LVU786
 2253 00ca FCE7     		b	.L153
 2254              		.cfi_endproc
 2255              	.LFE159:
 2257              		.section	.text.HAL_RTCEx_SetWakeUpTimer_IT,"ax",%progbits
 2258              		.align	1
 2259              		.global	HAL_RTCEx_SetWakeUpTimer_IT
 2260              		.syntax unified
ARM GAS  /tmp/ccxe0t7k.s 			page 64


 2261              		.thumb
 2262              		.thumb_func
 2264              	HAL_RTCEx_SetWakeUpTimer_IT:
 2265              	.LVL159:
 2266              	.LFB160:
1215:Drivers/STM32F7xx_HAL_Driver/Src/stm32f7xx_hal_rtc_ex.c **** 
1216:Drivers/STM32F7xx_HAL_Driver/Src/stm32f7xx_hal_rtc_ex.c **** /**
1217:Drivers/STM32F7xx_HAL_Driver/Src/stm32f7xx_hal_rtc_ex.c ****   * @brief  Sets wakeup timer with interrupt.
1218:Drivers/STM32F7xx_HAL_Driver/Src/stm32f7xx_hal_rtc_ex.c ****   * @param  hrtc pointer to a RTC_HandleTypeDef structure that contains
1219:Drivers/STM32F7xx_HAL_Driver/Src/stm32f7xx_hal_rtc_ex.c ****   *                the configuration information for RTC.
1220:Drivers/STM32F7xx_HAL_Driver/Src/stm32f7xx_hal_rtc_ex.c ****   * @param  WakeUpCounter Wakeup counter
1221:Drivers/STM32F7xx_HAL_Driver/Src/stm32f7xx_hal_rtc_ex.c ****   * @param  WakeUpClock Wakeup clock
1222:Drivers/STM32F7xx_HAL_Driver/Src/stm32f7xx_hal_rtc_ex.c ****   * @retval HAL status
1223:Drivers/STM32F7xx_HAL_Driver/Src/stm32f7xx_hal_rtc_ex.c ****   */
1224:Drivers/STM32F7xx_HAL_Driver/Src/stm32f7xx_hal_rtc_ex.c **** HAL_StatusTypeDef HAL_RTCEx_SetWakeUpTimer_IT(RTC_HandleTypeDef *hrtc, uint32_t WakeUpCounter, uint
1225:Drivers/STM32F7xx_HAL_Driver/Src/stm32f7xx_hal_rtc_ex.c **** {
 2267              		.loc 1 1225 1 is_stmt 1 view -0
 2268              		.cfi_startproc
 2269              		@ args = 0, pretend = 0, frame = 8
 2270              		@ frame_needed = 0, uses_anonymous_args = 0
 2271              		@ link register save eliminated.
 2272              		.loc 1 1225 1 is_stmt 0 view .LVU788
 2273 0000 70B4     		push	{r4, r5, r6}
 2274              	.LCFI23:
 2275              		.cfi_def_cfa_offset 12
 2276              		.cfi_offset 4, -12
 2277              		.cfi_offset 5, -8
 2278              		.cfi_offset 6, -4
 2279 0002 83B0     		sub	sp, sp, #12
 2280              	.LCFI24:
 2281              		.cfi_def_cfa_offset 24
 2282 0004 0346     		mov	r3, r0
1226:Drivers/STM32F7xx_HAL_Driver/Src/stm32f7xx_hal_rtc_ex.c ****   __IO uint32_t count  = RTC_TIMEOUT_VALUE * (SystemCoreClock / 32U / 1000U);
 2283              		.loc 1 1226 3 is_stmt 1 view .LVU789
 2284              		.loc 1 1226 69 is_stmt 0 view .LVU790
 2285 0006 3948     		ldr	r0, .L173
 2286              	.LVL160:
 2287              		.loc 1 1226 69 view .LVU791
 2288 0008 0468     		ldr	r4, [r0]
 2289 000a 3948     		ldr	r0, .L173+4
 2290 000c A0FB0404 		umull	r0, r4, r0, r4
 2291 0010 E40A     		lsrs	r4, r4, #11
 2292              		.loc 1 1226 44 view .LVU792
 2293 0012 4FF47A70 		mov	r0, #1000
 2294 0016 00FB04F4 		mul	r4, r0, r4
 2295              		.loc 1 1226 17 view .LVU793
 2296 001a 0194     		str	r4, [sp, #4]
1227:Drivers/STM32F7xx_HAL_Driver/Src/stm32f7xx_hal_rtc_ex.c **** 
1228:Drivers/STM32F7xx_HAL_Driver/Src/stm32f7xx_hal_rtc_ex.c ****   /* Check the parameters */
1229:Drivers/STM32F7xx_HAL_Driver/Src/stm32f7xx_hal_rtc_ex.c ****   assert_param(IS_RTC_WAKEUP_CLOCK(WakeUpClock));
 2297              		.loc 1 1229 3 is_stmt 1 view .LVU794
1230:Drivers/STM32F7xx_HAL_Driver/Src/stm32f7xx_hal_rtc_ex.c ****   assert_param(IS_RTC_WAKEUP_COUNTER(WakeUpCounter));
 2298              		.loc 1 1230 3 view .LVU795
1231:Drivers/STM32F7xx_HAL_Driver/Src/stm32f7xx_hal_rtc_ex.c **** 
1232:Drivers/STM32F7xx_HAL_Driver/Src/stm32f7xx_hal_rtc_ex.c ****   /* Process Locked */
1233:Drivers/STM32F7xx_HAL_Driver/Src/stm32f7xx_hal_rtc_ex.c ****   __HAL_LOCK(hrtc);
 2299              		.loc 1 1233 3 view .LVU796
ARM GAS  /tmp/ccxe0t7k.s 			page 65


 2300              		.loc 1 1233 3 view .LVU797
 2301 001c 187F     		ldrb	r0, [r3, #28]	@ zero_extendqisi2
 2302 001e 0128     		cmp	r0, #1
 2303 0020 62D0     		beq	.L169
 2304              		.loc 1 1233 3 discriminator 2 view .LVU798
 2305 0022 0120     		movs	r0, #1
 2306 0024 1877     		strb	r0, [r3, #28]
 2307              		.loc 1 1233 3 discriminator 2 view .LVU799
1234:Drivers/STM32F7xx_HAL_Driver/Src/stm32f7xx_hal_rtc_ex.c **** 
1235:Drivers/STM32F7xx_HAL_Driver/Src/stm32f7xx_hal_rtc_ex.c ****   hrtc->State = HAL_RTC_STATE_BUSY;
 2308              		.loc 1 1235 3 discriminator 2 view .LVU800
 2309              		.loc 1 1235 15 is_stmt 0 discriminator 2 view .LVU801
 2310 0026 0220     		movs	r0, #2
 2311 0028 5877     		strb	r0, [r3, #29]
1236:Drivers/STM32F7xx_HAL_Driver/Src/stm32f7xx_hal_rtc_ex.c **** 
1237:Drivers/STM32F7xx_HAL_Driver/Src/stm32f7xx_hal_rtc_ex.c ****   /* Disable the write protection for RTC registers */
1238:Drivers/STM32F7xx_HAL_Driver/Src/stm32f7xx_hal_rtc_ex.c ****   __HAL_RTC_WRITEPROTECTION_DISABLE(hrtc);
 2312              		.loc 1 1238 3 is_stmt 1 discriminator 2 view .LVU802
 2313              		.loc 1 1238 3 discriminator 2 view .LVU803
 2314 002a 1868     		ldr	r0, [r3]
 2315 002c CA25     		movs	r5, #202
 2316 002e 4562     		str	r5, [r0, #36]
 2317              		.loc 1 1238 3 discriminator 2 view .LVU804
 2318 0030 1868     		ldr	r0, [r3]
 2319 0032 5325     		movs	r5, #83
 2320 0034 4562     		str	r5, [r0, #36]
 2321              		.loc 1 1238 3 discriminator 2 view .LVU805
1239:Drivers/STM32F7xx_HAL_Driver/Src/stm32f7xx_hal_rtc_ex.c **** 
1240:Drivers/STM32F7xx_HAL_Driver/Src/stm32f7xx_hal_rtc_ex.c ****   /* Check RTC WUTWF flag is reset only when wakeup timer enabled */
1241:Drivers/STM32F7xx_HAL_Driver/Src/stm32f7xx_hal_rtc_ex.c ****   if ((hrtc->Instance->CR & RTC_CR_WUTE) != 0U)
 2322              		.loc 1 1241 3 discriminator 2 view .LVU806
 2323              		.loc 1 1241 12 is_stmt 0 discriminator 2 view .LVU807
 2324 0036 1E68     		ldr	r6, [r3]
 2325              		.loc 1 1241 22 discriminator 2 view .LVU808
 2326 0038 B068     		ldr	r0, [r6, #8]
 2327              		.loc 1 1241 6 discriminator 2 view .LVU809
 2328 003a 10F4806F 		tst	r0, #1024
 2329 003e 08D0     		beq	.L164
 2330              	.L166:
1242:Drivers/STM32F7xx_HAL_Driver/Src/stm32f7xx_hal_rtc_ex.c ****   {
1243:Drivers/STM32F7xx_HAL_Driver/Src/stm32f7xx_hal_rtc_ex.c ****     /* Wait till RTC WUTWF flag is reset and if timeout is reached exit */
1244:Drivers/STM32F7xx_HAL_Driver/Src/stm32f7xx_hal_rtc_ex.c ****     do
 2331              		.loc 1 1244 5 is_stmt 1 view .LVU810
1245:Drivers/STM32F7xx_HAL_Driver/Src/stm32f7xx_hal_rtc_ex.c ****     {
1246:Drivers/STM32F7xx_HAL_Driver/Src/stm32f7xx_hal_rtc_ex.c ****       if (count-- == 0U)
 2332              		.loc 1 1246 7 view .LVU811
 2333              		.loc 1 1246 16 is_stmt 0 view .LVU812
 2334 0040 0198     		ldr	r0, [sp, #4]
 2335 0042 451E     		subs	r5, r0, #1
 2336 0044 0195     		str	r5, [sp, #4]
 2337              		.loc 1 1246 10 view .LVU813
 2338 0046 0028     		cmp	r0, #0
 2339 0048 3DD0     		beq	.L171
1247:Drivers/STM32F7xx_HAL_Driver/Src/stm32f7xx_hal_rtc_ex.c ****       {
1248:Drivers/STM32F7xx_HAL_Driver/Src/stm32f7xx_hal_rtc_ex.c ****         /* Enable the write protection for RTC registers */
1249:Drivers/STM32F7xx_HAL_Driver/Src/stm32f7xx_hal_rtc_ex.c ****         __HAL_RTC_WRITEPROTECTION_ENABLE(hrtc);
1250:Drivers/STM32F7xx_HAL_Driver/Src/stm32f7xx_hal_rtc_ex.c **** 
ARM GAS  /tmp/ccxe0t7k.s 			page 66


1251:Drivers/STM32F7xx_HAL_Driver/Src/stm32f7xx_hal_rtc_ex.c ****         hrtc->State = HAL_RTC_STATE_TIMEOUT;
1252:Drivers/STM32F7xx_HAL_Driver/Src/stm32f7xx_hal_rtc_ex.c **** 
1253:Drivers/STM32F7xx_HAL_Driver/Src/stm32f7xx_hal_rtc_ex.c ****         /* Process Unlocked */
1254:Drivers/STM32F7xx_HAL_Driver/Src/stm32f7xx_hal_rtc_ex.c ****         __HAL_UNLOCK(hrtc);
1255:Drivers/STM32F7xx_HAL_Driver/Src/stm32f7xx_hal_rtc_ex.c **** 
1256:Drivers/STM32F7xx_HAL_Driver/Src/stm32f7xx_hal_rtc_ex.c ****         return HAL_TIMEOUT;
1257:Drivers/STM32F7xx_HAL_Driver/Src/stm32f7xx_hal_rtc_ex.c ****       }
1258:Drivers/STM32F7xx_HAL_Driver/Src/stm32f7xx_hal_rtc_ex.c ****     } while (__HAL_RTC_WAKEUPTIMER_GET_FLAG(hrtc, RTC_FLAG_WUTWF) != 0U);
 2340              		.loc 1 1258 67 is_stmt 1 view .LVU814
 2341              		.loc 1 1258 14 is_stmt 0 view .LVU815
 2342 004a F068     		ldr	r0, [r6, #12]
 2343              		.loc 1 1258 67 view .LVU816
 2344 004c 10F0040F 		tst	r0, #4
 2345 0050 F6D1     		bne	.L166
 2346              	.L164:
1259:Drivers/STM32F7xx_HAL_Driver/Src/stm32f7xx_hal_rtc_ex.c ****   }
1260:Drivers/STM32F7xx_HAL_Driver/Src/stm32f7xx_hal_rtc_ex.c **** 
1261:Drivers/STM32F7xx_HAL_Driver/Src/stm32f7xx_hal_rtc_ex.c ****   /* Disable the Wakeup timer */
1262:Drivers/STM32F7xx_HAL_Driver/Src/stm32f7xx_hal_rtc_ex.c ****   __HAL_RTC_WAKEUPTIMER_DISABLE(hrtc);
 2347              		.loc 1 1262 3 is_stmt 1 view .LVU817
 2348 0052 B068     		ldr	r0, [r6, #8]
 2349 0054 20F48060 		bic	r0, r0, #1024
 2350 0058 B060     		str	r0, [r6, #8]
1263:Drivers/STM32F7xx_HAL_Driver/Src/stm32f7xx_hal_rtc_ex.c **** 
1264:Drivers/STM32F7xx_HAL_Driver/Src/stm32f7xx_hal_rtc_ex.c ****   /* Clear the Wakeup flag */
1265:Drivers/STM32F7xx_HAL_Driver/Src/stm32f7xx_hal_rtc_ex.c ****   __HAL_RTC_WAKEUPTIMER_CLEAR_FLAG(hrtc, RTC_FLAG_WUTF);
 2351              		.loc 1 1265 3 view .LVU818
 2352 005a 1D68     		ldr	r5, [r3]
 2353 005c E868     		ldr	r0, [r5, #12]
 2354 005e C0B2     		uxtb	r0, r0
 2355 0060 60F49060 		orn	r0, r0, #1152
 2356 0064 E860     		str	r0, [r5, #12]
1266:Drivers/STM32F7xx_HAL_Driver/Src/stm32f7xx_hal_rtc_ex.c **** 
1267:Drivers/STM32F7xx_HAL_Driver/Src/stm32f7xx_hal_rtc_ex.c ****   /* Reload the counter */
1268:Drivers/STM32F7xx_HAL_Driver/Src/stm32f7xx_hal_rtc_ex.c ****   count = RTC_TIMEOUT_VALUE * (SystemCoreClock / 32U / 1000U);
 2357              		.loc 1 1268 3 view .LVU819
 2358              		.loc 1 1268 9 is_stmt 0 view .LVU820
 2359 0066 0194     		str	r4, [sp, #4]
 2360              	.L168:
1269:Drivers/STM32F7xx_HAL_Driver/Src/stm32f7xx_hal_rtc_ex.c **** 
1270:Drivers/STM32F7xx_HAL_Driver/Src/stm32f7xx_hal_rtc_ex.c ****   /* Wait till RTC WUTWF flag is set and if timeout is reached exit */
1271:Drivers/STM32F7xx_HAL_Driver/Src/stm32f7xx_hal_rtc_ex.c ****   do
 2361              		.loc 1 1271 3 is_stmt 1 view .LVU821
1272:Drivers/STM32F7xx_HAL_Driver/Src/stm32f7xx_hal_rtc_ex.c ****   {
1273:Drivers/STM32F7xx_HAL_Driver/Src/stm32f7xx_hal_rtc_ex.c ****     if (count-- == 0U)
 2362              		.loc 1 1273 5 view .LVU822
 2363              		.loc 1 1273 14 is_stmt 0 view .LVU823
 2364 0068 0198     		ldr	r0, [sp, #4]
 2365 006a 441E     		subs	r4, r0, #1
 2366 006c 0194     		str	r4, [sp, #4]
 2367              		.loc 1 1273 8 view .LVU824
 2368 006e 0028     		cmp	r0, #0
 2369 0070 30D0     		beq	.L172
1274:Drivers/STM32F7xx_HAL_Driver/Src/stm32f7xx_hal_rtc_ex.c ****     {
1275:Drivers/STM32F7xx_HAL_Driver/Src/stm32f7xx_hal_rtc_ex.c ****       /* Enable the write protection for RTC registers */
1276:Drivers/STM32F7xx_HAL_Driver/Src/stm32f7xx_hal_rtc_ex.c ****       __HAL_RTC_WRITEPROTECTION_ENABLE(hrtc);
1277:Drivers/STM32F7xx_HAL_Driver/Src/stm32f7xx_hal_rtc_ex.c **** 
ARM GAS  /tmp/ccxe0t7k.s 			page 67


1278:Drivers/STM32F7xx_HAL_Driver/Src/stm32f7xx_hal_rtc_ex.c ****       hrtc->State = HAL_RTC_STATE_TIMEOUT;
1279:Drivers/STM32F7xx_HAL_Driver/Src/stm32f7xx_hal_rtc_ex.c **** 
1280:Drivers/STM32F7xx_HAL_Driver/Src/stm32f7xx_hal_rtc_ex.c ****       /* Process Unlocked */
1281:Drivers/STM32F7xx_HAL_Driver/Src/stm32f7xx_hal_rtc_ex.c ****       __HAL_UNLOCK(hrtc);
1282:Drivers/STM32F7xx_HAL_Driver/Src/stm32f7xx_hal_rtc_ex.c **** 
1283:Drivers/STM32F7xx_HAL_Driver/Src/stm32f7xx_hal_rtc_ex.c ****       return HAL_TIMEOUT;
1284:Drivers/STM32F7xx_HAL_Driver/Src/stm32f7xx_hal_rtc_ex.c ****     }
1285:Drivers/STM32F7xx_HAL_Driver/Src/stm32f7xx_hal_rtc_ex.c ****   } while (__HAL_RTC_WAKEUPTIMER_GET_FLAG(hrtc, RTC_FLAG_WUTWF) == 0U);
 2370              		.loc 1 1285 65 is_stmt 1 view .LVU825
 2371              		.loc 1 1285 12 is_stmt 0 view .LVU826
 2372 0072 1868     		ldr	r0, [r3]
 2373 0074 C468     		ldr	r4, [r0, #12]
 2374              		.loc 1 1285 65 view .LVU827
 2375 0076 14F0040F 		tst	r4, #4
 2376 007a F5D0     		beq	.L168
1286:Drivers/STM32F7xx_HAL_Driver/Src/stm32f7xx_hal_rtc_ex.c **** 
1287:Drivers/STM32F7xx_HAL_Driver/Src/stm32f7xx_hal_rtc_ex.c ****   /* Clear the Wakeup Timer clock source bits in CR register */
1288:Drivers/STM32F7xx_HAL_Driver/Src/stm32f7xx_hal_rtc_ex.c ****   hrtc->Instance->CR &= (uint32_t)~RTC_CR_WUCKSEL;
 2377              		.loc 1 1288 3 is_stmt 1 view .LVU828
 2378              		.loc 1 1288 17 is_stmt 0 view .LVU829
 2379 007c 8468     		ldr	r4, [r0, #8]
 2380              		.loc 1 1288 22 view .LVU830
 2381 007e 24F00704 		bic	r4, r4, #7
 2382 0082 8460     		str	r4, [r0, #8]
1289:Drivers/STM32F7xx_HAL_Driver/Src/stm32f7xx_hal_rtc_ex.c **** 
1290:Drivers/STM32F7xx_HAL_Driver/Src/stm32f7xx_hal_rtc_ex.c ****   /* Configure the clock source */
1291:Drivers/STM32F7xx_HAL_Driver/Src/stm32f7xx_hal_rtc_ex.c ****   hrtc->Instance->CR |= (uint32_t)WakeUpClock;
 2383              		.loc 1 1291 3 is_stmt 1 view .LVU831
 2384              		.loc 1 1291 7 is_stmt 0 view .LVU832
 2385 0084 1C68     		ldr	r4, [r3]
 2386              		.loc 1 1291 17 view .LVU833
 2387 0086 A068     		ldr	r0, [r4, #8]
 2388              		.loc 1 1291 22 view .LVU834
 2389 0088 0243     		orrs	r2, r2, r0
 2390              	.LVL161:
 2391              		.loc 1 1291 22 view .LVU835
 2392 008a A260     		str	r2, [r4, #8]
1292:Drivers/STM32F7xx_HAL_Driver/Src/stm32f7xx_hal_rtc_ex.c **** 
1293:Drivers/STM32F7xx_HAL_Driver/Src/stm32f7xx_hal_rtc_ex.c ****   /* Configure the Wakeup Timer counter */
1294:Drivers/STM32F7xx_HAL_Driver/Src/stm32f7xx_hal_rtc_ex.c ****   hrtc->Instance->WUTR = (uint32_t)WakeUpCounter;
 2393              		.loc 1 1294 3 is_stmt 1 view .LVU836
 2394              		.loc 1 1294 7 is_stmt 0 view .LVU837
 2395 008c 1A68     		ldr	r2, [r3]
 2396              		.loc 1 1294 24 view .LVU838
 2397 008e 5161     		str	r1, [r2, #20]
1295:Drivers/STM32F7xx_HAL_Driver/Src/stm32f7xx_hal_rtc_ex.c **** 
1296:Drivers/STM32F7xx_HAL_Driver/Src/stm32f7xx_hal_rtc_ex.c ****   /* RTC wakeup timer Interrupt Configuration: EXTI configuration */
1297:Drivers/STM32F7xx_HAL_Driver/Src/stm32f7xx_hal_rtc_ex.c ****   __HAL_RTC_WAKEUPTIMER_EXTI_ENABLE_IT();
 2398              		.loc 1 1297 3 is_stmt 1 view .LVU839
 2399 0090 184A     		ldr	r2, .L173+8
 2400 0092 1168     		ldr	r1, [r2]
 2401              	.LVL162:
 2402              		.loc 1 1297 3 is_stmt 0 view .LVU840
 2403 0094 41F48001 		orr	r1, r1, #4194304
 2404 0098 1160     		str	r1, [r2]
1298:Drivers/STM32F7xx_HAL_Driver/Src/stm32f7xx_hal_rtc_ex.c ****   __HAL_RTC_WAKEUPTIMER_EXTI_ENABLE_RISING_EDGE();
 2405              		.loc 1 1298 3 is_stmt 1 view .LVU841
ARM GAS  /tmp/ccxe0t7k.s 			page 68


 2406 009a 9168     		ldr	r1, [r2, #8]
 2407 009c 41F48001 		orr	r1, r1, #4194304
 2408 00a0 9160     		str	r1, [r2, #8]
1299:Drivers/STM32F7xx_HAL_Driver/Src/stm32f7xx_hal_rtc_ex.c **** 
1300:Drivers/STM32F7xx_HAL_Driver/Src/stm32f7xx_hal_rtc_ex.c ****   /* Configure the interrupt in the RTC_CR register */
1301:Drivers/STM32F7xx_HAL_Driver/Src/stm32f7xx_hal_rtc_ex.c ****   __HAL_RTC_WAKEUPTIMER_ENABLE_IT(hrtc, RTC_IT_WUT);
 2409              		.loc 1 1301 3 view .LVU842
 2410 00a2 1968     		ldr	r1, [r3]
 2411 00a4 8A68     		ldr	r2, [r1, #8]
 2412 00a6 42F48042 		orr	r2, r2, #16384
 2413 00aa 8A60     		str	r2, [r1, #8]
1302:Drivers/STM32F7xx_HAL_Driver/Src/stm32f7xx_hal_rtc_ex.c **** 
1303:Drivers/STM32F7xx_HAL_Driver/Src/stm32f7xx_hal_rtc_ex.c ****   /* Enable the Wakeup Timer */
1304:Drivers/STM32F7xx_HAL_Driver/Src/stm32f7xx_hal_rtc_ex.c ****   __HAL_RTC_WAKEUPTIMER_ENABLE(hrtc);
 2414              		.loc 1 1304 3 view .LVU843
 2415 00ac 1968     		ldr	r1, [r3]
 2416 00ae 8A68     		ldr	r2, [r1, #8]
 2417 00b0 42F48062 		orr	r2, r2, #1024
 2418 00b4 8A60     		str	r2, [r1, #8]
1305:Drivers/STM32F7xx_HAL_Driver/Src/stm32f7xx_hal_rtc_ex.c **** 
1306:Drivers/STM32F7xx_HAL_Driver/Src/stm32f7xx_hal_rtc_ex.c ****   /* Enable the write protection for RTC registers */
1307:Drivers/STM32F7xx_HAL_Driver/Src/stm32f7xx_hal_rtc_ex.c ****   __HAL_RTC_WRITEPROTECTION_ENABLE(hrtc);
 2419              		.loc 1 1307 3 view .LVU844
 2420              		.loc 1 1307 3 view .LVU845
 2421 00b6 1A68     		ldr	r2, [r3]
 2422 00b8 FF21     		movs	r1, #255
 2423 00ba 5162     		str	r1, [r2, #36]
 2424              		.loc 1 1307 3 view .LVU846
1308:Drivers/STM32F7xx_HAL_Driver/Src/stm32f7xx_hal_rtc_ex.c **** 
1309:Drivers/STM32F7xx_HAL_Driver/Src/stm32f7xx_hal_rtc_ex.c ****   hrtc->State = HAL_RTC_STATE_READY;
 2425              		.loc 1 1309 3 view .LVU847
 2426              		.loc 1 1309 15 is_stmt 0 view .LVU848
 2427 00bc 0122     		movs	r2, #1
 2428 00be 5A77     		strb	r2, [r3, #29]
1310:Drivers/STM32F7xx_HAL_Driver/Src/stm32f7xx_hal_rtc_ex.c **** 
1311:Drivers/STM32F7xx_HAL_Driver/Src/stm32f7xx_hal_rtc_ex.c ****   /* Process Unlocked */
1312:Drivers/STM32F7xx_HAL_Driver/Src/stm32f7xx_hal_rtc_ex.c ****   __HAL_UNLOCK(hrtc);
 2429              		.loc 1 1312 3 is_stmt 1 view .LVU849
 2430              		.loc 1 1312 3 view .LVU850
 2431 00c0 0020     		movs	r0, #0
 2432 00c2 1877     		strb	r0, [r3, #28]
 2433              		.loc 1 1312 3 view .LVU851
1313:Drivers/STM32F7xx_HAL_Driver/Src/stm32f7xx_hal_rtc_ex.c **** 
1314:Drivers/STM32F7xx_HAL_Driver/Src/stm32f7xx_hal_rtc_ex.c ****   return HAL_OK;
 2434              		.loc 1 1314 3 view .LVU852
 2435              		.loc 1 1314 10 is_stmt 0 view .LVU853
 2436 00c4 0DE0     		b	.L163
 2437              	.LVL163:
 2438              	.L171:
1249:Drivers/STM32F7xx_HAL_Driver/Src/stm32f7xx_hal_rtc_ex.c **** 
 2439              		.loc 1 1249 9 is_stmt 1 view .LVU854
1249:Drivers/STM32F7xx_HAL_Driver/Src/stm32f7xx_hal_rtc_ex.c **** 
 2440              		.loc 1 1249 9 view .LVU855
 2441 00c6 FF22     		movs	r2, #255
 2442              	.LVL164:
1249:Drivers/STM32F7xx_HAL_Driver/Src/stm32f7xx_hal_rtc_ex.c **** 
 2443              		.loc 1 1249 9 is_stmt 0 view .LVU856
ARM GAS  /tmp/ccxe0t7k.s 			page 69


 2444 00c8 7262     		str	r2, [r6, #36]
1249:Drivers/STM32F7xx_HAL_Driver/Src/stm32f7xx_hal_rtc_ex.c **** 
 2445              		.loc 1 1249 9 is_stmt 1 view .LVU857
1251:Drivers/STM32F7xx_HAL_Driver/Src/stm32f7xx_hal_rtc_ex.c **** 
 2446              		.loc 1 1251 9 view .LVU858
1251:Drivers/STM32F7xx_HAL_Driver/Src/stm32f7xx_hal_rtc_ex.c **** 
 2447              		.loc 1 1251 21 is_stmt 0 view .LVU859
 2448 00ca 0320     		movs	r0, #3
 2449 00cc 5877     		strb	r0, [r3, #29]
1254:Drivers/STM32F7xx_HAL_Driver/Src/stm32f7xx_hal_rtc_ex.c **** 
 2450              		.loc 1 1254 9 is_stmt 1 view .LVU860
1254:Drivers/STM32F7xx_HAL_Driver/Src/stm32f7xx_hal_rtc_ex.c **** 
 2451              		.loc 1 1254 9 view .LVU861
 2452 00ce 0022     		movs	r2, #0
 2453 00d0 1A77     		strb	r2, [r3, #28]
1254:Drivers/STM32F7xx_HAL_Driver/Src/stm32f7xx_hal_rtc_ex.c **** 
 2454              		.loc 1 1254 9 view .LVU862
1256:Drivers/STM32F7xx_HAL_Driver/Src/stm32f7xx_hal_rtc_ex.c ****       }
 2455              		.loc 1 1256 9 view .LVU863
1256:Drivers/STM32F7xx_HAL_Driver/Src/stm32f7xx_hal_rtc_ex.c ****       }
 2456              		.loc 1 1256 16 is_stmt 0 view .LVU864
 2457 00d2 06E0     		b	.L163
 2458              	.LVL165:
 2459              	.L172:
1276:Drivers/STM32F7xx_HAL_Driver/Src/stm32f7xx_hal_rtc_ex.c **** 
 2460              		.loc 1 1276 7 is_stmt 1 view .LVU865
1276:Drivers/STM32F7xx_HAL_Driver/Src/stm32f7xx_hal_rtc_ex.c **** 
 2461              		.loc 1 1276 7 view .LVU866
 2462 00d4 1A68     		ldr	r2, [r3]
 2463              	.LVL166:
1276:Drivers/STM32F7xx_HAL_Driver/Src/stm32f7xx_hal_rtc_ex.c **** 
 2464              		.loc 1 1276 7 is_stmt 0 view .LVU867
 2465 00d6 FF21     		movs	r1, #255
 2466              	.LVL167:
1276:Drivers/STM32F7xx_HAL_Driver/Src/stm32f7xx_hal_rtc_ex.c **** 
 2467              		.loc 1 1276 7 view .LVU868
 2468 00d8 5162     		str	r1, [r2, #36]
1276:Drivers/STM32F7xx_HAL_Driver/Src/stm32f7xx_hal_rtc_ex.c **** 
 2469              		.loc 1 1276 7 is_stmt 1 view .LVU869
1278:Drivers/STM32F7xx_HAL_Driver/Src/stm32f7xx_hal_rtc_ex.c **** 
 2470              		.loc 1 1278 7 view .LVU870
1278:Drivers/STM32F7xx_HAL_Driver/Src/stm32f7xx_hal_rtc_ex.c **** 
 2471              		.loc 1 1278 19 is_stmt 0 view .LVU871
 2472 00da 0320     		movs	r0, #3
 2473 00dc 5877     		strb	r0, [r3, #29]
1281:Drivers/STM32F7xx_HAL_Driver/Src/stm32f7xx_hal_rtc_ex.c **** 
 2474              		.loc 1 1281 7 is_stmt 1 view .LVU872
1281:Drivers/STM32F7xx_HAL_Driver/Src/stm32f7xx_hal_rtc_ex.c **** 
 2475              		.loc 1 1281 7 view .LVU873
 2476 00de 0022     		movs	r2, #0
 2477 00e0 1A77     		strb	r2, [r3, #28]
1281:Drivers/STM32F7xx_HAL_Driver/Src/stm32f7xx_hal_rtc_ex.c **** 
 2478              		.loc 1 1281 7 view .LVU874
1283:Drivers/STM32F7xx_HAL_Driver/Src/stm32f7xx_hal_rtc_ex.c ****     }
 2479              		.loc 1 1283 7 view .LVU875
 2480              	.L163:
1315:Drivers/STM32F7xx_HAL_Driver/Src/stm32f7xx_hal_rtc_ex.c **** }
ARM GAS  /tmp/ccxe0t7k.s 			page 70


 2481              		.loc 1 1315 1 is_stmt 0 view .LVU876
 2482 00e2 03B0     		add	sp, sp, #12
 2483              	.LCFI25:
 2484              		.cfi_remember_state
 2485              		.cfi_def_cfa_offset 12
 2486              		@ sp needed
 2487 00e4 70BC     		pop	{r4, r5, r6}
 2488              	.LCFI26:
 2489              		.cfi_restore 6
 2490              		.cfi_restore 5
 2491              		.cfi_restore 4
 2492              		.cfi_def_cfa_offset 0
 2493 00e6 7047     		bx	lr
 2494              	.LVL168:
 2495              	.L169:
 2496              	.LCFI27:
 2497              		.cfi_restore_state
1233:Drivers/STM32F7xx_HAL_Driver/Src/stm32f7xx_hal_rtc_ex.c **** 
 2498              		.loc 1 1233 3 view .LVU877
 2499 00e8 0220     		movs	r0, #2
 2500 00ea FAE7     		b	.L163
 2501              	.L174:
 2502              		.align	2
 2503              	.L173:
 2504 00ec 00000000 		.word	SystemCoreClock
 2505 00f0 D34D6210 		.word	274877907
 2506 00f4 003C0140 		.word	1073822720
 2507              		.cfi_endproc
 2508              	.LFE160:
 2510              		.section	.text.HAL_RTCEx_DeactivateWakeUpTimer,"ax",%progbits
 2511              		.align	1
 2512              		.global	HAL_RTCEx_DeactivateWakeUpTimer
 2513              		.syntax unified
 2514              		.thumb
 2515              		.thumb_func
 2517              	HAL_RTCEx_DeactivateWakeUpTimer:
 2518              	.LVL169:
 2519              	.LFB161:
1316:Drivers/STM32F7xx_HAL_Driver/Src/stm32f7xx_hal_rtc_ex.c **** 
1317:Drivers/STM32F7xx_HAL_Driver/Src/stm32f7xx_hal_rtc_ex.c **** /**
1318:Drivers/STM32F7xx_HAL_Driver/Src/stm32f7xx_hal_rtc_ex.c ****   * @brief  Deactivates wakeup timer counter.
1319:Drivers/STM32F7xx_HAL_Driver/Src/stm32f7xx_hal_rtc_ex.c ****   * @param  hrtc pointer to a RTC_HandleTypeDef structure that contains
1320:Drivers/STM32F7xx_HAL_Driver/Src/stm32f7xx_hal_rtc_ex.c ****   *                the configuration information for RTC.
1321:Drivers/STM32F7xx_HAL_Driver/Src/stm32f7xx_hal_rtc_ex.c ****   * @retval HAL status
1322:Drivers/STM32F7xx_HAL_Driver/Src/stm32f7xx_hal_rtc_ex.c ****   */
1323:Drivers/STM32F7xx_HAL_Driver/Src/stm32f7xx_hal_rtc_ex.c **** HAL_StatusTypeDef HAL_RTCEx_DeactivateWakeUpTimer(RTC_HandleTypeDef *hrtc)
1324:Drivers/STM32F7xx_HAL_Driver/Src/stm32f7xx_hal_rtc_ex.c **** {
 2520              		.loc 1 1324 1 is_stmt 1 view -0
 2521              		.cfi_startproc
 2522              		@ args = 0, pretend = 0, frame = 0
 2523              		@ frame_needed = 0, uses_anonymous_args = 0
 2524              		.loc 1 1324 1 is_stmt 0 view .LVU879
 2525 0000 38B5     		push	{r3, r4, r5, lr}
 2526              	.LCFI28:
 2527              		.cfi_def_cfa_offset 16
 2528              		.cfi_offset 3, -16
 2529              		.cfi_offset 4, -12
ARM GAS  /tmp/ccxe0t7k.s 			page 71


 2530              		.cfi_offset 5, -8
 2531              		.cfi_offset 14, -4
1325:Drivers/STM32F7xx_HAL_Driver/Src/stm32f7xx_hal_rtc_ex.c ****   uint32_t tickstart = 0U;
 2532              		.loc 1 1325 3 is_stmt 1 view .LVU880
 2533              	.LVL170:
1326:Drivers/STM32F7xx_HAL_Driver/Src/stm32f7xx_hal_rtc_ex.c **** 
1327:Drivers/STM32F7xx_HAL_Driver/Src/stm32f7xx_hal_rtc_ex.c ****   /* Process Locked */
1328:Drivers/STM32F7xx_HAL_Driver/Src/stm32f7xx_hal_rtc_ex.c ****   __HAL_LOCK(hrtc);
 2534              		.loc 1 1328 3 view .LVU881
 2535              		.loc 1 1328 3 view .LVU882
 2536 0002 037F     		ldrb	r3, [r0, #28]	@ zero_extendqisi2
 2537 0004 012B     		cmp	r3, #1
 2538 0006 31D0     		beq	.L179
 2539 0008 0446     		mov	r4, r0
 2540              		.loc 1 1328 3 discriminator 2 view .LVU883
 2541 000a 0123     		movs	r3, #1
 2542 000c 0377     		strb	r3, [r0, #28]
 2543              		.loc 1 1328 3 discriminator 2 view .LVU884
1329:Drivers/STM32F7xx_HAL_Driver/Src/stm32f7xx_hal_rtc_ex.c **** 
1330:Drivers/STM32F7xx_HAL_Driver/Src/stm32f7xx_hal_rtc_ex.c ****   hrtc->State = HAL_RTC_STATE_BUSY;
 2544              		.loc 1 1330 3 discriminator 2 view .LVU885
 2545              		.loc 1 1330 15 is_stmt 0 discriminator 2 view .LVU886
 2546 000e 0223     		movs	r3, #2
 2547 0010 4377     		strb	r3, [r0, #29]
1331:Drivers/STM32F7xx_HAL_Driver/Src/stm32f7xx_hal_rtc_ex.c **** 
1332:Drivers/STM32F7xx_HAL_Driver/Src/stm32f7xx_hal_rtc_ex.c ****   /* Disable the write protection for RTC registers */
1333:Drivers/STM32F7xx_HAL_Driver/Src/stm32f7xx_hal_rtc_ex.c ****   __HAL_RTC_WRITEPROTECTION_DISABLE(hrtc);
 2548              		.loc 1 1333 3 is_stmt 1 discriminator 2 view .LVU887
 2549              		.loc 1 1333 3 discriminator 2 view .LVU888
 2550 0012 0368     		ldr	r3, [r0]
 2551 0014 CA22     		movs	r2, #202
 2552 0016 5A62     		str	r2, [r3, #36]
 2553              		.loc 1 1333 3 discriminator 2 view .LVU889
 2554 0018 0368     		ldr	r3, [r0]
 2555 001a 5322     		movs	r2, #83
 2556 001c 5A62     		str	r2, [r3, #36]
 2557              		.loc 1 1333 3 discriminator 2 view .LVU890
1334:Drivers/STM32F7xx_HAL_Driver/Src/stm32f7xx_hal_rtc_ex.c **** 
1335:Drivers/STM32F7xx_HAL_Driver/Src/stm32f7xx_hal_rtc_ex.c ****   /* Disable the Wakeup Timer */
1336:Drivers/STM32F7xx_HAL_Driver/Src/stm32f7xx_hal_rtc_ex.c ****   __HAL_RTC_WAKEUPTIMER_DISABLE(hrtc);
 2558              		.loc 1 1336 3 discriminator 2 view .LVU891
 2559 001e 0268     		ldr	r2, [r0]
 2560 0020 9368     		ldr	r3, [r2, #8]
 2561 0022 23F48063 		bic	r3, r3, #1024
 2562 0026 9360     		str	r3, [r2, #8]
1337:Drivers/STM32F7xx_HAL_Driver/Src/stm32f7xx_hal_rtc_ex.c **** 
1338:Drivers/STM32F7xx_HAL_Driver/Src/stm32f7xx_hal_rtc_ex.c ****   /* In case of interrupt mode is used, the interrupt source must disabled */
1339:Drivers/STM32F7xx_HAL_Driver/Src/stm32f7xx_hal_rtc_ex.c ****   __HAL_RTC_WAKEUPTIMER_DISABLE_IT(hrtc, RTC_IT_WUT);
 2563              		.loc 1 1339 3 discriminator 2 view .LVU892
 2564 0028 0268     		ldr	r2, [r0]
 2565 002a 9368     		ldr	r3, [r2, #8]
 2566 002c 23F48043 		bic	r3, r3, #16384
 2567 0030 9360     		str	r3, [r2, #8]
1340:Drivers/STM32F7xx_HAL_Driver/Src/stm32f7xx_hal_rtc_ex.c **** 
1341:Drivers/STM32F7xx_HAL_Driver/Src/stm32f7xx_hal_rtc_ex.c ****   /* Get tick */
1342:Drivers/STM32F7xx_HAL_Driver/Src/stm32f7xx_hal_rtc_ex.c ****   tickstart = HAL_GetTick();
 2568              		.loc 1 1342 3 discriminator 2 view .LVU893
ARM GAS  /tmp/ccxe0t7k.s 			page 72


 2569              		.loc 1 1342 15 is_stmt 0 discriminator 2 view .LVU894
 2570 0032 FFF7FEFF 		bl	HAL_GetTick
 2571              	.LVL171:
 2572              		.loc 1 1342 15 discriminator 2 view .LVU895
 2573 0036 0546     		mov	r5, r0
 2574              	.LVL172:
1343:Drivers/STM32F7xx_HAL_Driver/Src/stm32f7xx_hal_rtc_ex.c **** 
1344:Drivers/STM32F7xx_HAL_Driver/Src/stm32f7xx_hal_rtc_ex.c ****   /* Wait till RTC WUTWF flag is set and if timeout is reached exit */
1345:Drivers/STM32F7xx_HAL_Driver/Src/stm32f7xx_hal_rtc_ex.c ****   while (__HAL_RTC_WAKEUPTIMER_GET_FLAG(hrtc, RTC_FLAG_WUTWF) == 0U)
 2575              		.loc 1 1345 3 is_stmt 1 discriminator 2 view .LVU896
 2576              	.L177:
 2577              		.loc 1 1345 63 view .LVU897
 2578              		.loc 1 1345 10 is_stmt 0 view .LVU898
 2579 0038 2368     		ldr	r3, [r4]
 2580 003a DA68     		ldr	r2, [r3, #12]
 2581              		.loc 1 1345 63 view .LVU899
 2582 003c 12F0040F 		tst	r2, #4
 2583 0040 0DD1     		bne	.L181
1346:Drivers/STM32F7xx_HAL_Driver/Src/stm32f7xx_hal_rtc_ex.c ****   {
1347:Drivers/STM32F7xx_HAL_Driver/Src/stm32f7xx_hal_rtc_ex.c ****     if ((HAL_GetTick() - tickstart) > RTC_TIMEOUT_VALUE)
 2584              		.loc 1 1347 5 is_stmt 1 view .LVU900
 2585              		.loc 1 1347 10 is_stmt 0 view .LVU901
 2586 0042 FFF7FEFF 		bl	HAL_GetTick
 2587              	.LVL173:
 2588              		.loc 1 1347 24 view .LVU902
 2589 0046 431B     		subs	r3, r0, r5
 2590              		.loc 1 1347 8 view .LVU903
 2591 0048 B3F57A7F 		cmp	r3, #1000
 2592 004c F4D9     		bls	.L177
1348:Drivers/STM32F7xx_HAL_Driver/Src/stm32f7xx_hal_rtc_ex.c ****     {
1349:Drivers/STM32F7xx_HAL_Driver/Src/stm32f7xx_hal_rtc_ex.c ****       /* Enable the write protection for RTC registers */
1350:Drivers/STM32F7xx_HAL_Driver/Src/stm32f7xx_hal_rtc_ex.c ****       __HAL_RTC_WRITEPROTECTION_ENABLE(hrtc);
 2593              		.loc 1 1350 7 is_stmt 1 view .LVU904
 2594              		.loc 1 1350 7 view .LVU905
 2595 004e 2368     		ldr	r3, [r4]
 2596 0050 FF22     		movs	r2, #255
 2597 0052 5A62     		str	r2, [r3, #36]
 2598              		.loc 1 1350 7 view .LVU906
1351:Drivers/STM32F7xx_HAL_Driver/Src/stm32f7xx_hal_rtc_ex.c **** 
1352:Drivers/STM32F7xx_HAL_Driver/Src/stm32f7xx_hal_rtc_ex.c ****       hrtc->State = HAL_RTC_STATE_TIMEOUT;
 2599              		.loc 1 1352 7 view .LVU907
 2600              		.loc 1 1352 19 is_stmt 0 view .LVU908
 2601 0054 0320     		movs	r0, #3
 2602 0056 6077     		strb	r0, [r4, #29]
1353:Drivers/STM32F7xx_HAL_Driver/Src/stm32f7xx_hal_rtc_ex.c **** 
1354:Drivers/STM32F7xx_HAL_Driver/Src/stm32f7xx_hal_rtc_ex.c ****       /* Process Unlocked */
1355:Drivers/STM32F7xx_HAL_Driver/Src/stm32f7xx_hal_rtc_ex.c ****       __HAL_UNLOCK(hrtc);
 2603              		.loc 1 1355 7 is_stmt 1 view .LVU909
 2604              		.loc 1 1355 7 view .LVU910
 2605 0058 0023     		movs	r3, #0
 2606 005a 2377     		strb	r3, [r4, #28]
 2607              		.loc 1 1355 7 view .LVU911
1356:Drivers/STM32F7xx_HAL_Driver/Src/stm32f7xx_hal_rtc_ex.c **** 
1357:Drivers/STM32F7xx_HAL_Driver/Src/stm32f7xx_hal_rtc_ex.c ****       return HAL_TIMEOUT;
 2608              		.loc 1 1357 7 view .LVU912
 2609              		.loc 1 1357 14 is_stmt 0 view .LVU913
 2610 005c 05E0     		b	.L176
ARM GAS  /tmp/ccxe0t7k.s 			page 73


 2611              	.L181:
1358:Drivers/STM32F7xx_HAL_Driver/Src/stm32f7xx_hal_rtc_ex.c ****     }
1359:Drivers/STM32F7xx_HAL_Driver/Src/stm32f7xx_hal_rtc_ex.c ****   }
1360:Drivers/STM32F7xx_HAL_Driver/Src/stm32f7xx_hal_rtc_ex.c **** 
1361:Drivers/STM32F7xx_HAL_Driver/Src/stm32f7xx_hal_rtc_ex.c ****   /* Enable the write protection for RTC registers */
1362:Drivers/STM32F7xx_HAL_Driver/Src/stm32f7xx_hal_rtc_ex.c ****   __HAL_RTC_WRITEPROTECTION_ENABLE(hrtc);
 2612              		.loc 1 1362 3 is_stmt 1 view .LVU914
 2613              		.loc 1 1362 3 view .LVU915
 2614 005e FF22     		movs	r2, #255
 2615 0060 5A62     		str	r2, [r3, #36]
 2616              		.loc 1 1362 3 view .LVU916
1363:Drivers/STM32F7xx_HAL_Driver/Src/stm32f7xx_hal_rtc_ex.c **** 
1364:Drivers/STM32F7xx_HAL_Driver/Src/stm32f7xx_hal_rtc_ex.c ****   hrtc->State = HAL_RTC_STATE_READY;
 2617              		.loc 1 1364 3 view .LVU917
 2618              		.loc 1 1364 15 is_stmt 0 view .LVU918
 2619 0062 0123     		movs	r3, #1
 2620 0064 6377     		strb	r3, [r4, #29]
1365:Drivers/STM32F7xx_HAL_Driver/Src/stm32f7xx_hal_rtc_ex.c **** 
1366:Drivers/STM32F7xx_HAL_Driver/Src/stm32f7xx_hal_rtc_ex.c ****   /* Process Unlocked */
1367:Drivers/STM32F7xx_HAL_Driver/Src/stm32f7xx_hal_rtc_ex.c ****   __HAL_UNLOCK(hrtc);
 2621              		.loc 1 1367 3 is_stmt 1 view .LVU919
 2622              		.loc 1 1367 3 view .LVU920
 2623 0066 0020     		movs	r0, #0
 2624 0068 2077     		strb	r0, [r4, #28]
 2625              		.loc 1 1367 3 view .LVU921
1368:Drivers/STM32F7xx_HAL_Driver/Src/stm32f7xx_hal_rtc_ex.c **** 
1369:Drivers/STM32F7xx_HAL_Driver/Src/stm32f7xx_hal_rtc_ex.c ****   return HAL_OK;
 2626              		.loc 1 1369 3 view .LVU922
 2627              	.LVL174:
 2628              	.L176:
1370:Drivers/STM32F7xx_HAL_Driver/Src/stm32f7xx_hal_rtc_ex.c **** }
 2629              		.loc 1 1370 1 is_stmt 0 view .LVU923
 2630 006a 38BD     		pop	{r3, r4, r5, pc}
 2631              	.LVL175:
 2632              	.L179:
1328:Drivers/STM32F7xx_HAL_Driver/Src/stm32f7xx_hal_rtc_ex.c **** 
 2633              		.loc 1 1328 3 view .LVU924
 2634 006c 0220     		movs	r0, #2
 2635              	.LVL176:
1328:Drivers/STM32F7xx_HAL_Driver/Src/stm32f7xx_hal_rtc_ex.c **** 
 2636              		.loc 1 1328 3 view .LVU925
 2637 006e FCE7     		b	.L176
 2638              		.cfi_endproc
 2639              	.LFE161:
 2641              		.section	.text.HAL_RTCEx_GetWakeUpTimer,"ax",%progbits
 2642              		.align	1
 2643              		.global	HAL_RTCEx_GetWakeUpTimer
 2644              		.syntax unified
 2645              		.thumb
 2646              		.thumb_func
 2648              	HAL_RTCEx_GetWakeUpTimer:
 2649              	.LVL177:
 2650              	.LFB162:
1371:Drivers/STM32F7xx_HAL_Driver/Src/stm32f7xx_hal_rtc_ex.c **** 
1372:Drivers/STM32F7xx_HAL_Driver/Src/stm32f7xx_hal_rtc_ex.c **** /**
1373:Drivers/STM32F7xx_HAL_Driver/Src/stm32f7xx_hal_rtc_ex.c ****   * @brief  Gets wakeup timer counter.
1374:Drivers/STM32F7xx_HAL_Driver/Src/stm32f7xx_hal_rtc_ex.c ****   * @param  hrtc pointer to a RTC_HandleTypeDef structure that contains
ARM GAS  /tmp/ccxe0t7k.s 			page 74


1375:Drivers/STM32F7xx_HAL_Driver/Src/stm32f7xx_hal_rtc_ex.c ****   *                the configuration information for RTC.
1376:Drivers/STM32F7xx_HAL_Driver/Src/stm32f7xx_hal_rtc_ex.c ****   * @retval Counter value
1377:Drivers/STM32F7xx_HAL_Driver/Src/stm32f7xx_hal_rtc_ex.c ****   */
1378:Drivers/STM32F7xx_HAL_Driver/Src/stm32f7xx_hal_rtc_ex.c **** uint32_t HAL_RTCEx_GetWakeUpTimer(RTC_HandleTypeDef *hrtc)
1379:Drivers/STM32F7xx_HAL_Driver/Src/stm32f7xx_hal_rtc_ex.c **** {
 2651              		.loc 1 1379 1 is_stmt 1 view -0
 2652              		.cfi_startproc
 2653              		@ args = 0, pretend = 0, frame = 0
 2654              		@ frame_needed = 0, uses_anonymous_args = 0
 2655              		@ link register save eliminated.
1380:Drivers/STM32F7xx_HAL_Driver/Src/stm32f7xx_hal_rtc_ex.c ****   /* Get the counter value */
1381:Drivers/STM32F7xx_HAL_Driver/Src/stm32f7xx_hal_rtc_ex.c ****   return ((uint32_t)(hrtc->Instance->WUTR & RTC_WUTR_WUT));
 2656              		.loc 1 1381 3 view .LVU927
 2657              		.loc 1 1381 26 is_stmt 0 view .LVU928
 2658 0000 0368     		ldr	r3, [r0]
 2659              		.loc 1 1381 36 view .LVU929
 2660 0002 5869     		ldr	r0, [r3, #20]
 2661              	.LVL178:
1382:Drivers/STM32F7xx_HAL_Driver/Src/stm32f7xx_hal_rtc_ex.c **** }
 2662              		.loc 1 1382 1 view .LVU930
 2663 0004 80B2     		uxth	r0, r0
 2664 0006 7047     		bx	lr
 2665              		.cfi_endproc
 2666              	.LFE162:
 2668              		.section	.text.HAL_RTCEx_WakeUpTimerEventCallback,"ax",%progbits
 2669              		.align	1
 2670              		.weak	HAL_RTCEx_WakeUpTimerEventCallback
 2671              		.syntax unified
 2672              		.thumb
 2673              		.thumb_func
 2675              	HAL_RTCEx_WakeUpTimerEventCallback:
 2676              	.LVL179:
 2677              	.LFB164:
1383:Drivers/STM32F7xx_HAL_Driver/Src/stm32f7xx_hal_rtc_ex.c **** 
1384:Drivers/STM32F7xx_HAL_Driver/Src/stm32f7xx_hal_rtc_ex.c **** /**
1385:Drivers/STM32F7xx_HAL_Driver/Src/stm32f7xx_hal_rtc_ex.c ****   * @brief  Handles Wakeup Timer interrupt request.
1386:Drivers/STM32F7xx_HAL_Driver/Src/stm32f7xx_hal_rtc_ex.c ****   * @note   Unlike alarm interrupt line (shared by Alarms A and B) or tamper
1387:Drivers/STM32F7xx_HAL_Driver/Src/stm32f7xx_hal_rtc_ex.c ****   *         interrupt line (shared by timestamp and tampers) wakeup timer
1388:Drivers/STM32F7xx_HAL_Driver/Src/stm32f7xx_hal_rtc_ex.c ****   *         interrupt line is exclusive to the wakeup timer.
1389:Drivers/STM32F7xx_HAL_Driver/Src/stm32f7xx_hal_rtc_ex.c ****   *         There is no need in this case to check on the interrupt enable
1390:Drivers/STM32F7xx_HAL_Driver/Src/stm32f7xx_hal_rtc_ex.c ****   *         status via __HAL_RTC_WAKEUPTIMER_GET_IT_SOURCE().
1391:Drivers/STM32F7xx_HAL_Driver/Src/stm32f7xx_hal_rtc_ex.c ****   * @param  hrtc pointer to a RTC_HandleTypeDef structure that contains
1392:Drivers/STM32F7xx_HAL_Driver/Src/stm32f7xx_hal_rtc_ex.c ****   *                the configuration information for RTC.
1393:Drivers/STM32F7xx_HAL_Driver/Src/stm32f7xx_hal_rtc_ex.c ****   * @retval None
1394:Drivers/STM32F7xx_HAL_Driver/Src/stm32f7xx_hal_rtc_ex.c ****   */
1395:Drivers/STM32F7xx_HAL_Driver/Src/stm32f7xx_hal_rtc_ex.c **** void HAL_RTCEx_WakeUpTimerIRQHandler(RTC_HandleTypeDef *hrtc)
1396:Drivers/STM32F7xx_HAL_Driver/Src/stm32f7xx_hal_rtc_ex.c **** {
1397:Drivers/STM32F7xx_HAL_Driver/Src/stm32f7xx_hal_rtc_ex.c ****   /* Clear the EXTI's line Flag for RTC WakeUpTimer */
1398:Drivers/STM32F7xx_HAL_Driver/Src/stm32f7xx_hal_rtc_ex.c ****   __HAL_RTC_WAKEUPTIMER_EXTI_CLEAR_FLAG();
1399:Drivers/STM32F7xx_HAL_Driver/Src/stm32f7xx_hal_rtc_ex.c **** 
1400:Drivers/STM32F7xx_HAL_Driver/Src/stm32f7xx_hal_rtc_ex.c ****   /* Get the pending status of the Wakeup timer Interrupt */
1401:Drivers/STM32F7xx_HAL_Driver/Src/stm32f7xx_hal_rtc_ex.c ****   if (__HAL_RTC_WAKEUPTIMER_GET_FLAG(hrtc, RTC_FLAG_WUTF) != 0U)
1402:Drivers/STM32F7xx_HAL_Driver/Src/stm32f7xx_hal_rtc_ex.c ****   {
1403:Drivers/STM32F7xx_HAL_Driver/Src/stm32f7xx_hal_rtc_ex.c ****     /* Clear the Wakeup timer interrupt pending bit */
1404:Drivers/STM32F7xx_HAL_Driver/Src/stm32f7xx_hal_rtc_ex.c ****     __HAL_RTC_WAKEUPTIMER_CLEAR_FLAG(hrtc, RTC_FLAG_WUTF);
1405:Drivers/STM32F7xx_HAL_Driver/Src/stm32f7xx_hal_rtc_ex.c **** 
1406:Drivers/STM32F7xx_HAL_Driver/Src/stm32f7xx_hal_rtc_ex.c ****     /* Wakeup timer callback */
ARM GAS  /tmp/ccxe0t7k.s 			page 75


1407:Drivers/STM32F7xx_HAL_Driver/Src/stm32f7xx_hal_rtc_ex.c **** #if (USE_HAL_RTC_REGISTER_CALLBACKS == 1)
1408:Drivers/STM32F7xx_HAL_Driver/Src/stm32f7xx_hal_rtc_ex.c ****     hrtc->WakeUpTimerEventCallback(hrtc);
1409:Drivers/STM32F7xx_HAL_Driver/Src/stm32f7xx_hal_rtc_ex.c **** #else
1410:Drivers/STM32F7xx_HAL_Driver/Src/stm32f7xx_hal_rtc_ex.c ****     HAL_RTCEx_WakeUpTimerEventCallback(hrtc);
1411:Drivers/STM32F7xx_HAL_Driver/Src/stm32f7xx_hal_rtc_ex.c **** #endif /* USE_HAL_RTC_REGISTER_CALLBACKS */
1412:Drivers/STM32F7xx_HAL_Driver/Src/stm32f7xx_hal_rtc_ex.c ****   }
1413:Drivers/STM32F7xx_HAL_Driver/Src/stm32f7xx_hal_rtc_ex.c **** 
1414:Drivers/STM32F7xx_HAL_Driver/Src/stm32f7xx_hal_rtc_ex.c ****   /* Change RTC state */
1415:Drivers/STM32F7xx_HAL_Driver/Src/stm32f7xx_hal_rtc_ex.c ****   hrtc->State = HAL_RTC_STATE_READY;
1416:Drivers/STM32F7xx_HAL_Driver/Src/stm32f7xx_hal_rtc_ex.c **** }
1417:Drivers/STM32F7xx_HAL_Driver/Src/stm32f7xx_hal_rtc_ex.c **** 
1418:Drivers/STM32F7xx_HAL_Driver/Src/stm32f7xx_hal_rtc_ex.c **** /**
1419:Drivers/STM32F7xx_HAL_Driver/Src/stm32f7xx_hal_rtc_ex.c ****   * @brief  Wakeup Timer callback.
1420:Drivers/STM32F7xx_HAL_Driver/Src/stm32f7xx_hal_rtc_ex.c ****   * @param  hrtc pointer to a RTC_HandleTypeDef structure that contains
1421:Drivers/STM32F7xx_HAL_Driver/Src/stm32f7xx_hal_rtc_ex.c ****   *                the configuration information for RTC.
1422:Drivers/STM32F7xx_HAL_Driver/Src/stm32f7xx_hal_rtc_ex.c ****   * @retval None
1423:Drivers/STM32F7xx_HAL_Driver/Src/stm32f7xx_hal_rtc_ex.c ****   */
1424:Drivers/STM32F7xx_HAL_Driver/Src/stm32f7xx_hal_rtc_ex.c **** __weak void HAL_RTCEx_WakeUpTimerEventCallback(RTC_HandleTypeDef *hrtc)
1425:Drivers/STM32F7xx_HAL_Driver/Src/stm32f7xx_hal_rtc_ex.c **** {
 2678              		.loc 1 1425 1 is_stmt 1 view -0
 2679              		.cfi_startproc
 2680              		@ args = 0, pretend = 0, frame = 0
 2681              		@ frame_needed = 0, uses_anonymous_args = 0
 2682              		@ link register save eliminated.
1426:Drivers/STM32F7xx_HAL_Driver/Src/stm32f7xx_hal_rtc_ex.c ****   /* Prevent unused argument(s) compilation warning */
1427:Drivers/STM32F7xx_HAL_Driver/Src/stm32f7xx_hal_rtc_ex.c ****   UNUSED(hrtc);
 2683              		.loc 1 1427 3 view .LVU932
1428:Drivers/STM32F7xx_HAL_Driver/Src/stm32f7xx_hal_rtc_ex.c **** 
1429:Drivers/STM32F7xx_HAL_Driver/Src/stm32f7xx_hal_rtc_ex.c ****   /* NOTE: This function should not be modified, when the callback is needed,
1430:Drivers/STM32F7xx_HAL_Driver/Src/stm32f7xx_hal_rtc_ex.c ****            the HAL_RTCEx_WakeUpTimerEventCallback could be implemented in the user file
1431:Drivers/STM32F7xx_HAL_Driver/Src/stm32f7xx_hal_rtc_ex.c ****    */
1432:Drivers/STM32F7xx_HAL_Driver/Src/stm32f7xx_hal_rtc_ex.c **** }
 2684              		.loc 1 1432 1 is_stmt 0 view .LVU933
 2685 0000 7047     		bx	lr
 2686              		.cfi_endproc
 2687              	.LFE164:
 2689              		.section	.text.HAL_RTCEx_WakeUpTimerIRQHandler,"ax",%progbits
 2690              		.align	1
 2691              		.global	HAL_RTCEx_WakeUpTimerIRQHandler
 2692              		.syntax unified
 2693              		.thumb
 2694              		.thumb_func
 2696              	HAL_RTCEx_WakeUpTimerIRQHandler:
 2697              	.LVL180:
 2698              	.LFB163:
1396:Drivers/STM32F7xx_HAL_Driver/Src/stm32f7xx_hal_rtc_ex.c ****   /* Clear the EXTI's line Flag for RTC WakeUpTimer */
 2699              		.loc 1 1396 1 is_stmt 1 view -0
 2700              		.cfi_startproc
 2701              		@ args = 0, pretend = 0, frame = 0
 2702              		@ frame_needed = 0, uses_anonymous_args = 0
1396:Drivers/STM32F7xx_HAL_Driver/Src/stm32f7xx_hal_rtc_ex.c ****   /* Clear the EXTI's line Flag for RTC WakeUpTimer */
 2703              		.loc 1 1396 1 is_stmt 0 view .LVU935
 2704 0000 10B5     		push	{r4, lr}
 2705              	.LCFI29:
 2706              		.cfi_def_cfa_offset 8
 2707              		.cfi_offset 4, -8
 2708              		.cfi_offset 14, -4
ARM GAS  /tmp/ccxe0t7k.s 			page 76


 2709 0002 0446     		mov	r4, r0
1398:Drivers/STM32F7xx_HAL_Driver/Src/stm32f7xx_hal_rtc_ex.c **** 
 2710              		.loc 1 1398 3 is_stmt 1 view .LVU936
 2711 0004 094B     		ldr	r3, .L188
 2712 0006 4FF48002 		mov	r2, #4194304
 2713 000a 5A61     		str	r2, [r3, #20]
1401:Drivers/STM32F7xx_HAL_Driver/Src/stm32f7xx_hal_rtc_ex.c ****   {
 2714              		.loc 1 1401 3 view .LVU937
1401:Drivers/STM32F7xx_HAL_Driver/Src/stm32f7xx_hal_rtc_ex.c ****   {
 2715              		.loc 1 1401 7 is_stmt 0 view .LVU938
 2716 000c 0368     		ldr	r3, [r0]
 2717 000e DA68     		ldr	r2, [r3, #12]
1401:Drivers/STM32F7xx_HAL_Driver/Src/stm32f7xx_hal_rtc_ex.c ****   {
 2718              		.loc 1 1401 6 view .LVU939
 2719 0010 12F4806F 		tst	r2, #1024
 2720 0014 02D1     		bne	.L187
 2721              	.LVL181:
 2722              	.L185:
1415:Drivers/STM32F7xx_HAL_Driver/Src/stm32f7xx_hal_rtc_ex.c **** }
 2723              		.loc 1 1415 3 is_stmt 1 view .LVU940
1415:Drivers/STM32F7xx_HAL_Driver/Src/stm32f7xx_hal_rtc_ex.c **** }
 2724              		.loc 1 1415 15 is_stmt 0 view .LVU941
 2725 0016 0123     		movs	r3, #1
 2726 0018 6377     		strb	r3, [r4, #29]
1416:Drivers/STM32F7xx_HAL_Driver/Src/stm32f7xx_hal_rtc_ex.c **** 
 2727              		.loc 1 1416 1 view .LVU942
 2728 001a 10BD     		pop	{r4, pc}
 2729              	.LVL182:
 2730              	.L187:
1404:Drivers/STM32F7xx_HAL_Driver/Src/stm32f7xx_hal_rtc_ex.c **** 
 2731              		.loc 1 1404 5 is_stmt 1 view .LVU943
 2732 001c DA68     		ldr	r2, [r3, #12]
 2733 001e D2B2     		uxtb	r2, r2
 2734 0020 62F49062 		orn	r2, r2, #1152
 2735 0024 DA60     		str	r2, [r3, #12]
1410:Drivers/STM32F7xx_HAL_Driver/Src/stm32f7xx_hal_rtc_ex.c **** #endif /* USE_HAL_RTC_REGISTER_CALLBACKS */
 2736              		.loc 1 1410 5 view .LVU944
 2737 0026 FFF7FEFF 		bl	HAL_RTCEx_WakeUpTimerEventCallback
 2738              	.LVL183:
1410:Drivers/STM32F7xx_HAL_Driver/Src/stm32f7xx_hal_rtc_ex.c **** #endif /* USE_HAL_RTC_REGISTER_CALLBACKS */
 2739              		.loc 1 1410 5 is_stmt 0 view .LVU945
 2740 002a F4E7     		b	.L185
 2741              	.L189:
 2742              		.align	2
 2743              	.L188:
 2744 002c 003C0140 		.word	1073822720
 2745              		.cfi_endproc
 2746              	.LFE163:
 2748              		.section	.text.HAL_RTCEx_PollForWakeUpTimerEvent,"ax",%progbits
 2749              		.align	1
 2750              		.global	HAL_RTCEx_PollForWakeUpTimerEvent
 2751              		.syntax unified
 2752              		.thumb
 2753              		.thumb_func
 2755              	HAL_RTCEx_PollForWakeUpTimerEvent:
 2756              	.LVL184:
 2757              	.LFB165:
ARM GAS  /tmp/ccxe0t7k.s 			page 77


1433:Drivers/STM32F7xx_HAL_Driver/Src/stm32f7xx_hal_rtc_ex.c **** 
1434:Drivers/STM32F7xx_HAL_Driver/Src/stm32f7xx_hal_rtc_ex.c **** /**
1435:Drivers/STM32F7xx_HAL_Driver/Src/stm32f7xx_hal_rtc_ex.c ****   * @brief  Handles Wakeup Timer Polling.
1436:Drivers/STM32F7xx_HAL_Driver/Src/stm32f7xx_hal_rtc_ex.c ****   * @param  hrtc pointer to a RTC_HandleTypeDef structure that contains
1437:Drivers/STM32F7xx_HAL_Driver/Src/stm32f7xx_hal_rtc_ex.c ****   *                the configuration information for RTC.
1438:Drivers/STM32F7xx_HAL_Driver/Src/stm32f7xx_hal_rtc_ex.c ****   * @param  Timeout Timeout duration
1439:Drivers/STM32F7xx_HAL_Driver/Src/stm32f7xx_hal_rtc_ex.c ****   * @retval HAL status
1440:Drivers/STM32F7xx_HAL_Driver/Src/stm32f7xx_hal_rtc_ex.c ****   */
1441:Drivers/STM32F7xx_HAL_Driver/Src/stm32f7xx_hal_rtc_ex.c **** HAL_StatusTypeDef HAL_RTCEx_PollForWakeUpTimerEvent(RTC_HandleTypeDef *hrtc, uint32_t Timeout)
1442:Drivers/STM32F7xx_HAL_Driver/Src/stm32f7xx_hal_rtc_ex.c **** {
 2758              		.loc 1 1442 1 is_stmt 1 view -0
 2759              		.cfi_startproc
 2760              		@ args = 0, pretend = 0, frame = 0
 2761              		@ frame_needed = 0, uses_anonymous_args = 0
 2762              		.loc 1 1442 1 is_stmt 0 view .LVU947
 2763 0000 70B5     		push	{r4, r5, r6, lr}
 2764              	.LCFI30:
 2765              		.cfi_def_cfa_offset 16
 2766              		.cfi_offset 4, -16
 2767              		.cfi_offset 5, -12
 2768              		.cfi_offset 6, -8
 2769              		.cfi_offset 14, -4
 2770 0002 0446     		mov	r4, r0
 2771 0004 0D46     		mov	r5, r1
1443:Drivers/STM32F7xx_HAL_Driver/Src/stm32f7xx_hal_rtc_ex.c ****   uint32_t tickstart = 0U;
 2772              		.loc 1 1443 3 is_stmt 1 view .LVU948
 2773              	.LVL185:
1444:Drivers/STM32F7xx_HAL_Driver/Src/stm32f7xx_hal_rtc_ex.c **** 
1445:Drivers/STM32F7xx_HAL_Driver/Src/stm32f7xx_hal_rtc_ex.c ****   /* Get tick */
1446:Drivers/STM32F7xx_HAL_Driver/Src/stm32f7xx_hal_rtc_ex.c ****   tickstart = HAL_GetTick();
 2774              		.loc 1 1446 3 view .LVU949
 2775              		.loc 1 1446 15 is_stmt 0 view .LVU950
 2776 0006 FFF7FEFF 		bl	HAL_GetTick
 2777              	.LVL186:
 2778              		.loc 1 1446 15 view .LVU951
 2779 000a 0646     		mov	r6, r0
 2780              	.LVL187:
1447:Drivers/STM32F7xx_HAL_Driver/Src/stm32f7xx_hal_rtc_ex.c **** 
1448:Drivers/STM32F7xx_HAL_Driver/Src/stm32f7xx_hal_rtc_ex.c ****   while (__HAL_RTC_WAKEUPTIMER_GET_FLAG(hrtc, RTC_FLAG_WUTF) == 0U)
 2781              		.loc 1 1448 3 is_stmt 1 view .LVU952
 2782              	.L192:
 2783              		.loc 1 1448 62 view .LVU953
 2784              		.loc 1 1448 10 is_stmt 0 view .LVU954
 2785 000c 2368     		ldr	r3, [r4]
 2786 000e DA68     		ldr	r2, [r3, #12]
 2787              		.loc 1 1448 62 view .LVU955
 2788 0010 12F4806F 		tst	r2, #1024
 2789 0014 0BD1     		bne	.L197
1449:Drivers/STM32F7xx_HAL_Driver/Src/stm32f7xx_hal_rtc_ex.c ****   {
1450:Drivers/STM32F7xx_HAL_Driver/Src/stm32f7xx_hal_rtc_ex.c ****     if (Timeout != HAL_MAX_DELAY)
 2790              		.loc 1 1450 5 is_stmt 1 view .LVU956
 2791              		.loc 1 1450 8 is_stmt 0 view .LVU957
 2792 0016 B5F1FF3F 		cmp	r5, #-1
 2793 001a F7D0     		beq	.L192
1451:Drivers/STM32F7xx_HAL_Driver/Src/stm32f7xx_hal_rtc_ex.c ****     {
1452:Drivers/STM32F7xx_HAL_Driver/Src/stm32f7xx_hal_rtc_ex.c ****       if ((Timeout == 0U) || ((HAL_GetTick() - tickstart) > Timeout))
 2794              		.loc 1 1452 7 is_stmt 1 view .LVU958
ARM GAS  /tmp/ccxe0t7k.s 			page 78


 2795              		.loc 1 1452 10 is_stmt 0 view .LVU959
 2796 001c 25B1     		cbz	r5, .L193
 2797              		.loc 1 1452 32 discriminator 1 view .LVU960
 2798 001e FFF7FEFF 		bl	HAL_GetTick
 2799              	.LVL188:
 2800              		.loc 1 1452 46 discriminator 1 view .LVU961
 2801 0022 801B     		subs	r0, r0, r6
 2802              		.loc 1 1452 27 discriminator 1 view .LVU962
 2803 0024 A842     		cmp	r0, r5
 2804 0026 F1D9     		bls	.L192
 2805              	.L193:
1453:Drivers/STM32F7xx_HAL_Driver/Src/stm32f7xx_hal_rtc_ex.c ****       {
1454:Drivers/STM32F7xx_HAL_Driver/Src/stm32f7xx_hal_rtc_ex.c ****         hrtc->State = HAL_RTC_STATE_TIMEOUT;
 2806              		.loc 1 1454 9 is_stmt 1 view .LVU963
 2807              		.loc 1 1454 21 is_stmt 0 view .LVU964
 2808 0028 0320     		movs	r0, #3
 2809 002a 6077     		strb	r0, [r4, #29]
1455:Drivers/STM32F7xx_HAL_Driver/Src/stm32f7xx_hal_rtc_ex.c ****         return HAL_TIMEOUT;
 2810              		.loc 1 1455 9 is_stmt 1 view .LVU965
 2811              		.loc 1 1455 16 is_stmt 0 view .LVU966
 2812 002c 07E0     		b	.L194
 2813              	.L197:
1456:Drivers/STM32F7xx_HAL_Driver/Src/stm32f7xx_hal_rtc_ex.c ****       }
1457:Drivers/STM32F7xx_HAL_Driver/Src/stm32f7xx_hal_rtc_ex.c ****     }
1458:Drivers/STM32F7xx_HAL_Driver/Src/stm32f7xx_hal_rtc_ex.c ****   }
1459:Drivers/STM32F7xx_HAL_Driver/Src/stm32f7xx_hal_rtc_ex.c **** 
1460:Drivers/STM32F7xx_HAL_Driver/Src/stm32f7xx_hal_rtc_ex.c ****   /* Clear the Wakeup timer Flag */
1461:Drivers/STM32F7xx_HAL_Driver/Src/stm32f7xx_hal_rtc_ex.c ****   __HAL_RTC_WAKEUPTIMER_CLEAR_FLAG(hrtc, RTC_FLAG_WUTF);
 2814              		.loc 1 1461 3 is_stmt 1 view .LVU967
 2815 002e DA68     		ldr	r2, [r3, #12]
 2816 0030 D2B2     		uxtb	r2, r2
 2817 0032 62F49062 		orn	r2, r2, #1152
 2818 0036 DA60     		str	r2, [r3, #12]
1462:Drivers/STM32F7xx_HAL_Driver/Src/stm32f7xx_hal_rtc_ex.c **** 
1463:Drivers/STM32F7xx_HAL_Driver/Src/stm32f7xx_hal_rtc_ex.c ****   /* Change RTC state */
1464:Drivers/STM32F7xx_HAL_Driver/Src/stm32f7xx_hal_rtc_ex.c ****   hrtc->State = HAL_RTC_STATE_READY;
 2819              		.loc 1 1464 3 view .LVU968
 2820              		.loc 1 1464 15 is_stmt 0 view .LVU969
 2821 0038 0123     		movs	r3, #1
 2822 003a 6377     		strb	r3, [r4, #29]
1465:Drivers/STM32F7xx_HAL_Driver/Src/stm32f7xx_hal_rtc_ex.c **** 
1466:Drivers/STM32F7xx_HAL_Driver/Src/stm32f7xx_hal_rtc_ex.c ****   return HAL_OK;
 2823              		.loc 1 1466 3 is_stmt 1 view .LVU970
 2824              		.loc 1 1466 10 is_stmt 0 view .LVU971
 2825 003c 0020     		movs	r0, #0
 2826              	.L194:
1467:Drivers/STM32F7xx_HAL_Driver/Src/stm32f7xx_hal_rtc_ex.c **** }
 2827              		.loc 1 1467 1 view .LVU972
 2828 003e 70BD     		pop	{r4, r5, r6, pc}
 2829              		.loc 1 1467 1 view .LVU973
 2830              		.cfi_endproc
 2831              	.LFE165:
 2833              		.section	.text.HAL_RTCEx_BKUPWrite,"ax",%progbits
 2834              		.align	1
 2835              		.global	HAL_RTCEx_BKUPWrite
 2836              		.syntax unified
 2837              		.thumb
ARM GAS  /tmp/ccxe0t7k.s 			page 79


 2838              		.thumb_func
 2840              	HAL_RTCEx_BKUPWrite:
 2841              	.LVL189:
 2842              	.LFB166:
1468:Drivers/STM32F7xx_HAL_Driver/Src/stm32f7xx_hal_rtc_ex.c **** 
1469:Drivers/STM32F7xx_HAL_Driver/Src/stm32f7xx_hal_rtc_ex.c **** /**
1470:Drivers/STM32F7xx_HAL_Driver/Src/stm32f7xx_hal_rtc_ex.c ****   * @}
1471:Drivers/STM32F7xx_HAL_Driver/Src/stm32f7xx_hal_rtc_ex.c ****   */
1472:Drivers/STM32F7xx_HAL_Driver/Src/stm32f7xx_hal_rtc_ex.c **** 
1473:Drivers/STM32F7xx_HAL_Driver/Src/stm32f7xx_hal_rtc_ex.c **** /** @defgroup RTCEx_Exported_Functions_Group3 Extended Peripheral Control functions
1474:Drivers/STM32F7xx_HAL_Driver/Src/stm32f7xx_hal_rtc_ex.c ****   * @brief    Extended Peripheral Control functions
1475:Drivers/STM32F7xx_HAL_Driver/Src/stm32f7xx_hal_rtc_ex.c ****   *
1476:Drivers/STM32F7xx_HAL_Driver/Src/stm32f7xx_hal_rtc_ex.c **** @verbatim
1477:Drivers/STM32F7xx_HAL_Driver/Src/stm32f7xx_hal_rtc_ex.c ****  ===============================================================================
1478:Drivers/STM32F7xx_HAL_Driver/Src/stm32f7xx_hal_rtc_ex.c ****               ##### Extended Peripheral Control functions #####
1479:Drivers/STM32F7xx_HAL_Driver/Src/stm32f7xx_hal_rtc_ex.c ****  ===============================================================================
1480:Drivers/STM32F7xx_HAL_Driver/Src/stm32f7xx_hal_rtc_ex.c ****     [..]
1481:Drivers/STM32F7xx_HAL_Driver/Src/stm32f7xx_hal_rtc_ex.c ****     This subsection provides functions allowing to
1482:Drivers/STM32F7xx_HAL_Driver/Src/stm32f7xx_hal_rtc_ex.c ****       (+) Write a data in a specified RTC Backup data register
1483:Drivers/STM32F7xx_HAL_Driver/Src/stm32f7xx_hal_rtc_ex.c ****       (+) Read a data in a specified RTC Backup data register
1484:Drivers/STM32F7xx_HAL_Driver/Src/stm32f7xx_hal_rtc_ex.c ****       (+) Set the Smooth calibration parameters.
1485:Drivers/STM32F7xx_HAL_Driver/Src/stm32f7xx_hal_rtc_ex.c ****       (+) Configure the Synchronization Shift Control Settings.
1486:Drivers/STM32F7xx_HAL_Driver/Src/stm32f7xx_hal_rtc_ex.c ****       (+) Configure the Calibration Pinout (RTC_CALIB) Selection (1Hz or 512Hz).
1487:Drivers/STM32F7xx_HAL_Driver/Src/stm32f7xx_hal_rtc_ex.c ****       (+) Deactivate the Calibration Pinout (RTC_CALIB) Selection (1Hz or 512Hz).
1488:Drivers/STM32F7xx_HAL_Driver/Src/stm32f7xx_hal_rtc_ex.c ****       (+) Enable the RTC reference clock detection.
1489:Drivers/STM32F7xx_HAL_Driver/Src/stm32f7xx_hal_rtc_ex.c ****       (+) Disable the RTC reference clock detection.
1490:Drivers/STM32F7xx_HAL_Driver/Src/stm32f7xx_hal_rtc_ex.c ****       (+) Enable the Bypass Shadow feature.
1491:Drivers/STM32F7xx_HAL_Driver/Src/stm32f7xx_hal_rtc_ex.c ****       (+) Disable the Bypass Shadow feature.
1492:Drivers/STM32F7xx_HAL_Driver/Src/stm32f7xx_hal_rtc_ex.c **** 
1493:Drivers/STM32F7xx_HAL_Driver/Src/stm32f7xx_hal_rtc_ex.c **** @endverbatim
1494:Drivers/STM32F7xx_HAL_Driver/Src/stm32f7xx_hal_rtc_ex.c ****   * @{
1495:Drivers/STM32F7xx_HAL_Driver/Src/stm32f7xx_hal_rtc_ex.c ****   */
1496:Drivers/STM32F7xx_HAL_Driver/Src/stm32f7xx_hal_rtc_ex.c **** 
1497:Drivers/STM32F7xx_HAL_Driver/Src/stm32f7xx_hal_rtc_ex.c **** /**
1498:Drivers/STM32F7xx_HAL_Driver/Src/stm32f7xx_hal_rtc_ex.c ****   * @brief  Writes a data in a specified RTC Backup data register.
1499:Drivers/STM32F7xx_HAL_Driver/Src/stm32f7xx_hal_rtc_ex.c ****   * @param  hrtc pointer to a RTC_HandleTypeDef structure that contains
1500:Drivers/STM32F7xx_HAL_Driver/Src/stm32f7xx_hal_rtc_ex.c ****   *                the configuration information for RTC.
1501:Drivers/STM32F7xx_HAL_Driver/Src/stm32f7xx_hal_rtc_ex.c ****   * @param  BackupRegister RTC Backup data Register number.
1502:Drivers/STM32F7xx_HAL_Driver/Src/stm32f7xx_hal_rtc_ex.c ****   *          This parameter can be: RTC_BKP_DRx (where x can be from 0 to 31)
1503:Drivers/STM32F7xx_HAL_Driver/Src/stm32f7xx_hal_rtc_ex.c ****   *                                 to specify the register.
1504:Drivers/STM32F7xx_HAL_Driver/Src/stm32f7xx_hal_rtc_ex.c ****   * @param  Data Data to be written in the specified RTC Backup data register.
1505:Drivers/STM32F7xx_HAL_Driver/Src/stm32f7xx_hal_rtc_ex.c ****   * @retval None
1506:Drivers/STM32F7xx_HAL_Driver/Src/stm32f7xx_hal_rtc_ex.c ****   */
1507:Drivers/STM32F7xx_HAL_Driver/Src/stm32f7xx_hal_rtc_ex.c **** void HAL_RTCEx_BKUPWrite(RTC_HandleTypeDef *hrtc, uint32_t BackupRegister, uint32_t Data)
1508:Drivers/STM32F7xx_HAL_Driver/Src/stm32f7xx_hal_rtc_ex.c **** {
 2843              		.loc 1 1508 1 is_stmt 1 view -0
 2844              		.cfi_startproc
 2845              		@ args = 0, pretend = 0, frame = 0
 2846              		@ frame_needed = 0, uses_anonymous_args = 0
 2847              		@ link register save eliminated.
1509:Drivers/STM32F7xx_HAL_Driver/Src/stm32f7xx_hal_rtc_ex.c ****   uint32_t tmp = 0U;
 2848              		.loc 1 1509 3 view .LVU975
1510:Drivers/STM32F7xx_HAL_Driver/Src/stm32f7xx_hal_rtc_ex.c **** 
1511:Drivers/STM32F7xx_HAL_Driver/Src/stm32f7xx_hal_rtc_ex.c ****   /* Check the parameters */
1512:Drivers/STM32F7xx_HAL_Driver/Src/stm32f7xx_hal_rtc_ex.c ****   assert_param(IS_RTC_BKP(BackupRegister));
 2849              		.loc 1 1512 3 view .LVU976
1513:Drivers/STM32F7xx_HAL_Driver/Src/stm32f7xx_hal_rtc_ex.c **** 
ARM GAS  /tmp/ccxe0t7k.s 			page 80


1514:Drivers/STM32F7xx_HAL_Driver/Src/stm32f7xx_hal_rtc_ex.c ****   tmp = (uint32_t) & (hrtc->Instance->BKP0R);
 2850              		.loc 1 1514 3 view .LVU977
 2851              		.loc 1 1514 27 is_stmt 0 view .LVU978
 2852 0000 0368     		ldr	r3, [r0]
 2853              		.loc 1 1514 20 view .LVU979
 2854 0002 5033     		adds	r3, r3, #80
 2855              	.LVL190:
1515:Drivers/STM32F7xx_HAL_Driver/Src/stm32f7xx_hal_rtc_ex.c ****   tmp += (BackupRegister * 4U);
 2856              		.loc 1 1515 3 is_stmt 1 view .LVU980
1516:Drivers/STM32F7xx_HAL_Driver/Src/stm32f7xx_hal_rtc_ex.c **** 
1517:Drivers/STM32F7xx_HAL_Driver/Src/stm32f7xx_hal_rtc_ex.c ****   /* Write the specified register */
1518:Drivers/STM32F7xx_HAL_Driver/Src/stm32f7xx_hal_rtc_ex.c ****   *(__IO uint32_t *)tmp = (uint32_t)Data;
 2857              		.loc 1 1518 3 view .LVU981
 2858              		.loc 1 1518 25 is_stmt 0 view .LVU982
 2859 0004 43F82120 		str	r2, [r3, r1, lsl #2]
1519:Drivers/STM32F7xx_HAL_Driver/Src/stm32f7xx_hal_rtc_ex.c **** }
 2860              		.loc 1 1519 1 view .LVU983
 2861 0008 7047     		bx	lr
 2862              		.cfi_endproc
 2863              	.LFE166:
 2865              		.section	.text.HAL_RTCEx_BKUPRead,"ax",%progbits
 2866              		.align	1
 2867              		.global	HAL_RTCEx_BKUPRead
 2868              		.syntax unified
 2869              		.thumb
 2870              		.thumb_func
 2872              	HAL_RTCEx_BKUPRead:
 2873              	.LVL191:
 2874              	.LFB167:
1520:Drivers/STM32F7xx_HAL_Driver/Src/stm32f7xx_hal_rtc_ex.c **** 
1521:Drivers/STM32F7xx_HAL_Driver/Src/stm32f7xx_hal_rtc_ex.c **** /**
1522:Drivers/STM32F7xx_HAL_Driver/Src/stm32f7xx_hal_rtc_ex.c ****   * @brief  Reads data from the specified RTC Backup data Register.
1523:Drivers/STM32F7xx_HAL_Driver/Src/stm32f7xx_hal_rtc_ex.c ****   * @param  hrtc pointer to a RTC_HandleTypeDef structure that contains
1524:Drivers/STM32F7xx_HAL_Driver/Src/stm32f7xx_hal_rtc_ex.c ****   *                the configuration information for RTC.
1525:Drivers/STM32F7xx_HAL_Driver/Src/stm32f7xx_hal_rtc_ex.c ****   * @param  BackupRegister RTC Backup data Register number.
1526:Drivers/STM32F7xx_HAL_Driver/Src/stm32f7xx_hal_rtc_ex.c ****   *          This parameter can be: RTC_BKP_DRx (where x can be from 0 to 31)
1527:Drivers/STM32F7xx_HAL_Driver/Src/stm32f7xx_hal_rtc_ex.c ****   *                                 to specify the register.
1528:Drivers/STM32F7xx_HAL_Driver/Src/stm32f7xx_hal_rtc_ex.c ****   * @retval Read value
1529:Drivers/STM32F7xx_HAL_Driver/Src/stm32f7xx_hal_rtc_ex.c ****   */
1530:Drivers/STM32F7xx_HAL_Driver/Src/stm32f7xx_hal_rtc_ex.c **** uint32_t HAL_RTCEx_BKUPRead(RTC_HandleTypeDef *hrtc, uint32_t BackupRegister)
1531:Drivers/STM32F7xx_HAL_Driver/Src/stm32f7xx_hal_rtc_ex.c **** {
 2875              		.loc 1 1531 1 is_stmt 1 view -0
 2876              		.cfi_startproc
 2877              		@ args = 0, pretend = 0, frame = 0
 2878              		@ frame_needed = 0, uses_anonymous_args = 0
 2879              		@ link register save eliminated.
1532:Drivers/STM32F7xx_HAL_Driver/Src/stm32f7xx_hal_rtc_ex.c ****   uint32_t tmp = 0U;
 2880              		.loc 1 1532 3 view .LVU985
1533:Drivers/STM32F7xx_HAL_Driver/Src/stm32f7xx_hal_rtc_ex.c **** 
1534:Drivers/STM32F7xx_HAL_Driver/Src/stm32f7xx_hal_rtc_ex.c ****   /* Check the parameters */
1535:Drivers/STM32F7xx_HAL_Driver/Src/stm32f7xx_hal_rtc_ex.c ****   assert_param(IS_RTC_BKP(BackupRegister));
 2881              		.loc 1 1535 3 view .LVU986
1536:Drivers/STM32F7xx_HAL_Driver/Src/stm32f7xx_hal_rtc_ex.c **** 
1537:Drivers/STM32F7xx_HAL_Driver/Src/stm32f7xx_hal_rtc_ex.c ****   tmp = (uint32_t) & (hrtc->Instance->BKP0R);
 2882              		.loc 1 1537 3 view .LVU987
 2883              		.loc 1 1537 27 is_stmt 0 view .LVU988
 2884 0000 0368     		ldr	r3, [r0]
ARM GAS  /tmp/ccxe0t7k.s 			page 81


 2885              		.loc 1 1537 20 view .LVU989
 2886 0002 5033     		adds	r3, r3, #80
 2887              	.LVL192:
1538:Drivers/STM32F7xx_HAL_Driver/Src/stm32f7xx_hal_rtc_ex.c ****   tmp += (BackupRegister * 4U);
 2888              		.loc 1 1538 3 is_stmt 1 view .LVU990
1539:Drivers/STM32F7xx_HAL_Driver/Src/stm32f7xx_hal_rtc_ex.c **** 
1540:Drivers/STM32F7xx_HAL_Driver/Src/stm32f7xx_hal_rtc_ex.c ****   /* Read the specified register */
1541:Drivers/STM32F7xx_HAL_Driver/Src/stm32f7xx_hal_rtc_ex.c ****   return (*(__IO uint32_t *)tmp);
 2889              		.loc 1 1541 3 view .LVU991
 2890              		.loc 1 1541 11 is_stmt 0 view .LVU992
 2891 0004 53F82100 		ldr	r0, [r3, r1, lsl #2]
 2892              	.LVL193:
1542:Drivers/STM32F7xx_HAL_Driver/Src/stm32f7xx_hal_rtc_ex.c **** }
 2893              		.loc 1 1542 1 view .LVU993
 2894 0008 7047     		bx	lr
 2895              		.cfi_endproc
 2896              	.LFE167:
 2898              		.section	.text.HAL_RTCEx_SetSmoothCalib,"ax",%progbits
 2899              		.align	1
 2900              		.global	HAL_RTCEx_SetSmoothCalib
 2901              		.syntax unified
 2902              		.thumb
 2903              		.thumb_func
 2905              	HAL_RTCEx_SetSmoothCalib:
 2906              	.LVL194:
 2907              	.LFB168:
1543:Drivers/STM32F7xx_HAL_Driver/Src/stm32f7xx_hal_rtc_ex.c **** 
1544:Drivers/STM32F7xx_HAL_Driver/Src/stm32f7xx_hal_rtc_ex.c **** /**
1545:Drivers/STM32F7xx_HAL_Driver/Src/stm32f7xx_hal_rtc_ex.c ****   * @brief  Sets the Smooth calibration parameters.
1546:Drivers/STM32F7xx_HAL_Driver/Src/stm32f7xx_hal_rtc_ex.c ****   * @param  hrtc pointer to a RTC_HandleTypeDef structure that contains
1547:Drivers/STM32F7xx_HAL_Driver/Src/stm32f7xx_hal_rtc_ex.c ****   *                the configuration information for RTC.
1548:Drivers/STM32F7xx_HAL_Driver/Src/stm32f7xx_hal_rtc_ex.c ****   * @param  SmoothCalibPeriod Select the Smooth Calibration Period.
1549:Drivers/STM32F7xx_HAL_Driver/Src/stm32f7xx_hal_rtc_ex.c ****   *          This parameter can be can be one of the following values:
1550:Drivers/STM32F7xx_HAL_Driver/Src/stm32f7xx_hal_rtc_ex.c ****   *             @arg RTC_SMOOTHCALIB_PERIOD_32SEC: The smooth calibration period is 32s.
1551:Drivers/STM32F7xx_HAL_Driver/Src/stm32f7xx_hal_rtc_ex.c ****   *             @arg RTC_SMOOTHCALIB_PERIOD_16SEC: The smooth calibration period is 16s.
1552:Drivers/STM32F7xx_HAL_Driver/Src/stm32f7xx_hal_rtc_ex.c ****   *             @arg RTC_SMOOTHCALIB_PERIOD_8SEC: The smooth calibration period is 8s.
1553:Drivers/STM32F7xx_HAL_Driver/Src/stm32f7xx_hal_rtc_ex.c ****   * @param  SmoothCalibPlusPulses Select to Set or reset the CALP bit.
1554:Drivers/STM32F7xx_HAL_Driver/Src/stm32f7xx_hal_rtc_ex.c ****   *          This parameter can be one of the following values:
1555:Drivers/STM32F7xx_HAL_Driver/Src/stm32f7xx_hal_rtc_ex.c ****   *             @arg RTC_SMOOTHCALIB_PLUSPULSES_SET: Add one RTCCLK pulse every 2*11 pulses.
1556:Drivers/STM32F7xx_HAL_Driver/Src/stm32f7xx_hal_rtc_ex.c ****   *             @arg RTC_SMOOTHCALIB_PLUSPULSES_RESET: No RTCCLK pulses are added.
1557:Drivers/STM32F7xx_HAL_Driver/Src/stm32f7xx_hal_rtc_ex.c ****   * @param  SmoothCalibMinusPulsesValue Select the value of CALM[8:0] bits.
1558:Drivers/STM32F7xx_HAL_Driver/Src/stm32f7xx_hal_rtc_ex.c ****   *          This parameter can be one any value from 0 to 0x000001FF.
1559:Drivers/STM32F7xx_HAL_Driver/Src/stm32f7xx_hal_rtc_ex.c ****   * @note   To deactivate the smooth calibration, the field SmoothCalibPlusPulses
1560:Drivers/STM32F7xx_HAL_Driver/Src/stm32f7xx_hal_rtc_ex.c ****   *         must be equal to SMOOTHCALIB_PLUSPULSES_RESET and the field
1561:Drivers/STM32F7xx_HAL_Driver/Src/stm32f7xx_hal_rtc_ex.c ****   *         SmoothCalibMinusPulsesValue must be equal to 0.
1562:Drivers/STM32F7xx_HAL_Driver/Src/stm32f7xx_hal_rtc_ex.c ****   * @retval HAL status
1563:Drivers/STM32F7xx_HAL_Driver/Src/stm32f7xx_hal_rtc_ex.c ****   */
1564:Drivers/STM32F7xx_HAL_Driver/Src/stm32f7xx_hal_rtc_ex.c **** HAL_StatusTypeDef HAL_RTCEx_SetSmoothCalib(RTC_HandleTypeDef *hrtc, uint32_t SmoothCalibPeriod, uin
1565:Drivers/STM32F7xx_HAL_Driver/Src/stm32f7xx_hal_rtc_ex.c **** {
 2908              		.loc 1 1565 1 is_stmt 1 view -0
 2909              		.cfi_startproc
 2910              		@ args = 0, pretend = 0, frame = 0
 2911              		@ frame_needed = 0, uses_anonymous_args = 0
 2912              		.loc 1 1565 1 is_stmt 0 view .LVU995
 2913 0000 2DE9F041 		push	{r4, r5, r6, r7, r8, lr}
 2914              	.LCFI31:
 2915              		.cfi_def_cfa_offset 24
ARM GAS  /tmp/ccxe0t7k.s 			page 82


 2916              		.cfi_offset 4, -24
 2917              		.cfi_offset 5, -20
 2918              		.cfi_offset 6, -16
 2919              		.cfi_offset 7, -12
 2920              		.cfi_offset 8, -8
 2921              		.cfi_offset 14, -4
 2922 0004 1E46     		mov	r6, r3
1566:Drivers/STM32F7xx_HAL_Driver/Src/stm32f7xx_hal_rtc_ex.c ****   uint32_t tickstart = 0U;
 2923              		.loc 1 1566 3 is_stmt 1 view .LVU996
 2924              	.LVL195:
1567:Drivers/STM32F7xx_HAL_Driver/Src/stm32f7xx_hal_rtc_ex.c **** 
1568:Drivers/STM32F7xx_HAL_Driver/Src/stm32f7xx_hal_rtc_ex.c ****   /* Check the parameters */
1569:Drivers/STM32F7xx_HAL_Driver/Src/stm32f7xx_hal_rtc_ex.c ****   assert_param(IS_RTC_SMOOTH_CALIB_PERIOD(SmoothCalibPeriod));
 2925              		.loc 1 1569 3 view .LVU997
1570:Drivers/STM32F7xx_HAL_Driver/Src/stm32f7xx_hal_rtc_ex.c ****   assert_param(IS_RTC_SMOOTH_CALIB_PLUS(SmoothCalibPlusPulses));
 2926              		.loc 1 1570 3 view .LVU998
1571:Drivers/STM32F7xx_HAL_Driver/Src/stm32f7xx_hal_rtc_ex.c ****   assert_param(IS_RTC_SMOOTH_CALIB_MINUS(SmoothCalibMinusPulsesValue));
 2927              		.loc 1 1571 3 view .LVU999
1572:Drivers/STM32F7xx_HAL_Driver/Src/stm32f7xx_hal_rtc_ex.c **** 
1573:Drivers/STM32F7xx_HAL_Driver/Src/stm32f7xx_hal_rtc_ex.c ****   /* Process Locked */
1574:Drivers/STM32F7xx_HAL_Driver/Src/stm32f7xx_hal_rtc_ex.c ****   __HAL_LOCK(hrtc);
 2928              		.loc 1 1574 3 view .LVU1000
 2929              		.loc 1 1574 3 view .LVU1001
 2930 0006 037F     		ldrb	r3, [r0, #28]	@ zero_extendqisi2
 2931              	.LVL196:
 2932              		.loc 1 1574 3 is_stmt 0 view .LVU1002
 2933 0008 012B     		cmp	r3, #1
 2934 000a 35D0     		beq	.L205
 2935 000c 0446     		mov	r4, r0
 2936 000e 0D46     		mov	r5, r1
 2937 0010 1746     		mov	r7, r2
 2938              		.loc 1 1574 3 is_stmt 1 discriminator 2 view .LVU1003
 2939 0012 0123     		movs	r3, #1
 2940 0014 0377     		strb	r3, [r0, #28]
 2941              		.loc 1 1574 3 discriminator 2 view .LVU1004
1575:Drivers/STM32F7xx_HAL_Driver/Src/stm32f7xx_hal_rtc_ex.c **** 
1576:Drivers/STM32F7xx_HAL_Driver/Src/stm32f7xx_hal_rtc_ex.c ****   hrtc->State = HAL_RTC_STATE_BUSY;
 2942              		.loc 1 1576 3 discriminator 2 view .LVU1005
 2943              		.loc 1 1576 15 is_stmt 0 discriminator 2 view .LVU1006
 2944 0016 0223     		movs	r3, #2
 2945 0018 4377     		strb	r3, [r0, #29]
1577:Drivers/STM32F7xx_HAL_Driver/Src/stm32f7xx_hal_rtc_ex.c **** 
1578:Drivers/STM32F7xx_HAL_Driver/Src/stm32f7xx_hal_rtc_ex.c ****   /* Disable the write protection for RTC registers */
1579:Drivers/STM32F7xx_HAL_Driver/Src/stm32f7xx_hal_rtc_ex.c ****   __HAL_RTC_WRITEPROTECTION_DISABLE(hrtc);
 2946              		.loc 1 1579 3 is_stmt 1 discriminator 2 view .LVU1007
 2947              		.loc 1 1579 3 discriminator 2 view .LVU1008
 2948 001a 0368     		ldr	r3, [r0]
 2949 001c CA22     		movs	r2, #202
 2950              	.LVL197:
 2951              		.loc 1 1579 3 is_stmt 0 discriminator 2 view .LVU1009
 2952 001e 5A62     		str	r2, [r3, #36]
 2953              		.loc 1 1579 3 is_stmt 1 discriminator 2 view .LVU1010
 2954 0020 0368     		ldr	r3, [r0]
 2955 0022 5322     		movs	r2, #83
 2956 0024 5A62     		str	r2, [r3, #36]
 2957              		.loc 1 1579 3 discriminator 2 view .LVU1011
1580:Drivers/STM32F7xx_HAL_Driver/Src/stm32f7xx_hal_rtc_ex.c **** 
ARM GAS  /tmp/ccxe0t7k.s 			page 83


1581:Drivers/STM32F7xx_HAL_Driver/Src/stm32f7xx_hal_rtc_ex.c ****   /* check if a calibration is pending*/
1582:Drivers/STM32F7xx_HAL_Driver/Src/stm32f7xx_hal_rtc_ex.c ****   if ((hrtc->Instance->ISR & RTC_ISR_RECALPF) != 0U)
 2958              		.loc 1 1582 3 discriminator 2 view .LVU1012
 2959              		.loc 1 1582 12 is_stmt 0 discriminator 2 view .LVU1013
 2960 0026 0368     		ldr	r3, [r0]
 2961              		.loc 1 1582 22 discriminator 2 view .LVU1014
 2962 0028 DB68     		ldr	r3, [r3, #12]
 2963              		.loc 1 1582 6 discriminator 2 view .LVU1015
 2964 002a 13F4803F 		tst	r3, #65536
 2965 002e 0CD1     		bne	.L207
 2966              	.LVL198:
 2967              	.L202:
1583:Drivers/STM32F7xx_HAL_Driver/Src/stm32f7xx_hal_rtc_ex.c ****   {
1584:Drivers/STM32F7xx_HAL_Driver/Src/stm32f7xx_hal_rtc_ex.c ****     /* Get tick */
1585:Drivers/STM32F7xx_HAL_Driver/Src/stm32f7xx_hal_rtc_ex.c ****     tickstart = HAL_GetTick();
1586:Drivers/STM32F7xx_HAL_Driver/Src/stm32f7xx_hal_rtc_ex.c **** 
1587:Drivers/STM32F7xx_HAL_Driver/Src/stm32f7xx_hal_rtc_ex.c ****     /* check if a calibration is pending*/
1588:Drivers/STM32F7xx_HAL_Driver/Src/stm32f7xx_hal_rtc_ex.c ****     while ((hrtc->Instance->ISR & RTC_ISR_RECALPF) != 0U)
1589:Drivers/STM32F7xx_HAL_Driver/Src/stm32f7xx_hal_rtc_ex.c ****     {
1590:Drivers/STM32F7xx_HAL_Driver/Src/stm32f7xx_hal_rtc_ex.c ****       if ((HAL_GetTick() - tickstart) > RTC_TIMEOUT_VALUE)
1591:Drivers/STM32F7xx_HAL_Driver/Src/stm32f7xx_hal_rtc_ex.c ****       {
1592:Drivers/STM32F7xx_HAL_Driver/Src/stm32f7xx_hal_rtc_ex.c ****         /* Enable the write protection for RTC registers */
1593:Drivers/STM32F7xx_HAL_Driver/Src/stm32f7xx_hal_rtc_ex.c ****         __HAL_RTC_WRITEPROTECTION_ENABLE(hrtc);
1594:Drivers/STM32F7xx_HAL_Driver/Src/stm32f7xx_hal_rtc_ex.c **** 
1595:Drivers/STM32F7xx_HAL_Driver/Src/stm32f7xx_hal_rtc_ex.c ****         /* Change RTC state */
1596:Drivers/STM32F7xx_HAL_Driver/Src/stm32f7xx_hal_rtc_ex.c ****         hrtc->State = HAL_RTC_STATE_TIMEOUT;
1597:Drivers/STM32F7xx_HAL_Driver/Src/stm32f7xx_hal_rtc_ex.c **** 
1598:Drivers/STM32F7xx_HAL_Driver/Src/stm32f7xx_hal_rtc_ex.c ****         /* Process Unlocked */
1599:Drivers/STM32F7xx_HAL_Driver/Src/stm32f7xx_hal_rtc_ex.c ****         __HAL_UNLOCK(hrtc);
1600:Drivers/STM32F7xx_HAL_Driver/Src/stm32f7xx_hal_rtc_ex.c **** 
1601:Drivers/STM32F7xx_HAL_Driver/Src/stm32f7xx_hal_rtc_ex.c ****         return HAL_TIMEOUT;
1602:Drivers/STM32F7xx_HAL_Driver/Src/stm32f7xx_hal_rtc_ex.c ****       }
1603:Drivers/STM32F7xx_HAL_Driver/Src/stm32f7xx_hal_rtc_ex.c ****     }
1604:Drivers/STM32F7xx_HAL_Driver/Src/stm32f7xx_hal_rtc_ex.c ****   }
1605:Drivers/STM32F7xx_HAL_Driver/Src/stm32f7xx_hal_rtc_ex.c **** 
1606:Drivers/STM32F7xx_HAL_Driver/Src/stm32f7xx_hal_rtc_ex.c ****   /* Configure the Smooth calibration settings */
1607:Drivers/STM32F7xx_HAL_Driver/Src/stm32f7xx_hal_rtc_ex.c ****   hrtc->Instance->CALR = (uint32_t)((uint32_t)SmoothCalibPeriod     | \
 2968              		.loc 1 1607 3 is_stmt 1 view .LVU1016
 2969              		.loc 1 1607 69 is_stmt 0 view .LVU1017
 2970 0030 3D43     		orrs	r5, r5, r7
 2971              	.LVL199:
 2972              		.loc 1 1607 7 view .LVU1018
 2973 0032 2368     		ldr	r3, [r4]
 2974              		.loc 1 1607 26 view .LVU1019
 2975 0034 3543     		orrs	r5, r5, r6
 2976              		.loc 1 1607 24 view .LVU1020
 2977 0036 DD63     		str	r5, [r3, #60]
1608:Drivers/STM32F7xx_HAL_Driver/Src/stm32f7xx_hal_rtc_ex.c ****                                     (uint32_t)SmoothCalibPlusPulses | \
1609:Drivers/STM32F7xx_HAL_Driver/Src/stm32f7xx_hal_rtc_ex.c ****                                     (uint32_t)SmoothCalibMinusPulsesValue);
1610:Drivers/STM32F7xx_HAL_Driver/Src/stm32f7xx_hal_rtc_ex.c **** 
1611:Drivers/STM32F7xx_HAL_Driver/Src/stm32f7xx_hal_rtc_ex.c ****   /* Enable the write protection for RTC registers */
1612:Drivers/STM32F7xx_HAL_Driver/Src/stm32f7xx_hal_rtc_ex.c ****   __HAL_RTC_WRITEPROTECTION_ENABLE(hrtc);
 2978              		.loc 1 1612 3 is_stmt 1 view .LVU1021
 2979              		.loc 1 1612 3 view .LVU1022
 2980 0038 2368     		ldr	r3, [r4]
 2981 003a FF22     		movs	r2, #255
 2982 003c 5A62     		str	r2, [r3, #36]
ARM GAS  /tmp/ccxe0t7k.s 			page 84


 2983              		.loc 1 1612 3 view .LVU1023
1613:Drivers/STM32F7xx_HAL_Driver/Src/stm32f7xx_hal_rtc_ex.c **** 
1614:Drivers/STM32F7xx_HAL_Driver/Src/stm32f7xx_hal_rtc_ex.c ****   /* Change RTC state */
1615:Drivers/STM32F7xx_HAL_Driver/Src/stm32f7xx_hal_rtc_ex.c ****   hrtc->State = HAL_RTC_STATE_READY;
 2984              		.loc 1 1615 3 view .LVU1024
 2985              		.loc 1 1615 15 is_stmt 0 view .LVU1025
 2986 003e 0123     		movs	r3, #1
 2987 0040 6377     		strb	r3, [r4, #29]
1616:Drivers/STM32F7xx_HAL_Driver/Src/stm32f7xx_hal_rtc_ex.c **** 
1617:Drivers/STM32F7xx_HAL_Driver/Src/stm32f7xx_hal_rtc_ex.c ****   /* Process Unlocked */
1618:Drivers/STM32F7xx_HAL_Driver/Src/stm32f7xx_hal_rtc_ex.c ****   __HAL_UNLOCK(hrtc);
 2988              		.loc 1 1618 3 is_stmt 1 view .LVU1026
 2989              		.loc 1 1618 3 view .LVU1027
 2990 0042 0020     		movs	r0, #0
 2991 0044 2077     		strb	r0, [r4, #28]
 2992              		.loc 1 1618 3 view .LVU1028
1619:Drivers/STM32F7xx_HAL_Driver/Src/stm32f7xx_hal_rtc_ex.c **** 
1620:Drivers/STM32F7xx_HAL_Driver/Src/stm32f7xx_hal_rtc_ex.c ****   return HAL_OK;
 2993              		.loc 1 1620 3 view .LVU1029
 2994              	.LVL200:
 2995              	.L201:
1621:Drivers/STM32F7xx_HAL_Driver/Src/stm32f7xx_hal_rtc_ex.c **** }
 2996              		.loc 1 1621 1 is_stmt 0 view .LVU1030
 2997 0046 BDE8F081 		pop	{r4, r5, r6, r7, r8, pc}
 2998              	.LVL201:
 2999              	.L207:
1585:Drivers/STM32F7xx_HAL_Driver/Src/stm32f7xx_hal_rtc_ex.c **** 
 3000              		.loc 1 1585 5 is_stmt 1 view .LVU1031
1585:Drivers/STM32F7xx_HAL_Driver/Src/stm32f7xx_hal_rtc_ex.c **** 
 3001              		.loc 1 1585 17 is_stmt 0 view .LVU1032
 3002 004a FFF7FEFF 		bl	HAL_GetTick
 3003              	.LVL202:
1585:Drivers/STM32F7xx_HAL_Driver/Src/stm32f7xx_hal_rtc_ex.c **** 
 3004              		.loc 1 1585 17 view .LVU1033
 3005 004e 8046     		mov	r8, r0
 3006              	.LVL203:
1588:Drivers/STM32F7xx_HAL_Driver/Src/stm32f7xx_hal_rtc_ex.c ****     {
 3007              		.loc 1 1588 5 is_stmt 1 view .LVU1034
 3008              	.L203:
1588:Drivers/STM32F7xx_HAL_Driver/Src/stm32f7xx_hal_rtc_ex.c ****     {
 3009              		.loc 1 1588 52 view .LVU1035
1588:Drivers/STM32F7xx_HAL_Driver/Src/stm32f7xx_hal_rtc_ex.c ****     {
 3010              		.loc 1 1588 17 is_stmt 0 view .LVU1036
 3011 0050 2368     		ldr	r3, [r4]
1588:Drivers/STM32F7xx_HAL_Driver/Src/stm32f7xx_hal_rtc_ex.c ****     {
 3012              		.loc 1 1588 27 view .LVU1037
 3013 0052 D968     		ldr	r1, [r3, #12]
1588:Drivers/STM32F7xx_HAL_Driver/Src/stm32f7xx_hal_rtc_ex.c ****     {
 3014              		.loc 1 1588 52 view .LVU1038
 3015 0054 11F4803F 		tst	r1, #65536
 3016 0058 EAD0     		beq	.L202
1590:Drivers/STM32F7xx_HAL_Driver/Src/stm32f7xx_hal_rtc_ex.c ****       {
 3017              		.loc 1 1590 7 is_stmt 1 view .LVU1039
1590:Drivers/STM32F7xx_HAL_Driver/Src/stm32f7xx_hal_rtc_ex.c ****       {
 3018              		.loc 1 1590 12 is_stmt 0 view .LVU1040
 3019 005a FFF7FEFF 		bl	HAL_GetTick
 3020              	.LVL204:
ARM GAS  /tmp/ccxe0t7k.s 			page 85


1590:Drivers/STM32F7xx_HAL_Driver/Src/stm32f7xx_hal_rtc_ex.c ****       {
 3021              		.loc 1 1590 26 view .LVU1041
 3022 005e A0EB0800 		sub	r0, r0, r8
1590:Drivers/STM32F7xx_HAL_Driver/Src/stm32f7xx_hal_rtc_ex.c ****       {
 3023              		.loc 1 1590 10 view .LVU1042
 3024 0062 B0F57A7F 		cmp	r0, #1000
 3025 0066 F3D9     		bls	.L203
1593:Drivers/STM32F7xx_HAL_Driver/Src/stm32f7xx_hal_rtc_ex.c **** 
 3026              		.loc 1 1593 9 is_stmt 1 view .LVU1043
1593:Drivers/STM32F7xx_HAL_Driver/Src/stm32f7xx_hal_rtc_ex.c **** 
 3027              		.loc 1 1593 9 view .LVU1044
 3028 0068 2368     		ldr	r3, [r4]
 3029 006a FF22     		movs	r2, #255
 3030 006c 5A62     		str	r2, [r3, #36]
1593:Drivers/STM32F7xx_HAL_Driver/Src/stm32f7xx_hal_rtc_ex.c **** 
 3031              		.loc 1 1593 9 view .LVU1045
1596:Drivers/STM32F7xx_HAL_Driver/Src/stm32f7xx_hal_rtc_ex.c **** 
 3032              		.loc 1 1596 9 view .LVU1046
1596:Drivers/STM32F7xx_HAL_Driver/Src/stm32f7xx_hal_rtc_ex.c **** 
 3033              		.loc 1 1596 21 is_stmt 0 view .LVU1047
 3034 006e 0320     		movs	r0, #3
 3035 0070 6077     		strb	r0, [r4, #29]
1599:Drivers/STM32F7xx_HAL_Driver/Src/stm32f7xx_hal_rtc_ex.c **** 
 3036              		.loc 1 1599 9 is_stmt 1 view .LVU1048
1599:Drivers/STM32F7xx_HAL_Driver/Src/stm32f7xx_hal_rtc_ex.c **** 
 3037              		.loc 1 1599 9 view .LVU1049
 3038 0072 0023     		movs	r3, #0
 3039 0074 2377     		strb	r3, [r4, #28]
1599:Drivers/STM32F7xx_HAL_Driver/Src/stm32f7xx_hal_rtc_ex.c **** 
 3040              		.loc 1 1599 9 view .LVU1050
1601:Drivers/STM32F7xx_HAL_Driver/Src/stm32f7xx_hal_rtc_ex.c ****       }
 3041              		.loc 1 1601 9 view .LVU1051
1601:Drivers/STM32F7xx_HAL_Driver/Src/stm32f7xx_hal_rtc_ex.c ****       }
 3042              		.loc 1 1601 16 is_stmt 0 view .LVU1052
 3043 0076 E6E7     		b	.L201
 3044              	.LVL205:
 3045              	.L205:
1574:Drivers/STM32F7xx_HAL_Driver/Src/stm32f7xx_hal_rtc_ex.c **** 
 3046              		.loc 1 1574 3 view .LVU1053
 3047 0078 0220     		movs	r0, #2
 3048              	.LVL206:
1574:Drivers/STM32F7xx_HAL_Driver/Src/stm32f7xx_hal_rtc_ex.c **** 
 3049              		.loc 1 1574 3 view .LVU1054
 3050 007a E4E7     		b	.L201
 3051              		.cfi_endproc
 3052              	.LFE168:
 3054              		.section	.text.HAL_RTCEx_SetSynchroShift,"ax",%progbits
 3055              		.align	1
 3056              		.global	HAL_RTCEx_SetSynchroShift
 3057              		.syntax unified
 3058              		.thumb
 3059              		.thumb_func
 3061              	HAL_RTCEx_SetSynchroShift:
 3062              	.LVL207:
 3063              	.LFB169:
1622:Drivers/STM32F7xx_HAL_Driver/Src/stm32f7xx_hal_rtc_ex.c **** 
1623:Drivers/STM32F7xx_HAL_Driver/Src/stm32f7xx_hal_rtc_ex.c **** /**
ARM GAS  /tmp/ccxe0t7k.s 			page 86


1624:Drivers/STM32F7xx_HAL_Driver/Src/stm32f7xx_hal_rtc_ex.c ****   * @brief  Configures the Synchronization Shift Control Settings.
1625:Drivers/STM32F7xx_HAL_Driver/Src/stm32f7xx_hal_rtc_ex.c ****   * @note   When REFCKON is set, firmware must not write to Shift control register.
1626:Drivers/STM32F7xx_HAL_Driver/Src/stm32f7xx_hal_rtc_ex.c ****   * @param  hrtc pointer to a RTC_HandleTypeDef structure that contains
1627:Drivers/STM32F7xx_HAL_Driver/Src/stm32f7xx_hal_rtc_ex.c ****   *                the configuration information for RTC.
1628:Drivers/STM32F7xx_HAL_Driver/Src/stm32f7xx_hal_rtc_ex.c ****   * @param  ShiftAdd1S Select to add or not 1 second to the time calendar.
1629:Drivers/STM32F7xx_HAL_Driver/Src/stm32f7xx_hal_rtc_ex.c ****   *          This parameter can be one of the following values:
1630:Drivers/STM32F7xx_HAL_Driver/Src/stm32f7xx_hal_rtc_ex.c ****   *             @arg RTC_SHIFTADD1S_SET: Add one second to the clock calendar.
1631:Drivers/STM32F7xx_HAL_Driver/Src/stm32f7xx_hal_rtc_ex.c ****   *             @arg RTC_SHIFTADD1S_RESET: No effect.
1632:Drivers/STM32F7xx_HAL_Driver/Src/stm32f7xx_hal_rtc_ex.c ****   * @param  ShiftSubFS Select the number of Second Fractions to substitute.
1633:Drivers/STM32F7xx_HAL_Driver/Src/stm32f7xx_hal_rtc_ex.c ****   *          This parameter can be one any value from 0 to 0x7FFF.
1634:Drivers/STM32F7xx_HAL_Driver/Src/stm32f7xx_hal_rtc_ex.c ****   * @retval HAL status
1635:Drivers/STM32F7xx_HAL_Driver/Src/stm32f7xx_hal_rtc_ex.c ****   */
1636:Drivers/STM32F7xx_HAL_Driver/Src/stm32f7xx_hal_rtc_ex.c **** HAL_StatusTypeDef HAL_RTCEx_SetSynchroShift(RTC_HandleTypeDef *hrtc, uint32_t ShiftAdd1S, uint32_t 
1637:Drivers/STM32F7xx_HAL_Driver/Src/stm32f7xx_hal_rtc_ex.c **** {
 3064              		.loc 1 1637 1 is_stmt 1 view -0
 3065              		.cfi_startproc
 3066              		@ args = 0, pretend = 0, frame = 0
 3067              		@ frame_needed = 0, uses_anonymous_args = 0
1638:Drivers/STM32F7xx_HAL_Driver/Src/stm32f7xx_hal_rtc_ex.c ****   uint32_t tickstart = 0U;
 3068              		.loc 1 1638 3 view .LVU1056
1639:Drivers/STM32F7xx_HAL_Driver/Src/stm32f7xx_hal_rtc_ex.c **** 
1640:Drivers/STM32F7xx_HAL_Driver/Src/stm32f7xx_hal_rtc_ex.c ****   /* Check the parameters */
1641:Drivers/STM32F7xx_HAL_Driver/Src/stm32f7xx_hal_rtc_ex.c ****   assert_param(IS_RTC_SHIFT_ADD1S(ShiftAdd1S));
 3069              		.loc 1 1641 3 view .LVU1057
1642:Drivers/STM32F7xx_HAL_Driver/Src/stm32f7xx_hal_rtc_ex.c ****   assert_param(IS_RTC_SHIFT_SUBFS(ShiftSubFS));
 3070              		.loc 1 1642 3 view .LVU1058
1643:Drivers/STM32F7xx_HAL_Driver/Src/stm32f7xx_hal_rtc_ex.c **** 
1644:Drivers/STM32F7xx_HAL_Driver/Src/stm32f7xx_hal_rtc_ex.c ****   /* Process Locked */
1645:Drivers/STM32F7xx_HAL_Driver/Src/stm32f7xx_hal_rtc_ex.c ****   __HAL_LOCK(hrtc);
 3071              		.loc 1 1645 3 view .LVU1059
 3072              		.loc 1 1645 3 view .LVU1060
 3073 0000 037F     		ldrb	r3, [r0, #28]	@ zero_extendqisi2
 3074 0002 012B     		cmp	r3, #1
 3075 0004 4FD0     		beq	.L214
1637:Drivers/STM32F7xx_HAL_Driver/Src/stm32f7xx_hal_rtc_ex.c ****   uint32_t tickstart = 0U;
 3076              		.loc 1 1637 1 is_stmt 0 discriminator 2 view .LVU1061
 3077 0006 2DE9F041 		push	{r4, r5, r6, r7, r8, lr}
 3078              	.LCFI32:
 3079              		.cfi_def_cfa_offset 24
 3080              		.cfi_offset 4, -24
 3081              		.cfi_offset 5, -20
 3082              		.cfi_offset 6, -16
 3083              		.cfi_offset 7, -12
 3084              		.cfi_offset 8, -8
 3085              		.cfi_offset 14, -4
 3086 000a 0446     		mov	r4, r0
 3087 000c 8846     		mov	r8, r1
 3088 000e 1746     		mov	r7, r2
 3089              		.loc 1 1645 3 is_stmt 1 discriminator 2 view .LVU1062
 3090 0010 0123     		movs	r3, #1
 3091 0012 0377     		strb	r3, [r0, #28]
 3092              		.loc 1 1645 3 discriminator 2 view .LVU1063
1646:Drivers/STM32F7xx_HAL_Driver/Src/stm32f7xx_hal_rtc_ex.c **** 
1647:Drivers/STM32F7xx_HAL_Driver/Src/stm32f7xx_hal_rtc_ex.c ****   hrtc->State = HAL_RTC_STATE_BUSY;
 3093              		.loc 1 1647 3 discriminator 2 view .LVU1064
 3094              		.loc 1 1647 15 is_stmt 0 discriminator 2 view .LVU1065
 3095 0014 0223     		movs	r3, #2
ARM GAS  /tmp/ccxe0t7k.s 			page 87


 3096 0016 4377     		strb	r3, [r0, #29]
1648:Drivers/STM32F7xx_HAL_Driver/Src/stm32f7xx_hal_rtc_ex.c **** 
1649:Drivers/STM32F7xx_HAL_Driver/Src/stm32f7xx_hal_rtc_ex.c ****   /* Disable the write protection for RTC registers */
1650:Drivers/STM32F7xx_HAL_Driver/Src/stm32f7xx_hal_rtc_ex.c ****   __HAL_RTC_WRITEPROTECTION_DISABLE(hrtc);
 3097              		.loc 1 1650 3 is_stmt 1 discriminator 2 view .LVU1066
 3098              		.loc 1 1650 3 discriminator 2 view .LVU1067
 3099 0018 0368     		ldr	r3, [r0]
 3100 001a CA22     		movs	r2, #202
 3101              	.LVL208:
 3102              		.loc 1 1650 3 is_stmt 0 discriminator 2 view .LVU1068
 3103 001c 5A62     		str	r2, [r3, #36]
 3104              		.loc 1 1650 3 is_stmt 1 discriminator 2 view .LVU1069
 3105 001e 0368     		ldr	r3, [r0]
 3106 0020 5322     		movs	r2, #83
 3107 0022 5A62     		str	r2, [r3, #36]
 3108              		.loc 1 1650 3 discriminator 2 view .LVU1070
1651:Drivers/STM32F7xx_HAL_Driver/Src/stm32f7xx_hal_rtc_ex.c **** 
1652:Drivers/STM32F7xx_HAL_Driver/Src/stm32f7xx_hal_rtc_ex.c ****   /* Get tick */
1653:Drivers/STM32F7xx_HAL_Driver/Src/stm32f7xx_hal_rtc_ex.c ****   tickstart = HAL_GetTick();
 3109              		.loc 1 1653 3 discriminator 2 view .LVU1071
 3110              		.loc 1 1653 15 is_stmt 0 discriminator 2 view .LVU1072
 3111 0024 FFF7FEFF 		bl	HAL_GetTick
 3112              	.LVL209:
 3113              		.loc 1 1653 15 discriminator 2 view .LVU1073
 3114 0028 0646     		mov	r6, r0
 3115              	.LVL210:
1654:Drivers/STM32F7xx_HAL_Driver/Src/stm32f7xx_hal_rtc_ex.c **** 
1655:Drivers/STM32F7xx_HAL_Driver/Src/stm32f7xx_hal_rtc_ex.c ****   /* Wait until the shift is completed */
1656:Drivers/STM32F7xx_HAL_Driver/Src/stm32f7xx_hal_rtc_ex.c ****   while ((hrtc->Instance->ISR & RTC_ISR_SHPF) != 0U)
 3116              		.loc 1 1656 3 is_stmt 1 discriminator 2 view .LVU1074
 3117              	.L210:
 3118              		.loc 1 1656 47 view .LVU1075
 3119              		.loc 1 1656 15 is_stmt 0 view .LVU1076
 3120 002a 2368     		ldr	r3, [r4]
 3121              		.loc 1 1656 25 view .LVU1077
 3122 002c DD68     		ldr	r5, [r3, #12]
 3123              		.loc 1 1656 47 view .LVU1078
 3124 002e 15F0080F 		tst	r5, #8
 3125 0032 0ED0     		beq	.L219
1657:Drivers/STM32F7xx_HAL_Driver/Src/stm32f7xx_hal_rtc_ex.c ****   {
1658:Drivers/STM32F7xx_HAL_Driver/Src/stm32f7xx_hal_rtc_ex.c ****     if ((HAL_GetTick() - tickstart) > RTC_TIMEOUT_VALUE)
 3126              		.loc 1 1658 5 is_stmt 1 view .LVU1079
 3127              		.loc 1 1658 10 is_stmt 0 view .LVU1080
 3128 0034 FFF7FEFF 		bl	HAL_GetTick
 3129              	.LVL211:
 3130              		.loc 1 1658 24 view .LVU1081
 3131 0038 831B     		subs	r3, r0, r6
 3132              		.loc 1 1658 8 view .LVU1082
 3133 003a B3F57A7F 		cmp	r3, #1000
 3134 003e F4D9     		bls	.L210
1659:Drivers/STM32F7xx_HAL_Driver/Src/stm32f7xx_hal_rtc_ex.c ****     {
1660:Drivers/STM32F7xx_HAL_Driver/Src/stm32f7xx_hal_rtc_ex.c ****       /* Enable the write protection for RTC registers */
1661:Drivers/STM32F7xx_HAL_Driver/Src/stm32f7xx_hal_rtc_ex.c ****       __HAL_RTC_WRITEPROTECTION_ENABLE(hrtc);
 3135              		.loc 1 1661 7 is_stmt 1 view .LVU1083
 3136              		.loc 1 1661 7 view .LVU1084
 3137 0040 2368     		ldr	r3, [r4]
 3138 0042 FF22     		movs	r2, #255
ARM GAS  /tmp/ccxe0t7k.s 			page 88


 3139 0044 5A62     		str	r2, [r3, #36]
 3140              		.loc 1 1661 7 view .LVU1085
1662:Drivers/STM32F7xx_HAL_Driver/Src/stm32f7xx_hal_rtc_ex.c **** 
1663:Drivers/STM32F7xx_HAL_Driver/Src/stm32f7xx_hal_rtc_ex.c ****       hrtc->State = HAL_RTC_STATE_TIMEOUT;
 3141              		.loc 1 1663 7 view .LVU1086
 3142              		.loc 1 1663 19 is_stmt 0 view .LVU1087
 3143 0046 0320     		movs	r0, #3
 3144 0048 6077     		strb	r0, [r4, #29]
1664:Drivers/STM32F7xx_HAL_Driver/Src/stm32f7xx_hal_rtc_ex.c **** 
1665:Drivers/STM32F7xx_HAL_Driver/Src/stm32f7xx_hal_rtc_ex.c ****       /* Process Unlocked */
1666:Drivers/STM32F7xx_HAL_Driver/Src/stm32f7xx_hal_rtc_ex.c ****       __HAL_UNLOCK(hrtc);
 3145              		.loc 1 1666 7 is_stmt 1 view .LVU1088
 3146              		.loc 1 1666 7 view .LVU1089
 3147 004a 0023     		movs	r3, #0
 3148 004c 2377     		strb	r3, [r4, #28]
 3149              		.loc 1 1666 7 view .LVU1090
1667:Drivers/STM32F7xx_HAL_Driver/Src/stm32f7xx_hal_rtc_ex.c **** 
1668:Drivers/STM32F7xx_HAL_Driver/Src/stm32f7xx_hal_rtc_ex.c ****       return HAL_TIMEOUT;
 3150              		.loc 1 1668 7 view .LVU1091
 3151              	.LVL212:
 3152              	.L209:
1669:Drivers/STM32F7xx_HAL_Driver/Src/stm32f7xx_hal_rtc_ex.c ****     }
1670:Drivers/STM32F7xx_HAL_Driver/Src/stm32f7xx_hal_rtc_ex.c ****   }
1671:Drivers/STM32F7xx_HAL_Driver/Src/stm32f7xx_hal_rtc_ex.c **** 
1672:Drivers/STM32F7xx_HAL_Driver/Src/stm32f7xx_hal_rtc_ex.c ****   /* Check if the reference clock detection is disabled */
1673:Drivers/STM32F7xx_HAL_Driver/Src/stm32f7xx_hal_rtc_ex.c ****   if ((hrtc->Instance->CR & RTC_CR_REFCKON) == 0U)
1674:Drivers/STM32F7xx_HAL_Driver/Src/stm32f7xx_hal_rtc_ex.c ****   {
1675:Drivers/STM32F7xx_HAL_Driver/Src/stm32f7xx_hal_rtc_ex.c ****     /* Configure the Shift settings */
1676:Drivers/STM32F7xx_HAL_Driver/Src/stm32f7xx_hal_rtc_ex.c ****     hrtc->Instance->SHIFTR = (uint32_t)(uint32_t)(ShiftSubFS) | (uint32_t)(ShiftAdd1S);
1677:Drivers/STM32F7xx_HAL_Driver/Src/stm32f7xx_hal_rtc_ex.c **** 
1678:Drivers/STM32F7xx_HAL_Driver/Src/stm32f7xx_hal_rtc_ex.c ****     /* If  RTC_CR_BYPSHAD bit = 0, wait for synchro else this check is not needed */
1679:Drivers/STM32F7xx_HAL_Driver/Src/stm32f7xx_hal_rtc_ex.c ****     if ((hrtc->Instance->CR & RTC_CR_BYPSHAD) == 0U)
1680:Drivers/STM32F7xx_HAL_Driver/Src/stm32f7xx_hal_rtc_ex.c ****     {
1681:Drivers/STM32F7xx_HAL_Driver/Src/stm32f7xx_hal_rtc_ex.c ****       if (HAL_RTC_WaitForSynchro(hrtc) != HAL_OK)
1682:Drivers/STM32F7xx_HAL_Driver/Src/stm32f7xx_hal_rtc_ex.c ****       {
1683:Drivers/STM32F7xx_HAL_Driver/Src/stm32f7xx_hal_rtc_ex.c ****         /* Enable the write protection for RTC registers */
1684:Drivers/STM32F7xx_HAL_Driver/Src/stm32f7xx_hal_rtc_ex.c ****         __HAL_RTC_WRITEPROTECTION_ENABLE(hrtc);
1685:Drivers/STM32F7xx_HAL_Driver/Src/stm32f7xx_hal_rtc_ex.c **** 
1686:Drivers/STM32F7xx_HAL_Driver/Src/stm32f7xx_hal_rtc_ex.c ****         hrtc->State = HAL_RTC_STATE_ERROR;
1687:Drivers/STM32F7xx_HAL_Driver/Src/stm32f7xx_hal_rtc_ex.c **** 
1688:Drivers/STM32F7xx_HAL_Driver/Src/stm32f7xx_hal_rtc_ex.c ****         /* Process Unlocked */
1689:Drivers/STM32F7xx_HAL_Driver/Src/stm32f7xx_hal_rtc_ex.c ****         __HAL_UNLOCK(hrtc);
1690:Drivers/STM32F7xx_HAL_Driver/Src/stm32f7xx_hal_rtc_ex.c **** 
1691:Drivers/STM32F7xx_HAL_Driver/Src/stm32f7xx_hal_rtc_ex.c ****         return HAL_ERROR;
1692:Drivers/STM32F7xx_HAL_Driver/Src/stm32f7xx_hal_rtc_ex.c ****       }
1693:Drivers/STM32F7xx_HAL_Driver/Src/stm32f7xx_hal_rtc_ex.c ****     }
1694:Drivers/STM32F7xx_HAL_Driver/Src/stm32f7xx_hal_rtc_ex.c ****   }
1695:Drivers/STM32F7xx_HAL_Driver/Src/stm32f7xx_hal_rtc_ex.c ****   else
1696:Drivers/STM32F7xx_HAL_Driver/Src/stm32f7xx_hal_rtc_ex.c ****   {
1697:Drivers/STM32F7xx_HAL_Driver/Src/stm32f7xx_hal_rtc_ex.c ****     /* Enable the write protection for RTC registers */
1698:Drivers/STM32F7xx_HAL_Driver/Src/stm32f7xx_hal_rtc_ex.c ****     __HAL_RTC_WRITEPROTECTION_ENABLE(hrtc);
1699:Drivers/STM32F7xx_HAL_Driver/Src/stm32f7xx_hal_rtc_ex.c **** 
1700:Drivers/STM32F7xx_HAL_Driver/Src/stm32f7xx_hal_rtc_ex.c ****     /* Change RTC state */
1701:Drivers/STM32F7xx_HAL_Driver/Src/stm32f7xx_hal_rtc_ex.c ****     hrtc->State = HAL_RTC_STATE_ERROR;
1702:Drivers/STM32F7xx_HAL_Driver/Src/stm32f7xx_hal_rtc_ex.c **** 
1703:Drivers/STM32F7xx_HAL_Driver/Src/stm32f7xx_hal_rtc_ex.c ****     /* Process Unlocked */
1704:Drivers/STM32F7xx_HAL_Driver/Src/stm32f7xx_hal_rtc_ex.c ****     __HAL_UNLOCK(hrtc);
ARM GAS  /tmp/ccxe0t7k.s 			page 89


1705:Drivers/STM32F7xx_HAL_Driver/Src/stm32f7xx_hal_rtc_ex.c **** 
1706:Drivers/STM32F7xx_HAL_Driver/Src/stm32f7xx_hal_rtc_ex.c ****     return HAL_ERROR;
1707:Drivers/STM32F7xx_HAL_Driver/Src/stm32f7xx_hal_rtc_ex.c ****   }
1708:Drivers/STM32F7xx_HAL_Driver/Src/stm32f7xx_hal_rtc_ex.c **** 
1709:Drivers/STM32F7xx_HAL_Driver/Src/stm32f7xx_hal_rtc_ex.c ****   /* Enable the write protection for RTC registers */
1710:Drivers/STM32F7xx_HAL_Driver/Src/stm32f7xx_hal_rtc_ex.c ****   __HAL_RTC_WRITEPROTECTION_ENABLE(hrtc);
1711:Drivers/STM32F7xx_HAL_Driver/Src/stm32f7xx_hal_rtc_ex.c **** 
1712:Drivers/STM32F7xx_HAL_Driver/Src/stm32f7xx_hal_rtc_ex.c ****   /* Change RTC state */
1713:Drivers/STM32F7xx_HAL_Driver/Src/stm32f7xx_hal_rtc_ex.c ****   hrtc->State = HAL_RTC_STATE_READY;
1714:Drivers/STM32F7xx_HAL_Driver/Src/stm32f7xx_hal_rtc_ex.c **** 
1715:Drivers/STM32F7xx_HAL_Driver/Src/stm32f7xx_hal_rtc_ex.c ****   /* Process Unlocked */
1716:Drivers/STM32F7xx_HAL_Driver/Src/stm32f7xx_hal_rtc_ex.c ****   __HAL_UNLOCK(hrtc);
1717:Drivers/STM32F7xx_HAL_Driver/Src/stm32f7xx_hal_rtc_ex.c **** 
1718:Drivers/STM32F7xx_HAL_Driver/Src/stm32f7xx_hal_rtc_ex.c ****   return HAL_OK;
1719:Drivers/STM32F7xx_HAL_Driver/Src/stm32f7xx_hal_rtc_ex.c **** }
 3153              		.loc 1 1719 1 is_stmt 0 view .LVU1092
 3154 004e BDE8F081 		pop	{r4, r5, r6, r7, r8, pc}
 3155              	.LVL213:
 3156              	.L219:
1673:Drivers/STM32F7xx_HAL_Driver/Src/stm32f7xx_hal_rtc_ex.c ****   {
 3157              		.loc 1 1673 3 is_stmt 1 view .LVU1093
1673:Drivers/STM32F7xx_HAL_Driver/Src/stm32f7xx_hal_rtc_ex.c ****   {
 3158              		.loc 1 1673 22 is_stmt 0 view .LVU1094
 3159 0052 9A68     		ldr	r2, [r3, #8]
1673:Drivers/STM32F7xx_HAL_Driver/Src/stm32f7xx_hal_rtc_ex.c ****   {
 3160              		.loc 1 1673 6 view .LVU1095
 3161 0054 12F0100F 		tst	r2, #16
 3162 0058 1DD1     		bne	.L212
1676:Drivers/STM32F7xx_HAL_Driver/Src/stm32f7xx_hal_rtc_ex.c **** 
 3163              		.loc 1 1676 5 is_stmt 1 view .LVU1096
1676:Drivers/STM32F7xx_HAL_Driver/Src/stm32f7xx_hal_rtc_ex.c **** 
 3164              		.loc 1 1676 63 is_stmt 0 view .LVU1097
 3165 005a 47EA0807 		orr	r7, r7, r8
 3166              	.LVL214:
1676:Drivers/STM32F7xx_HAL_Driver/Src/stm32f7xx_hal_rtc_ex.c **** 
 3167              		.loc 1 1676 28 view .LVU1098
 3168 005e DF62     		str	r7, [r3, #44]
1679:Drivers/STM32F7xx_HAL_Driver/Src/stm32f7xx_hal_rtc_ex.c ****     {
 3169              		.loc 1 1679 5 is_stmt 1 view .LVU1099
1679:Drivers/STM32F7xx_HAL_Driver/Src/stm32f7xx_hal_rtc_ex.c ****     {
 3170              		.loc 1 1679 14 is_stmt 0 view .LVU1100
 3171 0060 2368     		ldr	r3, [r4]
1679:Drivers/STM32F7xx_HAL_Driver/Src/stm32f7xx_hal_rtc_ex.c ****     {
 3172              		.loc 1 1679 24 view .LVU1101
 3173 0062 9B68     		ldr	r3, [r3, #8]
1679:Drivers/STM32F7xx_HAL_Driver/Src/stm32f7xx_hal_rtc_ex.c ****     {
 3174              		.loc 1 1679 8 view .LVU1102
 3175 0064 13F0200F 		tst	r3, #32
 3176 0068 07D0     		beq	.L220
 3177              	.L213:
1710:Drivers/STM32F7xx_HAL_Driver/Src/stm32f7xx_hal_rtc_ex.c **** 
 3178              		.loc 1 1710 3 is_stmt 1 view .LVU1103
1710:Drivers/STM32F7xx_HAL_Driver/Src/stm32f7xx_hal_rtc_ex.c **** 
 3179              		.loc 1 1710 3 view .LVU1104
 3180 006a 2368     		ldr	r3, [r4]
 3181 006c FF22     		movs	r2, #255
 3182 006e 5A62     		str	r2, [r3, #36]
ARM GAS  /tmp/ccxe0t7k.s 			page 90


1710:Drivers/STM32F7xx_HAL_Driver/Src/stm32f7xx_hal_rtc_ex.c **** 
 3183              		.loc 1 1710 3 view .LVU1105
1713:Drivers/STM32F7xx_HAL_Driver/Src/stm32f7xx_hal_rtc_ex.c **** 
 3184              		.loc 1 1713 3 view .LVU1106
1713:Drivers/STM32F7xx_HAL_Driver/Src/stm32f7xx_hal_rtc_ex.c **** 
 3185              		.loc 1 1713 15 is_stmt 0 view .LVU1107
 3186 0070 0123     		movs	r3, #1
 3187 0072 6377     		strb	r3, [r4, #29]
1716:Drivers/STM32F7xx_HAL_Driver/Src/stm32f7xx_hal_rtc_ex.c **** 
 3188              		.loc 1 1716 3 is_stmt 1 view .LVU1108
1716:Drivers/STM32F7xx_HAL_Driver/Src/stm32f7xx_hal_rtc_ex.c **** 
 3189              		.loc 1 1716 3 view .LVU1109
 3190 0074 0020     		movs	r0, #0
 3191 0076 2077     		strb	r0, [r4, #28]
1716:Drivers/STM32F7xx_HAL_Driver/Src/stm32f7xx_hal_rtc_ex.c **** 
 3192              		.loc 1 1716 3 view .LVU1110
1718:Drivers/STM32F7xx_HAL_Driver/Src/stm32f7xx_hal_rtc_ex.c **** }
 3193              		.loc 1 1718 3 view .LVU1111
1718:Drivers/STM32F7xx_HAL_Driver/Src/stm32f7xx_hal_rtc_ex.c **** }
 3194              		.loc 1 1718 10 is_stmt 0 view .LVU1112
 3195 0078 E9E7     		b	.L209
 3196              	.L220:
1681:Drivers/STM32F7xx_HAL_Driver/Src/stm32f7xx_hal_rtc_ex.c ****       {
 3197              		.loc 1 1681 7 is_stmt 1 view .LVU1113
1681:Drivers/STM32F7xx_HAL_Driver/Src/stm32f7xx_hal_rtc_ex.c ****       {
 3198              		.loc 1 1681 11 is_stmt 0 view .LVU1114
 3199 007a 2046     		mov	r0, r4
 3200 007c FFF7FEFF 		bl	HAL_RTC_WaitForSynchro
 3201              	.LVL215:
1681:Drivers/STM32F7xx_HAL_Driver/Src/stm32f7xx_hal_rtc_ex.c ****       {
 3202              		.loc 1 1681 10 view .LVU1115
 3203 0080 0028     		cmp	r0, #0
 3204 0082 F2D0     		beq	.L213
1684:Drivers/STM32F7xx_HAL_Driver/Src/stm32f7xx_hal_rtc_ex.c **** 
 3205              		.loc 1 1684 9 is_stmt 1 view .LVU1116
1684:Drivers/STM32F7xx_HAL_Driver/Src/stm32f7xx_hal_rtc_ex.c **** 
 3206              		.loc 1 1684 9 view .LVU1117
 3207 0084 2368     		ldr	r3, [r4]
 3208 0086 FF22     		movs	r2, #255
 3209 0088 5A62     		str	r2, [r3, #36]
1684:Drivers/STM32F7xx_HAL_Driver/Src/stm32f7xx_hal_rtc_ex.c **** 
 3210              		.loc 1 1684 9 view .LVU1118
1686:Drivers/STM32F7xx_HAL_Driver/Src/stm32f7xx_hal_rtc_ex.c **** 
 3211              		.loc 1 1686 9 view .LVU1119
1686:Drivers/STM32F7xx_HAL_Driver/Src/stm32f7xx_hal_rtc_ex.c **** 
 3212              		.loc 1 1686 21 is_stmt 0 view .LVU1120
 3213 008a 0423     		movs	r3, #4
 3214 008c 6377     		strb	r3, [r4, #29]
1689:Drivers/STM32F7xx_HAL_Driver/Src/stm32f7xx_hal_rtc_ex.c **** 
 3215              		.loc 1 1689 9 is_stmt 1 view .LVU1121
1689:Drivers/STM32F7xx_HAL_Driver/Src/stm32f7xx_hal_rtc_ex.c **** 
 3216              		.loc 1 1689 9 view .LVU1122
 3217 008e 0023     		movs	r3, #0
 3218 0090 2377     		strb	r3, [r4, #28]
1689:Drivers/STM32F7xx_HAL_Driver/Src/stm32f7xx_hal_rtc_ex.c **** 
 3219              		.loc 1 1689 9 view .LVU1123
1691:Drivers/STM32F7xx_HAL_Driver/Src/stm32f7xx_hal_rtc_ex.c ****       }
ARM GAS  /tmp/ccxe0t7k.s 			page 91


 3220              		.loc 1 1691 9 view .LVU1124
1691:Drivers/STM32F7xx_HAL_Driver/Src/stm32f7xx_hal_rtc_ex.c ****       }
 3221              		.loc 1 1691 16 is_stmt 0 view .LVU1125
 3222 0092 0120     		movs	r0, #1
 3223 0094 DBE7     		b	.L209
 3224              	.LVL216:
 3225              	.L212:
1698:Drivers/STM32F7xx_HAL_Driver/Src/stm32f7xx_hal_rtc_ex.c **** 
 3226              		.loc 1 1698 5 is_stmt 1 view .LVU1126
1698:Drivers/STM32F7xx_HAL_Driver/Src/stm32f7xx_hal_rtc_ex.c **** 
 3227              		.loc 1 1698 5 view .LVU1127
 3228 0096 FF22     		movs	r2, #255
 3229 0098 5A62     		str	r2, [r3, #36]
1698:Drivers/STM32F7xx_HAL_Driver/Src/stm32f7xx_hal_rtc_ex.c **** 
 3230              		.loc 1 1698 5 view .LVU1128
1701:Drivers/STM32F7xx_HAL_Driver/Src/stm32f7xx_hal_rtc_ex.c **** 
 3231              		.loc 1 1701 5 view .LVU1129
1701:Drivers/STM32F7xx_HAL_Driver/Src/stm32f7xx_hal_rtc_ex.c **** 
 3232              		.loc 1 1701 17 is_stmt 0 view .LVU1130
 3233 009a 0423     		movs	r3, #4
 3234 009c 6377     		strb	r3, [r4, #29]
1704:Drivers/STM32F7xx_HAL_Driver/Src/stm32f7xx_hal_rtc_ex.c **** 
 3235              		.loc 1 1704 5 is_stmt 1 view .LVU1131
1704:Drivers/STM32F7xx_HAL_Driver/Src/stm32f7xx_hal_rtc_ex.c **** 
 3236              		.loc 1 1704 5 view .LVU1132
 3237 009e 0023     		movs	r3, #0
 3238 00a0 2377     		strb	r3, [r4, #28]
1704:Drivers/STM32F7xx_HAL_Driver/Src/stm32f7xx_hal_rtc_ex.c **** 
 3239              		.loc 1 1704 5 view .LVU1133
1706:Drivers/STM32F7xx_HAL_Driver/Src/stm32f7xx_hal_rtc_ex.c ****   }
 3240              		.loc 1 1706 5 view .LVU1134
1706:Drivers/STM32F7xx_HAL_Driver/Src/stm32f7xx_hal_rtc_ex.c ****   }
 3241              		.loc 1 1706 12 is_stmt 0 view .LVU1135
 3242 00a2 0120     		movs	r0, #1
 3243 00a4 D3E7     		b	.L209
 3244              	.LVL217:
 3245              	.L214:
 3246              	.LCFI33:
 3247              		.cfi_def_cfa_offset 0
 3248              		.cfi_restore 4
 3249              		.cfi_restore 5
 3250              		.cfi_restore 6
 3251              		.cfi_restore 7
 3252              		.cfi_restore 8
 3253              		.cfi_restore 14
1645:Drivers/STM32F7xx_HAL_Driver/Src/stm32f7xx_hal_rtc_ex.c **** 
 3254              		.loc 1 1645 3 view .LVU1136
 3255 00a6 0220     		movs	r0, #2
 3256              	.LVL218:
 3257              		.loc 1 1719 1 view .LVU1137
 3258 00a8 7047     		bx	lr
 3259              		.cfi_endproc
 3260              	.LFE169:
 3262              		.section	.text.HAL_RTCEx_SetCalibrationOutPut,"ax",%progbits
 3263              		.align	1
 3264              		.global	HAL_RTCEx_SetCalibrationOutPut
 3265              		.syntax unified
ARM GAS  /tmp/ccxe0t7k.s 			page 92


 3266              		.thumb
 3267              		.thumb_func
 3269              	HAL_RTCEx_SetCalibrationOutPut:
 3270              	.LVL219:
 3271              	.LFB170:
1720:Drivers/STM32F7xx_HAL_Driver/Src/stm32f7xx_hal_rtc_ex.c **** 
1721:Drivers/STM32F7xx_HAL_Driver/Src/stm32f7xx_hal_rtc_ex.c **** /**
1722:Drivers/STM32F7xx_HAL_Driver/Src/stm32f7xx_hal_rtc_ex.c ****   * @brief  Configures the Calibration Pinout (RTC_CALIB) Selection (1Hz or 512Hz).
1723:Drivers/STM32F7xx_HAL_Driver/Src/stm32f7xx_hal_rtc_ex.c ****   * @param  hrtc pointer to a RTC_HandleTypeDef structure that contains
1724:Drivers/STM32F7xx_HAL_Driver/Src/stm32f7xx_hal_rtc_ex.c ****   *                the configuration information for RTC.
1725:Drivers/STM32F7xx_HAL_Driver/Src/stm32f7xx_hal_rtc_ex.c ****   * @param  CalibOutput Select the Calibration output Selection.
1726:Drivers/STM32F7xx_HAL_Driver/Src/stm32f7xx_hal_rtc_ex.c ****   *          This parameter can be one of the following values:
1727:Drivers/STM32F7xx_HAL_Driver/Src/stm32f7xx_hal_rtc_ex.c ****   *             @arg RTC_CALIBOUTPUT_512HZ: A signal has a regular waveform at 512Hz.
1728:Drivers/STM32F7xx_HAL_Driver/Src/stm32f7xx_hal_rtc_ex.c ****   *             @arg RTC_CALIBOUTPUT_1HZ: A signal has a regular waveform at 1Hz.
1729:Drivers/STM32F7xx_HAL_Driver/Src/stm32f7xx_hal_rtc_ex.c ****   * @retval HAL status
1730:Drivers/STM32F7xx_HAL_Driver/Src/stm32f7xx_hal_rtc_ex.c ****   */
1731:Drivers/STM32F7xx_HAL_Driver/Src/stm32f7xx_hal_rtc_ex.c **** HAL_StatusTypeDef HAL_RTCEx_SetCalibrationOutPut(RTC_HandleTypeDef *hrtc, uint32_t CalibOutput)
1732:Drivers/STM32F7xx_HAL_Driver/Src/stm32f7xx_hal_rtc_ex.c **** {
 3272              		.loc 1 1732 1 is_stmt 1 view -0
 3273              		.cfi_startproc
 3274              		@ args = 0, pretend = 0, frame = 0
 3275              		@ frame_needed = 0, uses_anonymous_args = 0
 3276              		@ link register save eliminated.
1733:Drivers/STM32F7xx_HAL_Driver/Src/stm32f7xx_hal_rtc_ex.c ****   /* Check the parameters */
1734:Drivers/STM32F7xx_HAL_Driver/Src/stm32f7xx_hal_rtc_ex.c ****   assert_param(IS_RTC_CALIB_OUTPUT(CalibOutput));
 3277              		.loc 1 1734 3 view .LVU1139
1735:Drivers/STM32F7xx_HAL_Driver/Src/stm32f7xx_hal_rtc_ex.c **** 
1736:Drivers/STM32F7xx_HAL_Driver/Src/stm32f7xx_hal_rtc_ex.c ****   /* Process Locked */
1737:Drivers/STM32F7xx_HAL_Driver/Src/stm32f7xx_hal_rtc_ex.c ****   __HAL_LOCK(hrtc);
 3278              		.loc 1 1737 3 view .LVU1140
 3279              		.loc 1 1737 3 view .LVU1141
 3280 0000 027F     		ldrb	r2, [r0, #28]	@ zero_extendqisi2
 3281 0002 012A     		cmp	r2, #1
 3282 0004 22D0     		beq	.L223
1732:Drivers/STM32F7xx_HAL_Driver/Src/stm32f7xx_hal_rtc_ex.c ****   /* Check the parameters */
 3283              		.loc 1 1732 1 is_stmt 0 discriminator 2 view .LVU1142
 3284 0006 10B4     		push	{r4}
 3285              	.LCFI34:
 3286              		.cfi_def_cfa_offset 4
 3287              		.cfi_offset 4, -4
 3288 0008 0346     		mov	r3, r0
 3289              		.loc 1 1737 3 is_stmt 1 discriminator 2 view .LVU1143
 3290 000a 0120     		movs	r0, #1
 3291              	.LVL220:
 3292              		.loc 1 1737 3 is_stmt 0 discriminator 2 view .LVU1144
 3293 000c 1877     		strb	r0, [r3, #28]
 3294              		.loc 1 1737 3 is_stmt 1 discriminator 2 view .LVU1145
1738:Drivers/STM32F7xx_HAL_Driver/Src/stm32f7xx_hal_rtc_ex.c **** 
1739:Drivers/STM32F7xx_HAL_Driver/Src/stm32f7xx_hal_rtc_ex.c ****   hrtc->State = HAL_RTC_STATE_BUSY;
 3295              		.loc 1 1739 3 discriminator 2 view .LVU1146
 3296              		.loc 1 1739 15 is_stmt 0 discriminator 2 view .LVU1147
 3297 000e 0222     		movs	r2, #2
 3298 0010 5A77     		strb	r2, [r3, #29]
1740:Drivers/STM32F7xx_HAL_Driver/Src/stm32f7xx_hal_rtc_ex.c **** 
1741:Drivers/STM32F7xx_HAL_Driver/Src/stm32f7xx_hal_rtc_ex.c ****   /* Disable the write protection for RTC registers */
1742:Drivers/STM32F7xx_HAL_Driver/Src/stm32f7xx_hal_rtc_ex.c ****   __HAL_RTC_WRITEPROTECTION_DISABLE(hrtc);
 3299              		.loc 1 1742 3 is_stmt 1 discriminator 2 view .LVU1148
ARM GAS  /tmp/ccxe0t7k.s 			page 93


 3300              		.loc 1 1742 3 discriminator 2 view .LVU1149
 3301 0012 1A68     		ldr	r2, [r3]
 3302 0014 CA24     		movs	r4, #202
 3303 0016 5462     		str	r4, [r2, #36]
 3304              		.loc 1 1742 3 discriminator 2 view .LVU1150
 3305 0018 1A68     		ldr	r2, [r3]
 3306 001a 5324     		movs	r4, #83
 3307 001c 5462     		str	r4, [r2, #36]
 3308              		.loc 1 1742 3 discriminator 2 view .LVU1151
1743:Drivers/STM32F7xx_HAL_Driver/Src/stm32f7xx_hal_rtc_ex.c **** 
1744:Drivers/STM32F7xx_HAL_Driver/Src/stm32f7xx_hal_rtc_ex.c ****   /* Clear flags before config */
1745:Drivers/STM32F7xx_HAL_Driver/Src/stm32f7xx_hal_rtc_ex.c ****   hrtc->Instance->CR &= (uint32_t)~RTC_CR_COSEL;
 3309              		.loc 1 1745 3 discriminator 2 view .LVU1152
 3310              		.loc 1 1745 7 is_stmt 0 discriminator 2 view .LVU1153
 3311 001e 1C68     		ldr	r4, [r3]
 3312              		.loc 1 1745 17 discriminator 2 view .LVU1154
 3313 0020 A268     		ldr	r2, [r4, #8]
 3314              		.loc 1 1745 22 discriminator 2 view .LVU1155
 3315 0022 22F40022 		bic	r2, r2, #524288
 3316 0026 A260     		str	r2, [r4, #8]
1746:Drivers/STM32F7xx_HAL_Driver/Src/stm32f7xx_hal_rtc_ex.c **** 
1747:Drivers/STM32F7xx_HAL_Driver/Src/stm32f7xx_hal_rtc_ex.c ****   /* Configure the RTC_CR register */
1748:Drivers/STM32F7xx_HAL_Driver/Src/stm32f7xx_hal_rtc_ex.c ****   hrtc->Instance->CR |= (uint32_t)CalibOutput;
 3317              		.loc 1 1748 3 is_stmt 1 discriminator 2 view .LVU1156
 3318              		.loc 1 1748 7 is_stmt 0 discriminator 2 view .LVU1157
 3319 0028 1C68     		ldr	r4, [r3]
 3320              		.loc 1 1748 17 discriminator 2 view .LVU1158
 3321 002a A268     		ldr	r2, [r4, #8]
 3322              		.loc 1 1748 22 discriminator 2 view .LVU1159
 3323 002c 0A43     		orrs	r2, r2, r1
 3324 002e A260     		str	r2, [r4, #8]
1749:Drivers/STM32F7xx_HAL_Driver/Src/stm32f7xx_hal_rtc_ex.c **** 
1750:Drivers/STM32F7xx_HAL_Driver/Src/stm32f7xx_hal_rtc_ex.c ****   __HAL_RTC_CALIBRATION_OUTPUT_ENABLE(hrtc);
 3325              		.loc 1 1750 3 is_stmt 1 discriminator 2 view .LVU1160
 3326 0030 1968     		ldr	r1, [r3]
 3327              	.LVL221:
 3328              		.loc 1 1750 3 is_stmt 0 discriminator 2 view .LVU1161
 3329 0032 8A68     		ldr	r2, [r1, #8]
 3330 0034 42F40002 		orr	r2, r2, #8388608
 3331 0038 8A60     		str	r2, [r1, #8]
1751:Drivers/STM32F7xx_HAL_Driver/Src/stm32f7xx_hal_rtc_ex.c **** 
1752:Drivers/STM32F7xx_HAL_Driver/Src/stm32f7xx_hal_rtc_ex.c ****   /* Enable the write protection for RTC registers */
1753:Drivers/STM32F7xx_HAL_Driver/Src/stm32f7xx_hal_rtc_ex.c ****   __HAL_RTC_WRITEPROTECTION_ENABLE(hrtc);
 3332              		.loc 1 1753 3 is_stmt 1 discriminator 2 view .LVU1162
 3333              		.loc 1 1753 3 discriminator 2 view .LVU1163
 3334 003a 1A68     		ldr	r2, [r3]
 3335 003c FF21     		movs	r1, #255
 3336 003e 5162     		str	r1, [r2, #36]
 3337              		.loc 1 1753 3 discriminator 2 view .LVU1164
1754:Drivers/STM32F7xx_HAL_Driver/Src/stm32f7xx_hal_rtc_ex.c **** 
1755:Drivers/STM32F7xx_HAL_Driver/Src/stm32f7xx_hal_rtc_ex.c ****   /* Change RTC state */
1756:Drivers/STM32F7xx_HAL_Driver/Src/stm32f7xx_hal_rtc_ex.c ****   hrtc->State = HAL_RTC_STATE_READY;
 3338              		.loc 1 1756 3 discriminator 2 view .LVU1165
 3339              		.loc 1 1756 15 is_stmt 0 discriminator 2 view .LVU1166
 3340 0040 5877     		strb	r0, [r3, #29]
1757:Drivers/STM32F7xx_HAL_Driver/Src/stm32f7xx_hal_rtc_ex.c **** 
1758:Drivers/STM32F7xx_HAL_Driver/Src/stm32f7xx_hal_rtc_ex.c ****   /* Process Unlocked */
ARM GAS  /tmp/ccxe0t7k.s 			page 94


1759:Drivers/STM32F7xx_HAL_Driver/Src/stm32f7xx_hal_rtc_ex.c ****   __HAL_UNLOCK(hrtc);
 3341              		.loc 1 1759 3 is_stmt 1 discriminator 2 view .LVU1167
 3342              		.loc 1 1759 3 discriminator 2 view .LVU1168
 3343 0042 0020     		movs	r0, #0
 3344 0044 1877     		strb	r0, [r3, #28]
 3345              		.loc 1 1759 3 discriminator 2 view .LVU1169
1760:Drivers/STM32F7xx_HAL_Driver/Src/stm32f7xx_hal_rtc_ex.c **** 
1761:Drivers/STM32F7xx_HAL_Driver/Src/stm32f7xx_hal_rtc_ex.c ****   return HAL_OK;
 3346              		.loc 1 1761 3 discriminator 2 view .LVU1170
1762:Drivers/STM32F7xx_HAL_Driver/Src/stm32f7xx_hal_rtc_ex.c **** }
 3347              		.loc 1 1762 1 is_stmt 0 discriminator 2 view .LVU1171
 3348 0046 5DF8044B 		ldr	r4, [sp], #4
 3349              	.LCFI35:
 3350              		.cfi_restore 4
 3351              		.cfi_def_cfa_offset 0
 3352 004a 7047     		bx	lr
 3353              	.LVL222:
 3354              	.L223:
1737:Drivers/STM32F7xx_HAL_Driver/Src/stm32f7xx_hal_rtc_ex.c **** 
 3355              		.loc 1 1737 3 view .LVU1172
 3356 004c 0220     		movs	r0, #2
 3357              	.LVL223:
 3358              		.loc 1 1762 1 view .LVU1173
 3359 004e 7047     		bx	lr
 3360              		.cfi_endproc
 3361              	.LFE170:
 3363              		.section	.text.HAL_RTCEx_DeactivateCalibrationOutPut,"ax",%progbits
 3364              		.align	1
 3365              		.global	HAL_RTCEx_DeactivateCalibrationOutPut
 3366              		.syntax unified
 3367              		.thumb
 3368              		.thumb_func
 3370              	HAL_RTCEx_DeactivateCalibrationOutPut:
 3371              	.LVL224:
 3372              	.LFB171:
1763:Drivers/STM32F7xx_HAL_Driver/Src/stm32f7xx_hal_rtc_ex.c **** 
1764:Drivers/STM32F7xx_HAL_Driver/Src/stm32f7xx_hal_rtc_ex.c **** /**
1765:Drivers/STM32F7xx_HAL_Driver/Src/stm32f7xx_hal_rtc_ex.c ****   * @brief  Deactivates the Calibration Pinout (RTC_CALIB) Selection (1Hz or 512Hz).
1766:Drivers/STM32F7xx_HAL_Driver/Src/stm32f7xx_hal_rtc_ex.c ****   * @param  hrtc pointer to a RTC_HandleTypeDef structure that contains
1767:Drivers/STM32F7xx_HAL_Driver/Src/stm32f7xx_hal_rtc_ex.c ****   *                the configuration information for RTC.
1768:Drivers/STM32F7xx_HAL_Driver/Src/stm32f7xx_hal_rtc_ex.c ****   * @retval HAL status
1769:Drivers/STM32F7xx_HAL_Driver/Src/stm32f7xx_hal_rtc_ex.c ****   */
1770:Drivers/STM32F7xx_HAL_Driver/Src/stm32f7xx_hal_rtc_ex.c **** HAL_StatusTypeDef HAL_RTCEx_DeactivateCalibrationOutPut(RTC_HandleTypeDef *hrtc)
1771:Drivers/STM32F7xx_HAL_Driver/Src/stm32f7xx_hal_rtc_ex.c **** {
 3373              		.loc 1 1771 1 is_stmt 1 view -0
 3374              		.cfi_startproc
 3375              		@ args = 0, pretend = 0, frame = 0
 3376              		@ frame_needed = 0, uses_anonymous_args = 0
 3377              		@ link register save eliminated.
1772:Drivers/STM32F7xx_HAL_Driver/Src/stm32f7xx_hal_rtc_ex.c ****   /* Process Locked */
1773:Drivers/STM32F7xx_HAL_Driver/Src/stm32f7xx_hal_rtc_ex.c ****   __HAL_LOCK(hrtc);
 3378              		.loc 1 1773 3 view .LVU1175
 3379              		.loc 1 1773 3 view .LVU1176
 3380 0000 037F     		ldrb	r3, [r0, #28]	@ zero_extendqisi2
 3381 0002 012B     		cmp	r3, #1
 3382 0004 16D0     		beq	.L230
 3383              		.loc 1 1773 3 discriminator 2 view .LVU1177
ARM GAS  /tmp/ccxe0t7k.s 			page 95


 3384 0006 0122     		movs	r2, #1
 3385 0008 0277     		strb	r2, [r0, #28]
 3386              		.loc 1 1773 3 discriminator 2 view .LVU1178
1774:Drivers/STM32F7xx_HAL_Driver/Src/stm32f7xx_hal_rtc_ex.c **** 
1775:Drivers/STM32F7xx_HAL_Driver/Src/stm32f7xx_hal_rtc_ex.c ****   hrtc->State = HAL_RTC_STATE_BUSY;
 3387              		.loc 1 1775 3 discriminator 2 view .LVU1179
 3388              		.loc 1 1775 15 is_stmt 0 discriminator 2 view .LVU1180
 3389 000a 0223     		movs	r3, #2
 3390 000c 4377     		strb	r3, [r0, #29]
1776:Drivers/STM32F7xx_HAL_Driver/Src/stm32f7xx_hal_rtc_ex.c **** 
1777:Drivers/STM32F7xx_HAL_Driver/Src/stm32f7xx_hal_rtc_ex.c ****   /* Disable the write protection for RTC registers */
1778:Drivers/STM32F7xx_HAL_Driver/Src/stm32f7xx_hal_rtc_ex.c ****   __HAL_RTC_WRITEPROTECTION_DISABLE(hrtc);
 3391              		.loc 1 1778 3 is_stmt 1 discriminator 2 view .LVU1181
 3392              		.loc 1 1778 3 discriminator 2 view .LVU1182
 3393 000e 0368     		ldr	r3, [r0]
 3394 0010 CA21     		movs	r1, #202
 3395 0012 5962     		str	r1, [r3, #36]
 3396              		.loc 1 1778 3 discriminator 2 view .LVU1183
 3397 0014 0368     		ldr	r3, [r0]
 3398 0016 5321     		movs	r1, #83
 3399 0018 5962     		str	r1, [r3, #36]
 3400              		.loc 1 1778 3 discriminator 2 view .LVU1184
1779:Drivers/STM32F7xx_HAL_Driver/Src/stm32f7xx_hal_rtc_ex.c **** 
1780:Drivers/STM32F7xx_HAL_Driver/Src/stm32f7xx_hal_rtc_ex.c ****   __HAL_RTC_CALIBRATION_OUTPUT_DISABLE(hrtc);
 3401              		.loc 1 1780 3 discriminator 2 view .LVU1185
 3402 001a 0168     		ldr	r1, [r0]
 3403 001c 8B68     		ldr	r3, [r1, #8]
 3404 001e 23F40003 		bic	r3, r3, #8388608
 3405 0022 8B60     		str	r3, [r1, #8]
1781:Drivers/STM32F7xx_HAL_Driver/Src/stm32f7xx_hal_rtc_ex.c **** 
1782:Drivers/STM32F7xx_HAL_Driver/Src/stm32f7xx_hal_rtc_ex.c ****   /* Enable the write protection for RTC registers */
1783:Drivers/STM32F7xx_HAL_Driver/Src/stm32f7xx_hal_rtc_ex.c ****   __HAL_RTC_WRITEPROTECTION_ENABLE(hrtc);
 3406              		.loc 1 1783 3 discriminator 2 view .LVU1186
 3407              		.loc 1 1783 3 discriminator 2 view .LVU1187
 3408 0024 0368     		ldr	r3, [r0]
 3409 0026 FF21     		movs	r1, #255
 3410 0028 5962     		str	r1, [r3, #36]
 3411              		.loc 1 1783 3 discriminator 2 view .LVU1188
1784:Drivers/STM32F7xx_HAL_Driver/Src/stm32f7xx_hal_rtc_ex.c **** 
1785:Drivers/STM32F7xx_HAL_Driver/Src/stm32f7xx_hal_rtc_ex.c ****   /* Change RTC state */
1786:Drivers/STM32F7xx_HAL_Driver/Src/stm32f7xx_hal_rtc_ex.c ****   hrtc->State = HAL_RTC_STATE_READY;
 3412              		.loc 1 1786 3 discriminator 2 view .LVU1189
 3413              		.loc 1 1786 15 is_stmt 0 discriminator 2 view .LVU1190
 3414 002a 4277     		strb	r2, [r0, #29]
1787:Drivers/STM32F7xx_HAL_Driver/Src/stm32f7xx_hal_rtc_ex.c **** 
1788:Drivers/STM32F7xx_HAL_Driver/Src/stm32f7xx_hal_rtc_ex.c ****   /* Process Unlocked */
1789:Drivers/STM32F7xx_HAL_Driver/Src/stm32f7xx_hal_rtc_ex.c ****   __HAL_UNLOCK(hrtc);
 3415              		.loc 1 1789 3 is_stmt 1 discriminator 2 view .LVU1191
 3416              		.loc 1 1789 3 discriminator 2 view .LVU1192
 3417 002c 0023     		movs	r3, #0
 3418 002e 0377     		strb	r3, [r0, #28]
 3419              		.loc 1 1789 3 discriminator 2 view .LVU1193
1790:Drivers/STM32F7xx_HAL_Driver/Src/stm32f7xx_hal_rtc_ex.c **** 
1791:Drivers/STM32F7xx_HAL_Driver/Src/stm32f7xx_hal_rtc_ex.c ****   return HAL_OK;
 3420              		.loc 1 1791 3 discriminator 2 view .LVU1194
 3421              		.loc 1 1791 10 is_stmt 0 discriminator 2 view .LVU1195
 3422 0030 1846     		mov	r0, r3
ARM GAS  /tmp/ccxe0t7k.s 			page 96


 3423              	.LVL225:
 3424              		.loc 1 1791 10 discriminator 2 view .LVU1196
 3425 0032 7047     		bx	lr
 3426              	.LVL226:
 3427              	.L230:
1773:Drivers/STM32F7xx_HAL_Driver/Src/stm32f7xx_hal_rtc_ex.c **** 
 3428              		.loc 1 1773 3 view .LVU1197
 3429 0034 0220     		movs	r0, #2
 3430              	.LVL227:
1792:Drivers/STM32F7xx_HAL_Driver/Src/stm32f7xx_hal_rtc_ex.c **** }
 3431              		.loc 1 1792 1 view .LVU1198
 3432 0036 7047     		bx	lr
 3433              		.cfi_endproc
 3434              	.LFE171:
 3436              		.section	.text.HAL_RTCEx_SetRefClock,"ax",%progbits
 3437              		.align	1
 3438              		.global	HAL_RTCEx_SetRefClock
 3439              		.syntax unified
 3440              		.thumb
 3441              		.thumb_func
 3443              	HAL_RTCEx_SetRefClock:
 3444              	.LVL228:
 3445              	.LFB172:
1793:Drivers/STM32F7xx_HAL_Driver/Src/stm32f7xx_hal_rtc_ex.c **** 
1794:Drivers/STM32F7xx_HAL_Driver/Src/stm32f7xx_hal_rtc_ex.c **** /**
1795:Drivers/STM32F7xx_HAL_Driver/Src/stm32f7xx_hal_rtc_ex.c ****   * @brief  Enables the RTC reference clock detection.
1796:Drivers/STM32F7xx_HAL_Driver/Src/stm32f7xx_hal_rtc_ex.c ****   * @param  hrtc pointer to a RTC_HandleTypeDef structure that contains
1797:Drivers/STM32F7xx_HAL_Driver/Src/stm32f7xx_hal_rtc_ex.c ****   *                the configuration information for RTC.
1798:Drivers/STM32F7xx_HAL_Driver/Src/stm32f7xx_hal_rtc_ex.c ****   * @retval HAL status
1799:Drivers/STM32F7xx_HAL_Driver/Src/stm32f7xx_hal_rtc_ex.c ****   */
1800:Drivers/STM32F7xx_HAL_Driver/Src/stm32f7xx_hal_rtc_ex.c **** HAL_StatusTypeDef HAL_RTCEx_SetRefClock(RTC_HandleTypeDef *hrtc)
1801:Drivers/STM32F7xx_HAL_Driver/Src/stm32f7xx_hal_rtc_ex.c **** {
 3446              		.loc 1 1801 1 is_stmt 1 view -0
 3447              		.cfi_startproc
 3448              		@ args = 0, pretend = 0, frame = 0
 3449              		@ frame_needed = 0, uses_anonymous_args = 0
1802:Drivers/STM32F7xx_HAL_Driver/Src/stm32f7xx_hal_rtc_ex.c ****   HAL_StatusTypeDef status;
 3450              		.loc 1 1802 3 view .LVU1200
1803:Drivers/STM32F7xx_HAL_Driver/Src/stm32f7xx_hal_rtc_ex.c **** 
1804:Drivers/STM32F7xx_HAL_Driver/Src/stm32f7xx_hal_rtc_ex.c ****   /* Process Locked */
1805:Drivers/STM32F7xx_HAL_Driver/Src/stm32f7xx_hal_rtc_ex.c ****   __HAL_LOCK(hrtc);
 3451              		.loc 1 1805 3 view .LVU1201
 3452              		.loc 1 1805 3 view .LVU1202
 3453 0000 037F     		ldrb	r3, [r0, #28]	@ zero_extendqisi2
 3454 0002 012B     		cmp	r3, #1
 3455 0004 21D0     		beq	.L234
1801:Drivers/STM32F7xx_HAL_Driver/Src/stm32f7xx_hal_rtc_ex.c ****   HAL_StatusTypeDef status;
 3456              		.loc 1 1801 1 is_stmt 0 discriminator 2 view .LVU1203
 3457 0006 10B5     		push	{r4, lr}
 3458              	.LCFI36:
 3459              		.cfi_def_cfa_offset 8
 3460              		.cfi_offset 4, -8
 3461              		.cfi_offset 14, -4
 3462 0008 0446     		mov	r4, r0
 3463              		.loc 1 1805 3 is_stmt 1 discriminator 2 view .LVU1204
 3464 000a 0123     		movs	r3, #1
 3465 000c 0377     		strb	r3, [r0, #28]
ARM GAS  /tmp/ccxe0t7k.s 			page 97


 3466              		.loc 1 1805 3 discriminator 2 view .LVU1205
1806:Drivers/STM32F7xx_HAL_Driver/Src/stm32f7xx_hal_rtc_ex.c **** 
1807:Drivers/STM32F7xx_HAL_Driver/Src/stm32f7xx_hal_rtc_ex.c ****   hrtc->State = HAL_RTC_STATE_BUSY;
 3467              		.loc 1 1807 3 discriminator 2 view .LVU1206
 3468              		.loc 1 1807 15 is_stmt 0 discriminator 2 view .LVU1207
 3469 000e 0223     		movs	r3, #2
 3470 0010 4377     		strb	r3, [r0, #29]
1808:Drivers/STM32F7xx_HAL_Driver/Src/stm32f7xx_hal_rtc_ex.c **** 
1809:Drivers/STM32F7xx_HAL_Driver/Src/stm32f7xx_hal_rtc_ex.c ****   /* Disable the write protection for RTC registers */
1810:Drivers/STM32F7xx_HAL_Driver/Src/stm32f7xx_hal_rtc_ex.c ****   __HAL_RTC_WRITEPROTECTION_DISABLE(hrtc);
 3471              		.loc 1 1810 3 is_stmt 1 discriminator 2 view .LVU1208
 3472              		.loc 1 1810 3 discriminator 2 view .LVU1209
 3473 0012 0368     		ldr	r3, [r0]
 3474 0014 CA22     		movs	r2, #202
 3475 0016 5A62     		str	r2, [r3, #36]
 3476              		.loc 1 1810 3 discriminator 2 view .LVU1210
 3477 0018 0368     		ldr	r3, [r0]
 3478 001a 5322     		movs	r2, #83
 3479 001c 5A62     		str	r2, [r3, #36]
 3480              		.loc 1 1810 3 discriminator 2 view .LVU1211
1811:Drivers/STM32F7xx_HAL_Driver/Src/stm32f7xx_hal_rtc_ex.c **** 
1812:Drivers/STM32F7xx_HAL_Driver/Src/stm32f7xx_hal_rtc_ex.c ****   /* Enter Initialization mode */
1813:Drivers/STM32F7xx_HAL_Driver/Src/stm32f7xx_hal_rtc_ex.c ****   status = RTC_EnterInitMode(hrtc);
 3481              		.loc 1 1813 3 discriminator 2 view .LVU1212
 3482              		.loc 1 1813 12 is_stmt 0 discriminator 2 view .LVU1213
 3483 001e FFF7FEFF 		bl	RTC_EnterInitMode
 3484              	.LVL229:
1814:Drivers/STM32F7xx_HAL_Driver/Src/stm32f7xx_hal_rtc_ex.c **** 
1815:Drivers/STM32F7xx_HAL_Driver/Src/stm32f7xx_hal_rtc_ex.c ****   if (status == HAL_OK)
 3485              		.loc 1 1815 3 is_stmt 1 discriminator 2 view .LVU1214
 3486              		.loc 1 1815 6 is_stmt 0 discriminator 2 view .LVU1215
 3487 0022 28B1     		cbz	r0, .L239
 3488              	.L233:
 3489              	.LVL230:
1816:Drivers/STM32F7xx_HAL_Driver/Src/stm32f7xx_hal_rtc_ex.c ****   {
1817:Drivers/STM32F7xx_HAL_Driver/Src/stm32f7xx_hal_rtc_ex.c ****     /* Enable the reference clock detection */
1818:Drivers/STM32F7xx_HAL_Driver/Src/stm32f7xx_hal_rtc_ex.c ****     __HAL_RTC_CLOCKREF_DETECTION_ENABLE(hrtc);
1819:Drivers/STM32F7xx_HAL_Driver/Src/stm32f7xx_hal_rtc_ex.c **** 
1820:Drivers/STM32F7xx_HAL_Driver/Src/stm32f7xx_hal_rtc_ex.c ****     /* Exit Initialization mode */
1821:Drivers/STM32F7xx_HAL_Driver/Src/stm32f7xx_hal_rtc_ex.c ****     status = RTC_ExitInitMode(hrtc);
1822:Drivers/STM32F7xx_HAL_Driver/Src/stm32f7xx_hal_rtc_ex.c ****   }
1823:Drivers/STM32F7xx_HAL_Driver/Src/stm32f7xx_hal_rtc_ex.c **** 
1824:Drivers/STM32F7xx_HAL_Driver/Src/stm32f7xx_hal_rtc_ex.c ****   if (status == HAL_OK)
1825:Drivers/STM32F7xx_HAL_Driver/Src/stm32f7xx_hal_rtc_ex.c ****   {
1826:Drivers/STM32F7xx_HAL_Driver/Src/stm32f7xx_hal_rtc_ex.c ****     hrtc->State = HAL_RTC_STATE_READY;
1827:Drivers/STM32F7xx_HAL_Driver/Src/stm32f7xx_hal_rtc_ex.c ****   }
1828:Drivers/STM32F7xx_HAL_Driver/Src/stm32f7xx_hal_rtc_ex.c **** 
1829:Drivers/STM32F7xx_HAL_Driver/Src/stm32f7xx_hal_rtc_ex.c ****   /* Enable the write protection for RTC registers */
1830:Drivers/STM32F7xx_HAL_Driver/Src/stm32f7xx_hal_rtc_ex.c ****   __HAL_RTC_WRITEPROTECTION_ENABLE(hrtc);
 3490              		.loc 1 1830 3 is_stmt 1 view .LVU1216
 3491              		.loc 1 1830 3 view .LVU1217
 3492 0024 2368     		ldr	r3, [r4]
 3493 0026 FF22     		movs	r2, #255
 3494 0028 5A62     		str	r2, [r3, #36]
 3495              		.loc 1 1830 3 view .LVU1218
1831:Drivers/STM32F7xx_HAL_Driver/Src/stm32f7xx_hal_rtc_ex.c **** 
1832:Drivers/STM32F7xx_HAL_Driver/Src/stm32f7xx_hal_rtc_ex.c ****   /* Process Unlocked */
ARM GAS  /tmp/ccxe0t7k.s 			page 98


1833:Drivers/STM32F7xx_HAL_Driver/Src/stm32f7xx_hal_rtc_ex.c ****   __HAL_UNLOCK(hrtc);
 3496              		.loc 1 1833 3 view .LVU1219
 3497              		.loc 1 1833 3 view .LVU1220
 3498 002a 0023     		movs	r3, #0
 3499 002c 2377     		strb	r3, [r4, #28]
 3500              		.loc 1 1833 3 view .LVU1221
1834:Drivers/STM32F7xx_HAL_Driver/Src/stm32f7xx_hal_rtc_ex.c **** 
1835:Drivers/STM32F7xx_HAL_Driver/Src/stm32f7xx_hal_rtc_ex.c ****   return status;
 3501              		.loc 1 1835 3 view .LVU1222
1836:Drivers/STM32F7xx_HAL_Driver/Src/stm32f7xx_hal_rtc_ex.c **** }
 3502              		.loc 1 1836 1 is_stmt 0 view .LVU1223
 3503 002e 10BD     		pop	{r4, pc}
 3504              	.LVL231:
 3505              	.L239:
1818:Drivers/STM32F7xx_HAL_Driver/Src/stm32f7xx_hal_rtc_ex.c **** 
 3506              		.loc 1 1818 5 is_stmt 1 view .LVU1224
 3507 0030 2268     		ldr	r2, [r4]
 3508 0032 9368     		ldr	r3, [r2, #8]
 3509 0034 43F01003 		orr	r3, r3, #16
 3510 0038 9360     		str	r3, [r2, #8]
1821:Drivers/STM32F7xx_HAL_Driver/Src/stm32f7xx_hal_rtc_ex.c ****   }
 3511              		.loc 1 1821 5 view .LVU1225
1821:Drivers/STM32F7xx_HAL_Driver/Src/stm32f7xx_hal_rtc_ex.c ****   }
 3512              		.loc 1 1821 14 is_stmt 0 view .LVU1226
 3513 003a 2046     		mov	r0, r4
 3514              	.LVL232:
1821:Drivers/STM32F7xx_HAL_Driver/Src/stm32f7xx_hal_rtc_ex.c ****   }
 3515              		.loc 1 1821 14 view .LVU1227
 3516 003c FFF7FEFF 		bl	RTC_ExitInitMode
 3517              	.LVL233:
1824:Drivers/STM32F7xx_HAL_Driver/Src/stm32f7xx_hal_rtc_ex.c ****   {
 3518              		.loc 1 1824 3 is_stmt 1 view .LVU1228
1824:Drivers/STM32F7xx_HAL_Driver/Src/stm32f7xx_hal_rtc_ex.c ****   {
 3519              		.loc 1 1824 6 is_stmt 0 view .LVU1229
 3520 0040 0028     		cmp	r0, #0
 3521 0042 EFD1     		bne	.L233
1826:Drivers/STM32F7xx_HAL_Driver/Src/stm32f7xx_hal_rtc_ex.c ****   }
 3522              		.loc 1 1826 5 is_stmt 1 view .LVU1230
1826:Drivers/STM32F7xx_HAL_Driver/Src/stm32f7xx_hal_rtc_ex.c ****   }
 3523              		.loc 1 1826 17 is_stmt 0 view .LVU1231
 3524 0044 0123     		movs	r3, #1
 3525 0046 6377     		strb	r3, [r4, #29]
 3526 0048 ECE7     		b	.L233
 3527              	.LVL234:
 3528              	.L234:
 3529              	.LCFI37:
 3530              		.cfi_def_cfa_offset 0
 3531              		.cfi_restore 4
 3532              		.cfi_restore 14
1805:Drivers/STM32F7xx_HAL_Driver/Src/stm32f7xx_hal_rtc_ex.c **** 
 3533              		.loc 1 1805 3 view .LVU1232
 3534 004a 0220     		movs	r0, #2
 3535              	.LVL235:
 3536              		.loc 1 1836 1 view .LVU1233
 3537 004c 7047     		bx	lr
 3538              		.cfi_endproc
 3539              	.LFE172:
ARM GAS  /tmp/ccxe0t7k.s 			page 99


 3541              		.section	.text.HAL_RTCEx_DeactivateRefClock,"ax",%progbits
 3542              		.align	1
 3543              		.global	HAL_RTCEx_DeactivateRefClock
 3544              		.syntax unified
 3545              		.thumb
 3546              		.thumb_func
 3548              	HAL_RTCEx_DeactivateRefClock:
 3549              	.LVL236:
 3550              	.LFB173:
1837:Drivers/STM32F7xx_HAL_Driver/Src/stm32f7xx_hal_rtc_ex.c **** 
1838:Drivers/STM32F7xx_HAL_Driver/Src/stm32f7xx_hal_rtc_ex.c **** /**
1839:Drivers/STM32F7xx_HAL_Driver/Src/stm32f7xx_hal_rtc_ex.c ****   * @brief  Disable the RTC reference clock detection.
1840:Drivers/STM32F7xx_HAL_Driver/Src/stm32f7xx_hal_rtc_ex.c ****   * @param  hrtc pointer to a RTC_HandleTypeDef structure that contains
1841:Drivers/STM32F7xx_HAL_Driver/Src/stm32f7xx_hal_rtc_ex.c ****   *                the configuration information for RTC.
1842:Drivers/STM32F7xx_HAL_Driver/Src/stm32f7xx_hal_rtc_ex.c ****   * @retval HAL status
1843:Drivers/STM32F7xx_HAL_Driver/Src/stm32f7xx_hal_rtc_ex.c ****   */
1844:Drivers/STM32F7xx_HAL_Driver/Src/stm32f7xx_hal_rtc_ex.c **** HAL_StatusTypeDef HAL_RTCEx_DeactivateRefClock(RTC_HandleTypeDef *hrtc)
1845:Drivers/STM32F7xx_HAL_Driver/Src/stm32f7xx_hal_rtc_ex.c **** {
 3551              		.loc 1 1845 1 is_stmt 1 view -0
 3552              		.cfi_startproc
 3553              		@ args = 0, pretend = 0, frame = 0
 3554              		@ frame_needed = 0, uses_anonymous_args = 0
1846:Drivers/STM32F7xx_HAL_Driver/Src/stm32f7xx_hal_rtc_ex.c ****   HAL_StatusTypeDef status;
 3555              		.loc 1 1846 3 view .LVU1235
1847:Drivers/STM32F7xx_HAL_Driver/Src/stm32f7xx_hal_rtc_ex.c **** 
1848:Drivers/STM32F7xx_HAL_Driver/Src/stm32f7xx_hal_rtc_ex.c ****   /* Process Locked */
1849:Drivers/STM32F7xx_HAL_Driver/Src/stm32f7xx_hal_rtc_ex.c ****   __HAL_LOCK(hrtc);
 3556              		.loc 1 1849 3 view .LVU1236
 3557              		.loc 1 1849 3 view .LVU1237
 3558 0000 037F     		ldrb	r3, [r0, #28]	@ zero_extendqisi2
 3559 0002 012B     		cmp	r3, #1
 3560 0004 21D0     		beq	.L243
1845:Drivers/STM32F7xx_HAL_Driver/Src/stm32f7xx_hal_rtc_ex.c ****   HAL_StatusTypeDef status;
 3561              		.loc 1 1845 1 is_stmt 0 discriminator 2 view .LVU1238
 3562 0006 10B5     		push	{r4, lr}
 3563              	.LCFI38:
 3564              		.cfi_def_cfa_offset 8
 3565              		.cfi_offset 4, -8
 3566              		.cfi_offset 14, -4
 3567 0008 0446     		mov	r4, r0
 3568              		.loc 1 1849 3 is_stmt 1 discriminator 2 view .LVU1239
 3569 000a 0123     		movs	r3, #1
 3570 000c 0377     		strb	r3, [r0, #28]
 3571              		.loc 1 1849 3 discriminator 2 view .LVU1240
1850:Drivers/STM32F7xx_HAL_Driver/Src/stm32f7xx_hal_rtc_ex.c **** 
1851:Drivers/STM32F7xx_HAL_Driver/Src/stm32f7xx_hal_rtc_ex.c ****   hrtc->State = HAL_RTC_STATE_BUSY;
 3572              		.loc 1 1851 3 discriminator 2 view .LVU1241
 3573              		.loc 1 1851 15 is_stmt 0 discriminator 2 view .LVU1242
 3574 000e 0223     		movs	r3, #2
 3575 0010 4377     		strb	r3, [r0, #29]
1852:Drivers/STM32F7xx_HAL_Driver/Src/stm32f7xx_hal_rtc_ex.c **** 
1853:Drivers/STM32F7xx_HAL_Driver/Src/stm32f7xx_hal_rtc_ex.c ****   /* Disable the write protection for RTC registers */
1854:Drivers/STM32F7xx_HAL_Driver/Src/stm32f7xx_hal_rtc_ex.c ****   __HAL_RTC_WRITEPROTECTION_DISABLE(hrtc);
 3576              		.loc 1 1854 3 is_stmt 1 discriminator 2 view .LVU1243
 3577              		.loc 1 1854 3 discriminator 2 view .LVU1244
 3578 0012 0368     		ldr	r3, [r0]
 3579 0014 CA22     		movs	r2, #202
ARM GAS  /tmp/ccxe0t7k.s 			page 100


 3580 0016 5A62     		str	r2, [r3, #36]
 3581              		.loc 1 1854 3 discriminator 2 view .LVU1245
 3582 0018 0368     		ldr	r3, [r0]
 3583 001a 5322     		movs	r2, #83
 3584 001c 5A62     		str	r2, [r3, #36]
 3585              		.loc 1 1854 3 discriminator 2 view .LVU1246
1855:Drivers/STM32F7xx_HAL_Driver/Src/stm32f7xx_hal_rtc_ex.c **** 
1856:Drivers/STM32F7xx_HAL_Driver/Src/stm32f7xx_hal_rtc_ex.c ****   /* Enter Initialization mode */
1857:Drivers/STM32F7xx_HAL_Driver/Src/stm32f7xx_hal_rtc_ex.c ****   status = RTC_EnterInitMode(hrtc);
 3586              		.loc 1 1857 3 discriminator 2 view .LVU1247
 3587              		.loc 1 1857 12 is_stmt 0 discriminator 2 view .LVU1248
 3588 001e FFF7FEFF 		bl	RTC_EnterInitMode
 3589              	.LVL237:
1858:Drivers/STM32F7xx_HAL_Driver/Src/stm32f7xx_hal_rtc_ex.c **** 
1859:Drivers/STM32F7xx_HAL_Driver/Src/stm32f7xx_hal_rtc_ex.c ****   if (status == HAL_OK)
 3590              		.loc 1 1859 3 is_stmt 1 discriminator 2 view .LVU1249
 3591              		.loc 1 1859 6 is_stmt 0 discriminator 2 view .LVU1250
 3592 0022 28B1     		cbz	r0, .L248
 3593              	.L242:
 3594              	.LVL238:
1860:Drivers/STM32F7xx_HAL_Driver/Src/stm32f7xx_hal_rtc_ex.c ****   {
1861:Drivers/STM32F7xx_HAL_Driver/Src/stm32f7xx_hal_rtc_ex.c ****     /* Disable the reference clock detection */
1862:Drivers/STM32F7xx_HAL_Driver/Src/stm32f7xx_hal_rtc_ex.c ****     __HAL_RTC_CLOCKREF_DETECTION_DISABLE(hrtc);
1863:Drivers/STM32F7xx_HAL_Driver/Src/stm32f7xx_hal_rtc_ex.c **** 
1864:Drivers/STM32F7xx_HAL_Driver/Src/stm32f7xx_hal_rtc_ex.c ****     /* Exit Initialization mode */
1865:Drivers/STM32F7xx_HAL_Driver/Src/stm32f7xx_hal_rtc_ex.c ****     status = RTC_ExitInitMode(hrtc);
1866:Drivers/STM32F7xx_HAL_Driver/Src/stm32f7xx_hal_rtc_ex.c ****   }
1867:Drivers/STM32F7xx_HAL_Driver/Src/stm32f7xx_hal_rtc_ex.c **** 
1868:Drivers/STM32F7xx_HAL_Driver/Src/stm32f7xx_hal_rtc_ex.c ****   if (status == HAL_OK)
1869:Drivers/STM32F7xx_HAL_Driver/Src/stm32f7xx_hal_rtc_ex.c ****   {
1870:Drivers/STM32F7xx_HAL_Driver/Src/stm32f7xx_hal_rtc_ex.c ****     hrtc->State = HAL_RTC_STATE_READY;
1871:Drivers/STM32F7xx_HAL_Driver/Src/stm32f7xx_hal_rtc_ex.c ****   }
1872:Drivers/STM32F7xx_HAL_Driver/Src/stm32f7xx_hal_rtc_ex.c **** 
1873:Drivers/STM32F7xx_HAL_Driver/Src/stm32f7xx_hal_rtc_ex.c ****   /* Enable the write protection for RTC registers */
1874:Drivers/STM32F7xx_HAL_Driver/Src/stm32f7xx_hal_rtc_ex.c ****   __HAL_RTC_WRITEPROTECTION_ENABLE(hrtc);
 3595              		.loc 1 1874 3 is_stmt 1 view .LVU1251
 3596              		.loc 1 1874 3 view .LVU1252
 3597 0024 2368     		ldr	r3, [r4]
 3598 0026 FF22     		movs	r2, #255
 3599 0028 5A62     		str	r2, [r3, #36]
 3600              		.loc 1 1874 3 view .LVU1253
1875:Drivers/STM32F7xx_HAL_Driver/Src/stm32f7xx_hal_rtc_ex.c **** 
1876:Drivers/STM32F7xx_HAL_Driver/Src/stm32f7xx_hal_rtc_ex.c ****   /* Process Unlocked */
1877:Drivers/STM32F7xx_HAL_Driver/Src/stm32f7xx_hal_rtc_ex.c ****   __HAL_UNLOCK(hrtc);
 3601              		.loc 1 1877 3 view .LVU1254
 3602              		.loc 1 1877 3 view .LVU1255
 3603 002a 0023     		movs	r3, #0
 3604 002c 2377     		strb	r3, [r4, #28]
 3605              		.loc 1 1877 3 view .LVU1256
1878:Drivers/STM32F7xx_HAL_Driver/Src/stm32f7xx_hal_rtc_ex.c **** 
1879:Drivers/STM32F7xx_HAL_Driver/Src/stm32f7xx_hal_rtc_ex.c ****   return status;
 3606              		.loc 1 1879 3 view .LVU1257
1880:Drivers/STM32F7xx_HAL_Driver/Src/stm32f7xx_hal_rtc_ex.c **** }
 3607              		.loc 1 1880 1 is_stmt 0 view .LVU1258
 3608 002e 10BD     		pop	{r4, pc}
 3609              	.LVL239:
 3610              	.L248:
ARM GAS  /tmp/ccxe0t7k.s 			page 101


1862:Drivers/STM32F7xx_HAL_Driver/Src/stm32f7xx_hal_rtc_ex.c **** 
 3611              		.loc 1 1862 5 is_stmt 1 view .LVU1259
 3612 0030 2268     		ldr	r2, [r4]
 3613 0032 9368     		ldr	r3, [r2, #8]
 3614 0034 23F01003 		bic	r3, r3, #16
 3615 0038 9360     		str	r3, [r2, #8]
1865:Drivers/STM32F7xx_HAL_Driver/Src/stm32f7xx_hal_rtc_ex.c ****   }
 3616              		.loc 1 1865 5 view .LVU1260
1865:Drivers/STM32F7xx_HAL_Driver/Src/stm32f7xx_hal_rtc_ex.c ****   }
 3617              		.loc 1 1865 14 is_stmt 0 view .LVU1261
 3618 003a 2046     		mov	r0, r4
 3619              	.LVL240:
1865:Drivers/STM32F7xx_HAL_Driver/Src/stm32f7xx_hal_rtc_ex.c ****   }
 3620              		.loc 1 1865 14 view .LVU1262
 3621 003c FFF7FEFF 		bl	RTC_ExitInitMode
 3622              	.LVL241:
1868:Drivers/STM32F7xx_HAL_Driver/Src/stm32f7xx_hal_rtc_ex.c ****   {
 3623              		.loc 1 1868 3 is_stmt 1 view .LVU1263
1868:Drivers/STM32F7xx_HAL_Driver/Src/stm32f7xx_hal_rtc_ex.c ****   {
 3624              		.loc 1 1868 6 is_stmt 0 view .LVU1264
 3625 0040 0028     		cmp	r0, #0
 3626 0042 EFD1     		bne	.L242
1870:Drivers/STM32F7xx_HAL_Driver/Src/stm32f7xx_hal_rtc_ex.c ****   }
 3627              		.loc 1 1870 5 is_stmt 1 view .LVU1265
1870:Drivers/STM32F7xx_HAL_Driver/Src/stm32f7xx_hal_rtc_ex.c ****   }
 3628              		.loc 1 1870 17 is_stmt 0 view .LVU1266
 3629 0044 0123     		movs	r3, #1
 3630 0046 6377     		strb	r3, [r4, #29]
 3631 0048 ECE7     		b	.L242
 3632              	.LVL242:
 3633              	.L243:
 3634              	.LCFI39:
 3635              		.cfi_def_cfa_offset 0
 3636              		.cfi_restore 4
 3637              		.cfi_restore 14
1849:Drivers/STM32F7xx_HAL_Driver/Src/stm32f7xx_hal_rtc_ex.c **** 
 3638              		.loc 1 1849 3 view .LVU1267
 3639 004a 0220     		movs	r0, #2
 3640              	.LVL243:
 3641              		.loc 1 1880 1 view .LVU1268
 3642 004c 7047     		bx	lr
 3643              		.cfi_endproc
 3644              	.LFE173:
 3646              		.section	.text.HAL_RTCEx_EnableBypassShadow,"ax",%progbits
 3647              		.align	1
 3648              		.global	HAL_RTCEx_EnableBypassShadow
 3649              		.syntax unified
 3650              		.thumb
 3651              		.thumb_func
 3653              	HAL_RTCEx_EnableBypassShadow:
 3654              	.LVL244:
 3655              	.LFB174:
1881:Drivers/STM32F7xx_HAL_Driver/Src/stm32f7xx_hal_rtc_ex.c **** 
1882:Drivers/STM32F7xx_HAL_Driver/Src/stm32f7xx_hal_rtc_ex.c **** /**
1883:Drivers/STM32F7xx_HAL_Driver/Src/stm32f7xx_hal_rtc_ex.c ****   * @brief  Enables the Bypass Shadow feature.
1884:Drivers/STM32F7xx_HAL_Driver/Src/stm32f7xx_hal_rtc_ex.c ****   * @param  hrtc pointer to a RTC_HandleTypeDef structure that contains
1885:Drivers/STM32F7xx_HAL_Driver/Src/stm32f7xx_hal_rtc_ex.c ****   *                the configuration information for RTC.
ARM GAS  /tmp/ccxe0t7k.s 			page 102


1886:Drivers/STM32F7xx_HAL_Driver/Src/stm32f7xx_hal_rtc_ex.c ****   * @note   When the Bypass Shadow is enabled the calendar value are taken
1887:Drivers/STM32F7xx_HAL_Driver/Src/stm32f7xx_hal_rtc_ex.c ****   *         directly from the Calendar counter.
1888:Drivers/STM32F7xx_HAL_Driver/Src/stm32f7xx_hal_rtc_ex.c ****   * @retval HAL status
1889:Drivers/STM32F7xx_HAL_Driver/Src/stm32f7xx_hal_rtc_ex.c ****   */
1890:Drivers/STM32F7xx_HAL_Driver/Src/stm32f7xx_hal_rtc_ex.c **** HAL_StatusTypeDef HAL_RTCEx_EnableBypassShadow(RTC_HandleTypeDef *hrtc)
1891:Drivers/STM32F7xx_HAL_Driver/Src/stm32f7xx_hal_rtc_ex.c **** {
 3656              		.loc 1 1891 1 is_stmt 1 view -0
 3657              		.cfi_startproc
 3658              		@ args = 0, pretend = 0, frame = 0
 3659              		@ frame_needed = 0, uses_anonymous_args = 0
 3660              		@ link register save eliminated.
1892:Drivers/STM32F7xx_HAL_Driver/Src/stm32f7xx_hal_rtc_ex.c ****   /* Process Locked */
1893:Drivers/STM32F7xx_HAL_Driver/Src/stm32f7xx_hal_rtc_ex.c ****   __HAL_LOCK(hrtc);
 3661              		.loc 1 1893 3 view .LVU1270
 3662              		.loc 1 1893 3 view .LVU1271
 3663 0000 037F     		ldrb	r3, [r0, #28]	@ zero_extendqisi2
 3664 0002 012B     		cmp	r3, #1
 3665 0004 16D0     		beq	.L251
 3666              		.loc 1 1893 3 discriminator 2 view .LVU1272
 3667 0006 0122     		movs	r2, #1
 3668 0008 0277     		strb	r2, [r0, #28]
 3669              		.loc 1 1893 3 discriminator 2 view .LVU1273
1894:Drivers/STM32F7xx_HAL_Driver/Src/stm32f7xx_hal_rtc_ex.c **** 
1895:Drivers/STM32F7xx_HAL_Driver/Src/stm32f7xx_hal_rtc_ex.c ****   hrtc->State = HAL_RTC_STATE_BUSY;
 3670              		.loc 1 1895 3 discriminator 2 view .LVU1274
 3671              		.loc 1 1895 15 is_stmt 0 discriminator 2 view .LVU1275
 3672 000a 0223     		movs	r3, #2
 3673 000c 4377     		strb	r3, [r0, #29]
1896:Drivers/STM32F7xx_HAL_Driver/Src/stm32f7xx_hal_rtc_ex.c **** 
1897:Drivers/STM32F7xx_HAL_Driver/Src/stm32f7xx_hal_rtc_ex.c ****   /* Disable the write protection for RTC registers */
1898:Drivers/STM32F7xx_HAL_Driver/Src/stm32f7xx_hal_rtc_ex.c ****   __HAL_RTC_WRITEPROTECTION_DISABLE(hrtc);
 3674              		.loc 1 1898 3 is_stmt 1 discriminator 2 view .LVU1276
 3675              		.loc 1 1898 3 discriminator 2 view .LVU1277
 3676 000e 0368     		ldr	r3, [r0]
 3677 0010 CA21     		movs	r1, #202
 3678 0012 5962     		str	r1, [r3, #36]
 3679              		.loc 1 1898 3 discriminator 2 view .LVU1278
 3680 0014 0368     		ldr	r3, [r0]
 3681 0016 5321     		movs	r1, #83
 3682 0018 5962     		str	r1, [r3, #36]
 3683              		.loc 1 1898 3 discriminator 2 view .LVU1279
1899:Drivers/STM32F7xx_HAL_Driver/Src/stm32f7xx_hal_rtc_ex.c **** 
1900:Drivers/STM32F7xx_HAL_Driver/Src/stm32f7xx_hal_rtc_ex.c ****   /* Set the BYPSHAD bit */
1901:Drivers/STM32F7xx_HAL_Driver/Src/stm32f7xx_hal_rtc_ex.c ****   hrtc->Instance->CR |= (uint8_t)RTC_CR_BYPSHAD;
 3684              		.loc 1 1901 3 discriminator 2 view .LVU1280
 3685              		.loc 1 1901 7 is_stmt 0 discriminator 2 view .LVU1281
 3686 001a 0168     		ldr	r1, [r0]
 3687              		.loc 1 1901 17 discriminator 2 view .LVU1282
 3688 001c 8B68     		ldr	r3, [r1, #8]
 3689              		.loc 1 1901 22 discriminator 2 view .LVU1283
 3690 001e 43F02003 		orr	r3, r3, #32
 3691 0022 8B60     		str	r3, [r1, #8]
1902:Drivers/STM32F7xx_HAL_Driver/Src/stm32f7xx_hal_rtc_ex.c **** 
1903:Drivers/STM32F7xx_HAL_Driver/Src/stm32f7xx_hal_rtc_ex.c ****   /* Enable the write protection for RTC registers */
1904:Drivers/STM32F7xx_HAL_Driver/Src/stm32f7xx_hal_rtc_ex.c ****   __HAL_RTC_WRITEPROTECTION_ENABLE(hrtc);
 3692              		.loc 1 1904 3 is_stmt 1 discriminator 2 view .LVU1284
 3693              		.loc 1 1904 3 discriminator 2 view .LVU1285
ARM GAS  /tmp/ccxe0t7k.s 			page 103


 3694 0024 0368     		ldr	r3, [r0]
 3695 0026 FF21     		movs	r1, #255
 3696 0028 5962     		str	r1, [r3, #36]
 3697              		.loc 1 1904 3 discriminator 2 view .LVU1286
1905:Drivers/STM32F7xx_HAL_Driver/Src/stm32f7xx_hal_rtc_ex.c **** 
1906:Drivers/STM32F7xx_HAL_Driver/Src/stm32f7xx_hal_rtc_ex.c ****   /* Change RTC state */
1907:Drivers/STM32F7xx_HAL_Driver/Src/stm32f7xx_hal_rtc_ex.c ****   hrtc->State = HAL_RTC_STATE_READY;
 3698              		.loc 1 1907 3 discriminator 2 view .LVU1287
 3699              		.loc 1 1907 15 is_stmt 0 discriminator 2 view .LVU1288
 3700 002a 4277     		strb	r2, [r0, #29]
1908:Drivers/STM32F7xx_HAL_Driver/Src/stm32f7xx_hal_rtc_ex.c **** 
1909:Drivers/STM32F7xx_HAL_Driver/Src/stm32f7xx_hal_rtc_ex.c ****   /* Process Unlocked */
1910:Drivers/STM32F7xx_HAL_Driver/Src/stm32f7xx_hal_rtc_ex.c ****   __HAL_UNLOCK(hrtc);
 3701              		.loc 1 1910 3 is_stmt 1 discriminator 2 view .LVU1289
 3702              		.loc 1 1910 3 discriminator 2 view .LVU1290
 3703 002c 0023     		movs	r3, #0
 3704 002e 0377     		strb	r3, [r0, #28]
 3705              		.loc 1 1910 3 discriminator 2 view .LVU1291
1911:Drivers/STM32F7xx_HAL_Driver/Src/stm32f7xx_hal_rtc_ex.c **** 
1912:Drivers/STM32F7xx_HAL_Driver/Src/stm32f7xx_hal_rtc_ex.c ****   return HAL_OK;
 3706              		.loc 1 1912 3 discriminator 2 view .LVU1292
 3707              		.loc 1 1912 10 is_stmt 0 discriminator 2 view .LVU1293
 3708 0030 1846     		mov	r0, r3
 3709              	.LVL245:
 3710              		.loc 1 1912 10 discriminator 2 view .LVU1294
 3711 0032 7047     		bx	lr
 3712              	.LVL246:
 3713              	.L251:
1893:Drivers/STM32F7xx_HAL_Driver/Src/stm32f7xx_hal_rtc_ex.c **** 
 3714              		.loc 1 1893 3 view .LVU1295
 3715 0034 0220     		movs	r0, #2
 3716              	.LVL247:
1913:Drivers/STM32F7xx_HAL_Driver/Src/stm32f7xx_hal_rtc_ex.c **** }
 3717              		.loc 1 1913 1 view .LVU1296
 3718 0036 7047     		bx	lr
 3719              		.cfi_endproc
 3720              	.LFE174:
 3722              		.section	.text.HAL_RTCEx_DisableBypassShadow,"ax",%progbits
 3723              		.align	1
 3724              		.global	HAL_RTCEx_DisableBypassShadow
 3725              		.syntax unified
 3726              		.thumb
 3727              		.thumb_func
 3729              	HAL_RTCEx_DisableBypassShadow:
 3730              	.LVL248:
 3731              	.LFB175:
1914:Drivers/STM32F7xx_HAL_Driver/Src/stm32f7xx_hal_rtc_ex.c **** 
1915:Drivers/STM32F7xx_HAL_Driver/Src/stm32f7xx_hal_rtc_ex.c **** /**
1916:Drivers/STM32F7xx_HAL_Driver/Src/stm32f7xx_hal_rtc_ex.c ****   * @brief  Disables the Bypass Shadow feature.
1917:Drivers/STM32F7xx_HAL_Driver/Src/stm32f7xx_hal_rtc_ex.c ****   * @param  hrtc pointer to a RTC_HandleTypeDef structure that contains
1918:Drivers/STM32F7xx_HAL_Driver/Src/stm32f7xx_hal_rtc_ex.c ****   *                the configuration information for RTC.
1919:Drivers/STM32F7xx_HAL_Driver/Src/stm32f7xx_hal_rtc_ex.c ****   * @note   When the Bypass Shadow is enabled the calendar value are taken
1920:Drivers/STM32F7xx_HAL_Driver/Src/stm32f7xx_hal_rtc_ex.c ****   *         directly from the Calendar counter.
1921:Drivers/STM32F7xx_HAL_Driver/Src/stm32f7xx_hal_rtc_ex.c ****   * @retval HAL status
1922:Drivers/STM32F7xx_HAL_Driver/Src/stm32f7xx_hal_rtc_ex.c ****   */
1923:Drivers/STM32F7xx_HAL_Driver/Src/stm32f7xx_hal_rtc_ex.c **** HAL_StatusTypeDef HAL_RTCEx_DisableBypassShadow(RTC_HandleTypeDef *hrtc)
1924:Drivers/STM32F7xx_HAL_Driver/Src/stm32f7xx_hal_rtc_ex.c **** {
ARM GAS  /tmp/ccxe0t7k.s 			page 104


 3732              		.loc 1 1924 1 is_stmt 1 view -0
 3733              		.cfi_startproc
 3734              		@ args = 0, pretend = 0, frame = 0
 3735              		@ frame_needed = 0, uses_anonymous_args = 0
 3736              		@ link register save eliminated.
1925:Drivers/STM32F7xx_HAL_Driver/Src/stm32f7xx_hal_rtc_ex.c ****   /* Process Locked */
1926:Drivers/STM32F7xx_HAL_Driver/Src/stm32f7xx_hal_rtc_ex.c ****   __HAL_LOCK(hrtc);
 3737              		.loc 1 1926 3 view .LVU1298
 3738              		.loc 1 1926 3 view .LVU1299
 3739 0000 037F     		ldrb	r3, [r0, #28]	@ zero_extendqisi2
 3740 0002 012B     		cmp	r3, #1
 3741 0004 16D0     		beq	.L254
 3742              		.loc 1 1926 3 discriminator 2 view .LVU1300
 3743 0006 0122     		movs	r2, #1
 3744 0008 0277     		strb	r2, [r0, #28]
 3745              		.loc 1 1926 3 discriminator 2 view .LVU1301
1927:Drivers/STM32F7xx_HAL_Driver/Src/stm32f7xx_hal_rtc_ex.c **** 
1928:Drivers/STM32F7xx_HAL_Driver/Src/stm32f7xx_hal_rtc_ex.c ****   hrtc->State = HAL_RTC_STATE_BUSY;
 3746              		.loc 1 1928 3 discriminator 2 view .LVU1302
 3747              		.loc 1 1928 15 is_stmt 0 discriminator 2 view .LVU1303
 3748 000a 0223     		movs	r3, #2
 3749 000c 4377     		strb	r3, [r0, #29]
1929:Drivers/STM32F7xx_HAL_Driver/Src/stm32f7xx_hal_rtc_ex.c **** 
1930:Drivers/STM32F7xx_HAL_Driver/Src/stm32f7xx_hal_rtc_ex.c ****   /* Disable the write protection for RTC registers */
1931:Drivers/STM32F7xx_HAL_Driver/Src/stm32f7xx_hal_rtc_ex.c ****   __HAL_RTC_WRITEPROTECTION_DISABLE(hrtc);
 3750              		.loc 1 1931 3 is_stmt 1 discriminator 2 view .LVU1304
 3751              		.loc 1 1931 3 discriminator 2 view .LVU1305
 3752 000e 0368     		ldr	r3, [r0]
 3753 0010 CA21     		movs	r1, #202
 3754 0012 5962     		str	r1, [r3, #36]
 3755              		.loc 1 1931 3 discriminator 2 view .LVU1306
 3756 0014 0368     		ldr	r3, [r0]
 3757 0016 5321     		movs	r1, #83
 3758 0018 5962     		str	r1, [r3, #36]
 3759              		.loc 1 1931 3 discriminator 2 view .LVU1307
1932:Drivers/STM32F7xx_HAL_Driver/Src/stm32f7xx_hal_rtc_ex.c **** 
1933:Drivers/STM32F7xx_HAL_Driver/Src/stm32f7xx_hal_rtc_ex.c ****   /* Reset the BYPSHAD bit */
1934:Drivers/STM32F7xx_HAL_Driver/Src/stm32f7xx_hal_rtc_ex.c ****   hrtc->Instance->CR &= (uint8_t)~RTC_CR_BYPSHAD;
 3760              		.loc 1 1934 3 discriminator 2 view .LVU1308
 3761              		.loc 1 1934 7 is_stmt 0 discriminator 2 view .LVU1309
 3762 001a 0168     		ldr	r1, [r0]
 3763              		.loc 1 1934 17 discriminator 2 view .LVU1310
 3764 001c 8B68     		ldr	r3, [r1, #8]
 3765              		.loc 1 1934 22 discriminator 2 view .LVU1311
 3766 001e 03F0DF03 		and	r3, r3, #223
 3767 0022 8B60     		str	r3, [r1, #8]
1935:Drivers/STM32F7xx_HAL_Driver/Src/stm32f7xx_hal_rtc_ex.c **** 
1936:Drivers/STM32F7xx_HAL_Driver/Src/stm32f7xx_hal_rtc_ex.c ****   /* Enable the write protection for RTC registers */
1937:Drivers/STM32F7xx_HAL_Driver/Src/stm32f7xx_hal_rtc_ex.c ****   __HAL_RTC_WRITEPROTECTION_ENABLE(hrtc);
 3768              		.loc 1 1937 3 is_stmt 1 discriminator 2 view .LVU1312
 3769              		.loc 1 1937 3 discriminator 2 view .LVU1313
 3770 0024 0368     		ldr	r3, [r0]
 3771 0026 FF21     		movs	r1, #255
 3772 0028 5962     		str	r1, [r3, #36]
 3773              		.loc 1 1937 3 discriminator 2 view .LVU1314
1938:Drivers/STM32F7xx_HAL_Driver/Src/stm32f7xx_hal_rtc_ex.c **** 
1939:Drivers/STM32F7xx_HAL_Driver/Src/stm32f7xx_hal_rtc_ex.c ****   /* Change RTC state */
ARM GAS  /tmp/ccxe0t7k.s 			page 105


1940:Drivers/STM32F7xx_HAL_Driver/Src/stm32f7xx_hal_rtc_ex.c ****   hrtc->State = HAL_RTC_STATE_READY;
 3774              		.loc 1 1940 3 discriminator 2 view .LVU1315
 3775              		.loc 1 1940 15 is_stmt 0 discriminator 2 view .LVU1316
 3776 002a 4277     		strb	r2, [r0, #29]
1941:Drivers/STM32F7xx_HAL_Driver/Src/stm32f7xx_hal_rtc_ex.c **** 
1942:Drivers/STM32F7xx_HAL_Driver/Src/stm32f7xx_hal_rtc_ex.c ****   /* Process Unlocked */
1943:Drivers/STM32F7xx_HAL_Driver/Src/stm32f7xx_hal_rtc_ex.c ****   __HAL_UNLOCK(hrtc);
 3777              		.loc 1 1943 3 is_stmt 1 discriminator 2 view .LVU1317
 3778              		.loc 1 1943 3 discriminator 2 view .LVU1318
 3779 002c 0023     		movs	r3, #0
 3780 002e 0377     		strb	r3, [r0, #28]
 3781              		.loc 1 1943 3 discriminator 2 view .LVU1319
1944:Drivers/STM32F7xx_HAL_Driver/Src/stm32f7xx_hal_rtc_ex.c **** 
1945:Drivers/STM32F7xx_HAL_Driver/Src/stm32f7xx_hal_rtc_ex.c ****   return HAL_OK;
 3782              		.loc 1 1945 3 discriminator 2 view .LVU1320
 3783              		.loc 1 1945 10 is_stmt 0 discriminator 2 view .LVU1321
 3784 0030 1846     		mov	r0, r3
 3785              	.LVL249:
 3786              		.loc 1 1945 10 discriminator 2 view .LVU1322
 3787 0032 7047     		bx	lr
 3788              	.LVL250:
 3789              	.L254:
1926:Drivers/STM32F7xx_HAL_Driver/Src/stm32f7xx_hal_rtc_ex.c **** 
 3790              		.loc 1 1926 3 view .LVU1323
 3791 0034 0220     		movs	r0, #2
 3792              	.LVL251:
1946:Drivers/STM32F7xx_HAL_Driver/Src/stm32f7xx_hal_rtc_ex.c **** }
 3793              		.loc 1 1946 1 view .LVU1324
 3794 0036 7047     		bx	lr
 3795              		.cfi_endproc
 3796              	.LFE175:
 3798              		.section	.text.HAL_RTCEx_AlarmBEventCallback,"ax",%progbits
 3799              		.align	1
 3800              		.weak	HAL_RTCEx_AlarmBEventCallback
 3801              		.syntax unified
 3802              		.thumb
 3803              		.thumb_func
 3805              	HAL_RTCEx_AlarmBEventCallback:
 3806              	.LVL252:
 3807              	.LFB176:
1947:Drivers/STM32F7xx_HAL_Driver/Src/stm32f7xx_hal_rtc_ex.c **** 
1948:Drivers/STM32F7xx_HAL_Driver/Src/stm32f7xx_hal_rtc_ex.c **** /**
1949:Drivers/STM32F7xx_HAL_Driver/Src/stm32f7xx_hal_rtc_ex.c ****   * @}
1950:Drivers/STM32F7xx_HAL_Driver/Src/stm32f7xx_hal_rtc_ex.c ****   */
1951:Drivers/STM32F7xx_HAL_Driver/Src/stm32f7xx_hal_rtc_ex.c **** 
1952:Drivers/STM32F7xx_HAL_Driver/Src/stm32f7xx_hal_rtc_ex.c **** /** @defgroup RTCEx_Exported_Functions_Group4 Extended features functions
1953:Drivers/STM32F7xx_HAL_Driver/Src/stm32f7xx_hal_rtc_ex.c ****   * @brief    Extended features functions
1954:Drivers/STM32F7xx_HAL_Driver/Src/stm32f7xx_hal_rtc_ex.c ****   *
1955:Drivers/STM32F7xx_HAL_Driver/Src/stm32f7xx_hal_rtc_ex.c **** @verbatim
1956:Drivers/STM32F7xx_HAL_Driver/Src/stm32f7xx_hal_rtc_ex.c ****  ===============================================================================
1957:Drivers/STM32F7xx_HAL_Driver/Src/stm32f7xx_hal_rtc_ex.c ****                  ##### Extended features functions #####
1958:Drivers/STM32F7xx_HAL_Driver/Src/stm32f7xx_hal_rtc_ex.c ****  ===============================================================================
1959:Drivers/STM32F7xx_HAL_Driver/Src/stm32f7xx_hal_rtc_ex.c ****     [..]  This section provides functions allowing to:
1960:Drivers/STM32F7xx_HAL_Driver/Src/stm32f7xx_hal_rtc_ex.c ****       (+) RTC Alarm B callback
1961:Drivers/STM32F7xx_HAL_Driver/Src/stm32f7xx_hal_rtc_ex.c ****       (+) RTC Poll for Alarm B request
1962:Drivers/STM32F7xx_HAL_Driver/Src/stm32f7xx_hal_rtc_ex.c **** 
1963:Drivers/STM32F7xx_HAL_Driver/Src/stm32f7xx_hal_rtc_ex.c **** @endverbatim
ARM GAS  /tmp/ccxe0t7k.s 			page 106


1964:Drivers/STM32F7xx_HAL_Driver/Src/stm32f7xx_hal_rtc_ex.c ****   * @{
1965:Drivers/STM32F7xx_HAL_Driver/Src/stm32f7xx_hal_rtc_ex.c ****   */
1966:Drivers/STM32F7xx_HAL_Driver/Src/stm32f7xx_hal_rtc_ex.c **** 
1967:Drivers/STM32F7xx_HAL_Driver/Src/stm32f7xx_hal_rtc_ex.c **** /**
1968:Drivers/STM32F7xx_HAL_Driver/Src/stm32f7xx_hal_rtc_ex.c ****   * @brief  Alarm B callback.
1969:Drivers/STM32F7xx_HAL_Driver/Src/stm32f7xx_hal_rtc_ex.c ****   * @param  hrtc pointer to a RTC_HandleTypeDef structure that contains
1970:Drivers/STM32F7xx_HAL_Driver/Src/stm32f7xx_hal_rtc_ex.c ****   *                the configuration information for RTC.
1971:Drivers/STM32F7xx_HAL_Driver/Src/stm32f7xx_hal_rtc_ex.c ****   * @retval None
1972:Drivers/STM32F7xx_HAL_Driver/Src/stm32f7xx_hal_rtc_ex.c ****   */
1973:Drivers/STM32F7xx_HAL_Driver/Src/stm32f7xx_hal_rtc_ex.c **** __weak void HAL_RTCEx_AlarmBEventCallback(RTC_HandleTypeDef *hrtc)
1974:Drivers/STM32F7xx_HAL_Driver/Src/stm32f7xx_hal_rtc_ex.c **** {
 3808              		.loc 1 1974 1 is_stmt 1 view -0
 3809              		.cfi_startproc
 3810              		@ args = 0, pretend = 0, frame = 0
 3811              		@ frame_needed = 0, uses_anonymous_args = 0
 3812              		@ link register save eliminated.
1975:Drivers/STM32F7xx_HAL_Driver/Src/stm32f7xx_hal_rtc_ex.c ****   /* Prevent unused argument(s) compilation warning */
1976:Drivers/STM32F7xx_HAL_Driver/Src/stm32f7xx_hal_rtc_ex.c ****   UNUSED(hrtc);
 3813              		.loc 1 1976 3 view .LVU1326
1977:Drivers/STM32F7xx_HAL_Driver/Src/stm32f7xx_hal_rtc_ex.c **** 
1978:Drivers/STM32F7xx_HAL_Driver/Src/stm32f7xx_hal_rtc_ex.c ****   /* NOTE: This function should not be modified, when the callback is needed,
1979:Drivers/STM32F7xx_HAL_Driver/Src/stm32f7xx_hal_rtc_ex.c ****            the HAL_RTCEx_AlarmBEventCallback could be implemented in the user file
1980:Drivers/STM32F7xx_HAL_Driver/Src/stm32f7xx_hal_rtc_ex.c ****    */
1981:Drivers/STM32F7xx_HAL_Driver/Src/stm32f7xx_hal_rtc_ex.c **** }
 3814              		.loc 1 1981 1 is_stmt 0 view .LVU1327
 3815 0000 7047     		bx	lr
 3816              		.cfi_endproc
 3817              	.LFE176:
 3819              		.section	.text.HAL_RTCEx_PollForAlarmBEvent,"ax",%progbits
 3820              		.align	1
 3821              		.global	HAL_RTCEx_PollForAlarmBEvent
 3822              		.syntax unified
 3823              		.thumb
 3824              		.thumb_func
 3826              	HAL_RTCEx_PollForAlarmBEvent:
 3827              	.LVL253:
 3828              	.LFB177:
1982:Drivers/STM32F7xx_HAL_Driver/Src/stm32f7xx_hal_rtc_ex.c **** 
1983:Drivers/STM32F7xx_HAL_Driver/Src/stm32f7xx_hal_rtc_ex.c **** /**
1984:Drivers/STM32F7xx_HAL_Driver/Src/stm32f7xx_hal_rtc_ex.c ****   * @brief  Handles Alarm B Polling request.
1985:Drivers/STM32F7xx_HAL_Driver/Src/stm32f7xx_hal_rtc_ex.c ****   * @param  hrtc pointer to a RTC_HandleTypeDef structure that contains
1986:Drivers/STM32F7xx_HAL_Driver/Src/stm32f7xx_hal_rtc_ex.c ****   *                the configuration information for RTC.
1987:Drivers/STM32F7xx_HAL_Driver/Src/stm32f7xx_hal_rtc_ex.c ****   * @param  Timeout Timeout duration
1988:Drivers/STM32F7xx_HAL_Driver/Src/stm32f7xx_hal_rtc_ex.c ****   * @retval HAL status
1989:Drivers/STM32F7xx_HAL_Driver/Src/stm32f7xx_hal_rtc_ex.c ****   */
1990:Drivers/STM32F7xx_HAL_Driver/Src/stm32f7xx_hal_rtc_ex.c **** HAL_StatusTypeDef HAL_RTCEx_PollForAlarmBEvent(RTC_HandleTypeDef *hrtc, uint32_t Timeout)
1991:Drivers/STM32F7xx_HAL_Driver/Src/stm32f7xx_hal_rtc_ex.c **** {
 3829              		.loc 1 1991 1 is_stmt 1 view -0
 3830              		.cfi_startproc
 3831              		@ args = 0, pretend = 0, frame = 0
 3832              		@ frame_needed = 0, uses_anonymous_args = 0
 3833              		.loc 1 1991 1 is_stmt 0 view .LVU1329
 3834 0000 70B5     		push	{r4, r5, r6, lr}
 3835              	.LCFI40:
 3836              		.cfi_def_cfa_offset 16
 3837              		.cfi_offset 4, -16
 3838              		.cfi_offset 5, -12
ARM GAS  /tmp/ccxe0t7k.s 			page 107


 3839              		.cfi_offset 6, -8
 3840              		.cfi_offset 14, -4
 3841 0002 0446     		mov	r4, r0
 3842 0004 0D46     		mov	r5, r1
1992:Drivers/STM32F7xx_HAL_Driver/Src/stm32f7xx_hal_rtc_ex.c ****   uint32_t tickstart = 0U;
 3843              		.loc 1 1992 3 is_stmt 1 view .LVU1330
 3844              	.LVL254:
1993:Drivers/STM32F7xx_HAL_Driver/Src/stm32f7xx_hal_rtc_ex.c **** 
1994:Drivers/STM32F7xx_HAL_Driver/Src/stm32f7xx_hal_rtc_ex.c ****   /* Get tick */
1995:Drivers/STM32F7xx_HAL_Driver/Src/stm32f7xx_hal_rtc_ex.c ****   tickstart = HAL_GetTick();
 3845              		.loc 1 1995 3 view .LVU1331
 3846              		.loc 1 1995 15 is_stmt 0 view .LVU1332
 3847 0006 FFF7FEFF 		bl	HAL_GetTick
 3848              	.LVL255:
 3849              		.loc 1 1995 15 view .LVU1333
 3850 000a 0646     		mov	r6, r0
 3851              	.LVL256:
1996:Drivers/STM32F7xx_HAL_Driver/Src/stm32f7xx_hal_rtc_ex.c **** 
1997:Drivers/STM32F7xx_HAL_Driver/Src/stm32f7xx_hal_rtc_ex.c ****   /* Wait till RTC ALRBF flag is set and if timeout is reached exit */
1998:Drivers/STM32F7xx_HAL_Driver/Src/stm32f7xx_hal_rtc_ex.c ****   while (__HAL_RTC_ALARM_GET_FLAG(hrtc, RTC_FLAG_ALRBF) == 0U)
 3852              		.loc 1 1998 3 is_stmt 1 view .LVU1334
 3853              	.L258:
 3854              		.loc 1 1998 57 view .LVU1335
 3855              		.loc 1 1998 10 is_stmt 0 view .LVU1336
 3856 000c 2368     		ldr	r3, [r4]
 3857 000e DA68     		ldr	r2, [r3, #12]
 3858              		.loc 1 1998 57 view .LVU1337
 3859 0010 12F4007F 		tst	r2, #512
 3860 0014 0BD1     		bne	.L263
1999:Drivers/STM32F7xx_HAL_Driver/Src/stm32f7xx_hal_rtc_ex.c ****   {
2000:Drivers/STM32F7xx_HAL_Driver/Src/stm32f7xx_hal_rtc_ex.c ****     if (Timeout != HAL_MAX_DELAY)
 3861              		.loc 1 2000 5 is_stmt 1 view .LVU1338
 3862              		.loc 1 2000 8 is_stmt 0 view .LVU1339
 3863 0016 B5F1FF3F 		cmp	r5, #-1
 3864 001a F7D0     		beq	.L258
2001:Drivers/STM32F7xx_HAL_Driver/Src/stm32f7xx_hal_rtc_ex.c ****     {
2002:Drivers/STM32F7xx_HAL_Driver/Src/stm32f7xx_hal_rtc_ex.c ****       if ((Timeout == 0U) || ((HAL_GetTick() - tickstart) > Timeout))
 3865              		.loc 1 2002 7 is_stmt 1 view .LVU1340
 3866              		.loc 1 2002 10 is_stmt 0 view .LVU1341
 3867 001c 25B1     		cbz	r5, .L259
 3868              		.loc 1 2002 32 discriminator 1 view .LVU1342
 3869 001e FFF7FEFF 		bl	HAL_GetTick
 3870              	.LVL257:
 3871              		.loc 1 2002 46 discriminator 1 view .LVU1343
 3872 0022 801B     		subs	r0, r0, r6
 3873              		.loc 1 2002 27 discriminator 1 view .LVU1344
 3874 0024 A842     		cmp	r0, r5
 3875 0026 F1D9     		bls	.L258
 3876              	.L259:
2003:Drivers/STM32F7xx_HAL_Driver/Src/stm32f7xx_hal_rtc_ex.c ****       {
2004:Drivers/STM32F7xx_HAL_Driver/Src/stm32f7xx_hal_rtc_ex.c ****         hrtc->State = HAL_RTC_STATE_TIMEOUT;
 3877              		.loc 1 2004 9 is_stmt 1 view .LVU1345
 3878              		.loc 1 2004 21 is_stmt 0 view .LVU1346
 3879 0028 0320     		movs	r0, #3
 3880 002a 6077     		strb	r0, [r4, #29]
2005:Drivers/STM32F7xx_HAL_Driver/Src/stm32f7xx_hal_rtc_ex.c ****         return HAL_TIMEOUT;
 3881              		.loc 1 2005 9 is_stmt 1 view .LVU1347
ARM GAS  /tmp/ccxe0t7k.s 			page 108


 3882              		.loc 1 2005 16 is_stmt 0 view .LVU1348
 3883 002c 07E0     		b	.L260
 3884              	.L263:
2006:Drivers/STM32F7xx_HAL_Driver/Src/stm32f7xx_hal_rtc_ex.c ****       }
2007:Drivers/STM32F7xx_HAL_Driver/Src/stm32f7xx_hal_rtc_ex.c ****     }
2008:Drivers/STM32F7xx_HAL_Driver/Src/stm32f7xx_hal_rtc_ex.c ****   }
2009:Drivers/STM32F7xx_HAL_Driver/Src/stm32f7xx_hal_rtc_ex.c **** 
2010:Drivers/STM32F7xx_HAL_Driver/Src/stm32f7xx_hal_rtc_ex.c ****   /* Clear the Alarm flag */
2011:Drivers/STM32F7xx_HAL_Driver/Src/stm32f7xx_hal_rtc_ex.c ****   __HAL_RTC_ALARM_CLEAR_FLAG(hrtc, RTC_FLAG_ALRBF);
 3885              		.loc 1 2011 3 is_stmt 1 view .LVU1349
 3886 002e DA68     		ldr	r2, [r3, #12]
 3887 0030 D2B2     		uxtb	r2, r2
 3888 0032 62F42072 		orn	r2, r2, #640
 3889 0036 DA60     		str	r2, [r3, #12]
2012:Drivers/STM32F7xx_HAL_Driver/Src/stm32f7xx_hal_rtc_ex.c **** 
2013:Drivers/STM32F7xx_HAL_Driver/Src/stm32f7xx_hal_rtc_ex.c ****   /* Change RTC state */
2014:Drivers/STM32F7xx_HAL_Driver/Src/stm32f7xx_hal_rtc_ex.c ****   hrtc->State = HAL_RTC_STATE_READY;
 3890              		.loc 1 2014 3 view .LVU1350
 3891              		.loc 1 2014 15 is_stmt 0 view .LVU1351
 3892 0038 0123     		movs	r3, #1
 3893 003a 6377     		strb	r3, [r4, #29]
2015:Drivers/STM32F7xx_HAL_Driver/Src/stm32f7xx_hal_rtc_ex.c **** 
2016:Drivers/STM32F7xx_HAL_Driver/Src/stm32f7xx_hal_rtc_ex.c ****   return HAL_OK;
 3894              		.loc 1 2016 3 is_stmt 1 view .LVU1352
 3895              		.loc 1 2016 10 is_stmt 0 view .LVU1353
 3896 003c 0020     		movs	r0, #0
 3897              	.L260:
2017:Drivers/STM32F7xx_HAL_Driver/Src/stm32f7xx_hal_rtc_ex.c **** }
 3898              		.loc 1 2017 1 view .LVU1354
 3899 003e 70BD     		pop	{r4, r5, r6, pc}
 3900              		.loc 1 2017 1 view .LVU1355
 3901              		.cfi_endproc
 3902              	.LFE177:
 3904              		.text
 3905              	.Letext0:
 3906              		.file 2 "/usr/lib/gcc/arm-none-eabi/12.2.1/include/stdint.h"
 3907              		.file 3 "Drivers/CMSIS/Device/ST/STM32F7xx/Include/stm32f746xx.h"
 3908              		.file 4 "Drivers/STM32F7xx_HAL_Driver/Inc/stm32f7xx_hal_def.h"
 3909              		.file 5 "Drivers/STM32F7xx_HAL_Driver/Inc/stm32f7xx_hal_rtc.h"
 3910              		.file 6 "Drivers/STM32F7xx_HAL_Driver/Inc/stm32f7xx_hal_rtc_ex.h"
 3911              		.file 7 "Drivers/CMSIS/Device/ST/STM32F7xx/Include/system_stm32f7xx.h"
 3912              		.file 8 "Drivers/STM32F7xx_HAL_Driver/Inc/stm32f7xx_hal.h"
ARM GAS  /tmp/ccxe0t7k.s 			page 109


DEFINED SYMBOLS
                            *ABS*:00000000 stm32f7xx_hal_rtc_ex.c
     /tmp/ccxe0t7k.s:21     .text.HAL_RTCEx_SetTimeStamp:00000000 $t
     /tmp/ccxe0t7k.s:27     .text.HAL_RTCEx_SetTimeStamp:00000000 HAL_RTCEx_SetTimeStamp
     /tmp/ccxe0t7k.s:161    .text.HAL_RTCEx_SetTimeStamp:00000074 $d
     /tmp/ccxe0t7k.s:166    .text.HAL_RTCEx_SetTimeStamp_IT:00000000 $t
     /tmp/ccxe0t7k.s:172    .text.HAL_RTCEx_SetTimeStamp_IT:00000000 HAL_RTCEx_SetTimeStamp_IT
     /tmp/ccxe0t7k.s:320    .text.HAL_RTCEx_SetTimeStamp_IT:00000090 $d
     /tmp/ccxe0t7k.s:326    .text.HAL_RTCEx_DeactivateTimeStamp:00000000 $t
     /tmp/ccxe0t7k.s:332    .text.HAL_RTCEx_DeactivateTimeStamp:00000000 HAL_RTCEx_DeactivateTimeStamp
     /tmp/ccxe0t7k.s:426    .text.HAL_RTCEx_DeactivateTimeStamp:00000048 $d
     /tmp/ccxe0t7k.s:431    .text.HAL_RTCEx_SetInternalTimeStamp:00000000 $t
     /tmp/ccxe0t7k.s:437    .text.HAL_RTCEx_SetInternalTimeStamp:00000000 HAL_RTCEx_SetInternalTimeStamp
     /tmp/ccxe0t7k.s:504    .text.HAL_RTCEx_DeactivateInternalTimeStamp:00000000 $t
     /tmp/ccxe0t7k.s:510    .text.HAL_RTCEx_DeactivateInternalTimeStamp:00000000 HAL_RTCEx_DeactivateInternalTimeStamp
     /tmp/ccxe0t7k.s:577    .text.HAL_RTCEx_GetTimeStamp:00000000 $t
     /tmp/ccxe0t7k.s:583    .text.HAL_RTCEx_GetTimeStamp:00000000 HAL_RTCEx_GetTimeStamp
     /tmp/ccxe0t7k.s:735    .text.HAL_RTCEx_GetTimeStamp:00000094 $d
     /tmp/ccxe0t7k.s:740    .text.HAL_RTCEx_SetTamper:00000000 $t
     /tmp/ccxe0t7k.s:746    .text.HAL_RTCEx_SetTamper:00000000 HAL_RTCEx_SetTamper
     /tmp/ccxe0t7k.s:1040   .text.HAL_RTCEx_SetTamper:00000100 $d
     /tmp/ccxe0t7k.s:1045   .text.HAL_RTCEx_SetTamper_IT:00000000 $t
     /tmp/ccxe0t7k.s:1051   .text.HAL_RTCEx_SetTamper_IT:00000000 HAL_RTCEx_SetTamper_IT
     /tmp/ccxe0t7k.s:1323   .text.HAL_RTCEx_SetTamper_IT:000000f4 $d
     /tmp/ccxe0t7k.s:1329   .text.HAL_RTCEx_DeactivateTamper:00000000 $t
     /tmp/ccxe0t7k.s:1335   .text.HAL_RTCEx_DeactivateTamper:00000000 HAL_RTCEx_DeactivateTamper
     /tmp/ccxe0t7k.s:1441   .text.HAL_RTCEx_DeactivateTamper:00000060 $d
     /tmp/ccxe0t7k.s:1448   .text.HAL_RTCEx_TimeStampEventCallback:00000000 $t
     /tmp/ccxe0t7k.s:1454   .text.HAL_RTCEx_TimeStampEventCallback:00000000 HAL_RTCEx_TimeStampEventCallback
     /tmp/ccxe0t7k.s:1469   .text.HAL_RTCEx_Tamper1EventCallback:00000000 $t
     /tmp/ccxe0t7k.s:1475   .text.HAL_RTCEx_Tamper1EventCallback:00000000 HAL_RTCEx_Tamper1EventCallback
     /tmp/ccxe0t7k.s:1490   .text.HAL_RTCEx_Tamper2EventCallback:00000000 $t
     /tmp/ccxe0t7k.s:1496   .text.HAL_RTCEx_Tamper2EventCallback:00000000 HAL_RTCEx_Tamper2EventCallback
     /tmp/ccxe0t7k.s:1511   .text.HAL_RTCEx_Tamper3EventCallback:00000000 $t
     /tmp/ccxe0t7k.s:1517   .text.HAL_RTCEx_Tamper3EventCallback:00000000 HAL_RTCEx_Tamper3EventCallback
     /tmp/ccxe0t7k.s:1532   .text.HAL_RTCEx_TamperTimeStampIRQHandler:00000000 $t
     /tmp/ccxe0t7k.s:1538   .text.HAL_RTCEx_TamperTimeStampIRQHandler:00000000 HAL_RTCEx_TamperTimeStampIRQHandler
     /tmp/ccxe0t7k.s:1673   .text.HAL_RTCEx_TamperTimeStampIRQHandler:000000b0 $d
     /tmp/ccxe0t7k.s:1681   .text.HAL_RTCEx_PollForTimeStampEvent:00000000 $t
     /tmp/ccxe0t7k.s:1687   .text.HAL_RTCEx_PollForTimeStampEvent:00000000 HAL_RTCEx_PollForTimeStampEvent
     /tmp/ccxe0t7k.s:1785   .text.HAL_RTCEx_PollForTamper1Event:00000000 $t
     /tmp/ccxe0t7k.s:1791   .text.HAL_RTCEx_PollForTamper1Event:00000000 HAL_RTCEx_PollForTamper1Event
     /tmp/ccxe0t7k.s:1870   .text.HAL_RTCEx_PollForTamper2Event:00000000 $t
     /tmp/ccxe0t7k.s:1876   .text.HAL_RTCEx_PollForTamper2Event:00000000 HAL_RTCEx_PollForTamper2Event
     /tmp/ccxe0t7k.s:1955   .text.HAL_RTCEx_PollForTamper3Event:00000000 $t
     /tmp/ccxe0t7k.s:1961   .text.HAL_RTCEx_PollForTamper3Event:00000000 HAL_RTCEx_PollForTamper3Event
     /tmp/ccxe0t7k.s:2041   .text.HAL_RTCEx_SetWakeUpTimer:00000000 $t
     /tmp/ccxe0t7k.s:2047   .text.HAL_RTCEx_SetWakeUpTimer:00000000 HAL_RTCEx_SetWakeUpTimer
     /tmp/ccxe0t7k.s:2258   .text.HAL_RTCEx_SetWakeUpTimer_IT:00000000 $t
     /tmp/ccxe0t7k.s:2264   .text.HAL_RTCEx_SetWakeUpTimer_IT:00000000 HAL_RTCEx_SetWakeUpTimer_IT
     /tmp/ccxe0t7k.s:2504   .text.HAL_RTCEx_SetWakeUpTimer_IT:000000ec $d
     /tmp/ccxe0t7k.s:2511   .text.HAL_RTCEx_DeactivateWakeUpTimer:00000000 $t
     /tmp/ccxe0t7k.s:2517   .text.HAL_RTCEx_DeactivateWakeUpTimer:00000000 HAL_RTCEx_DeactivateWakeUpTimer
     /tmp/ccxe0t7k.s:2642   .text.HAL_RTCEx_GetWakeUpTimer:00000000 $t
     /tmp/ccxe0t7k.s:2648   .text.HAL_RTCEx_GetWakeUpTimer:00000000 HAL_RTCEx_GetWakeUpTimer
     /tmp/ccxe0t7k.s:2669   .text.HAL_RTCEx_WakeUpTimerEventCallback:00000000 $t
     /tmp/ccxe0t7k.s:2675   .text.HAL_RTCEx_WakeUpTimerEventCallback:00000000 HAL_RTCEx_WakeUpTimerEventCallback
ARM GAS  /tmp/ccxe0t7k.s 			page 110


     /tmp/ccxe0t7k.s:2690   .text.HAL_RTCEx_WakeUpTimerIRQHandler:00000000 $t
     /tmp/ccxe0t7k.s:2696   .text.HAL_RTCEx_WakeUpTimerIRQHandler:00000000 HAL_RTCEx_WakeUpTimerIRQHandler
     /tmp/ccxe0t7k.s:2744   .text.HAL_RTCEx_WakeUpTimerIRQHandler:0000002c $d
     /tmp/ccxe0t7k.s:2749   .text.HAL_RTCEx_PollForWakeUpTimerEvent:00000000 $t
     /tmp/ccxe0t7k.s:2755   .text.HAL_RTCEx_PollForWakeUpTimerEvent:00000000 HAL_RTCEx_PollForWakeUpTimerEvent
     /tmp/ccxe0t7k.s:2834   .text.HAL_RTCEx_BKUPWrite:00000000 $t
     /tmp/ccxe0t7k.s:2840   .text.HAL_RTCEx_BKUPWrite:00000000 HAL_RTCEx_BKUPWrite
     /tmp/ccxe0t7k.s:2866   .text.HAL_RTCEx_BKUPRead:00000000 $t
     /tmp/ccxe0t7k.s:2872   .text.HAL_RTCEx_BKUPRead:00000000 HAL_RTCEx_BKUPRead
     /tmp/ccxe0t7k.s:2899   .text.HAL_RTCEx_SetSmoothCalib:00000000 $t
     /tmp/ccxe0t7k.s:2905   .text.HAL_RTCEx_SetSmoothCalib:00000000 HAL_RTCEx_SetSmoothCalib
     /tmp/ccxe0t7k.s:3055   .text.HAL_RTCEx_SetSynchroShift:00000000 $t
     /tmp/ccxe0t7k.s:3061   .text.HAL_RTCEx_SetSynchroShift:00000000 HAL_RTCEx_SetSynchroShift
     /tmp/ccxe0t7k.s:3263   .text.HAL_RTCEx_SetCalibrationOutPut:00000000 $t
     /tmp/ccxe0t7k.s:3269   .text.HAL_RTCEx_SetCalibrationOutPut:00000000 HAL_RTCEx_SetCalibrationOutPut
     /tmp/ccxe0t7k.s:3364   .text.HAL_RTCEx_DeactivateCalibrationOutPut:00000000 $t
     /tmp/ccxe0t7k.s:3370   .text.HAL_RTCEx_DeactivateCalibrationOutPut:00000000 HAL_RTCEx_DeactivateCalibrationOutPut
     /tmp/ccxe0t7k.s:3437   .text.HAL_RTCEx_SetRefClock:00000000 $t
     /tmp/ccxe0t7k.s:3443   .text.HAL_RTCEx_SetRefClock:00000000 HAL_RTCEx_SetRefClock
     /tmp/ccxe0t7k.s:3542   .text.HAL_RTCEx_DeactivateRefClock:00000000 $t
     /tmp/ccxe0t7k.s:3548   .text.HAL_RTCEx_DeactivateRefClock:00000000 HAL_RTCEx_DeactivateRefClock
     /tmp/ccxe0t7k.s:3647   .text.HAL_RTCEx_EnableBypassShadow:00000000 $t
     /tmp/ccxe0t7k.s:3653   .text.HAL_RTCEx_EnableBypassShadow:00000000 HAL_RTCEx_EnableBypassShadow
     /tmp/ccxe0t7k.s:3723   .text.HAL_RTCEx_DisableBypassShadow:00000000 $t
     /tmp/ccxe0t7k.s:3729   .text.HAL_RTCEx_DisableBypassShadow:00000000 HAL_RTCEx_DisableBypassShadow
     /tmp/ccxe0t7k.s:3799   .text.HAL_RTCEx_AlarmBEventCallback:00000000 $t
     /tmp/ccxe0t7k.s:3805   .text.HAL_RTCEx_AlarmBEventCallback:00000000 HAL_RTCEx_AlarmBEventCallback
     /tmp/ccxe0t7k.s:3820   .text.HAL_RTCEx_PollForAlarmBEvent:00000000 $t
     /tmp/ccxe0t7k.s:3826   .text.HAL_RTCEx_PollForAlarmBEvent:00000000 HAL_RTCEx_PollForAlarmBEvent

UNDEFINED SYMBOLS
RTC_Bcd2ToByte
HAL_GetTick
SystemCoreClock
HAL_RTC_WaitForSynchro
RTC_EnterInitMode
RTC_ExitInitMode
