ARM GAS  /tmp/ccFN7ZkF.s 			page 1


   1              		.cpu cortex-m7
   2              		.arch armv7e-m
   3              		.fpu fpv5-sp-d16
   4              		.eabi_attribute 27, 1
   5              		.eabi_attribute 28, 1
   6              		.eabi_attribute 20, 1
   7              		.eabi_attribute 21, 1
   8              		.eabi_attribute 23, 3
   9              		.eabi_attribute 24, 1
  10              		.eabi_attribute 25, 1
  11              		.eabi_attribute 26, 1
  12              		.eabi_attribute 30, 1
  13              		.eabi_attribute 34, 1
  14              		.eabi_attribute 18, 4
  15              		.file	"usbh_conf.c"
  16              		.text
  17              	.Ltext0:
  18              		.cfi_sections	.debug_frame
  19              		.file 1 "USB_HOST/Target/usbh_conf.c"
  20              		.section	.text.HAL_HCD_MspInit,"ax",%progbits
  21              		.align	1
  22              		.global	HAL_HCD_MspInit
  23              		.syntax unified
  24              		.thumb
  25              		.thumb_func
  27              	HAL_HCD_MspInit:
  28              	.LVL0:
  29              	.LFB144:
   1:USB_HOST/Target/usbh_conf.c **** /* USER CODE BEGIN Header */
   2:USB_HOST/Target/usbh_conf.c **** /**
   3:USB_HOST/Target/usbh_conf.c ****   ******************************************************************************
   4:USB_HOST/Target/usbh_conf.c ****   * @file           : Target/usbh_conf.c
   5:USB_HOST/Target/usbh_conf.c ****   * @version        : v1.0_Cube
   6:USB_HOST/Target/usbh_conf.c ****   * @brief          : This file implements the board support package for the USB host library
   7:USB_HOST/Target/usbh_conf.c ****   ******************************************************************************
   8:USB_HOST/Target/usbh_conf.c ****   * @attention
   9:USB_HOST/Target/usbh_conf.c ****   *
  10:USB_HOST/Target/usbh_conf.c ****   * Copyright (c) 2023 STMicroelectronics.
  11:USB_HOST/Target/usbh_conf.c ****   * All rights reserved.
  12:USB_HOST/Target/usbh_conf.c ****   *
  13:USB_HOST/Target/usbh_conf.c ****   * This software is licensed under terms that can be found in the LICENSE file
  14:USB_HOST/Target/usbh_conf.c ****   * in the root directory of this software component.
  15:USB_HOST/Target/usbh_conf.c ****   * If no LICENSE file comes with this software, it is provided AS-IS.
  16:USB_HOST/Target/usbh_conf.c ****   *
  17:USB_HOST/Target/usbh_conf.c ****   ******************************************************************************
  18:USB_HOST/Target/usbh_conf.c ****   */
  19:USB_HOST/Target/usbh_conf.c **** /* USER CODE END Header */
  20:USB_HOST/Target/usbh_conf.c **** 
  21:USB_HOST/Target/usbh_conf.c **** /* Includes ------------------------------------------------------------------*/
  22:USB_HOST/Target/usbh_conf.c **** #include "usbh_core.h"
  23:USB_HOST/Target/usbh_conf.c **** #include "usbh_platform.h"
  24:USB_HOST/Target/usbh_conf.c **** 
  25:USB_HOST/Target/usbh_conf.c **** /* USER CODE BEGIN Includes */
  26:USB_HOST/Target/usbh_conf.c **** 
  27:USB_HOST/Target/usbh_conf.c **** /* USER CODE END Includes */
  28:USB_HOST/Target/usbh_conf.c **** 
  29:USB_HOST/Target/usbh_conf.c **** /* Private typedef -----------------------------------------------------------*/
ARM GAS  /tmp/ccFN7ZkF.s 			page 2


  30:USB_HOST/Target/usbh_conf.c **** /* Private define ------------------------------------------------------------*/
  31:USB_HOST/Target/usbh_conf.c **** /* Private macro -------------------------------------------------------------*/
  32:USB_HOST/Target/usbh_conf.c **** 
  33:USB_HOST/Target/usbh_conf.c **** /* USER CODE BEGIN PV */
  34:USB_HOST/Target/usbh_conf.c **** /* Private variables ---------------------------------------------------------*/
  35:USB_HOST/Target/usbh_conf.c **** 
  36:USB_HOST/Target/usbh_conf.c **** /* USER CODE END PV */
  37:USB_HOST/Target/usbh_conf.c **** 
  38:USB_HOST/Target/usbh_conf.c **** HCD_HandleTypeDef hhcd_USB_OTG_FS;
  39:USB_HOST/Target/usbh_conf.c **** void Error_Handler(void);
  40:USB_HOST/Target/usbh_conf.c **** 
  41:USB_HOST/Target/usbh_conf.c **** /* USER CODE BEGIN 0 */
  42:USB_HOST/Target/usbh_conf.c **** 
  43:USB_HOST/Target/usbh_conf.c **** /* USER CODE END 0 */
  44:USB_HOST/Target/usbh_conf.c **** 
  45:USB_HOST/Target/usbh_conf.c **** /* USER CODE BEGIN PFP */
  46:USB_HOST/Target/usbh_conf.c **** /* Private function prototypes -----------------------------------------------*/
  47:USB_HOST/Target/usbh_conf.c **** USBH_StatusTypeDef USBH_Get_USB_Status(HAL_StatusTypeDef hal_status);
  48:USB_HOST/Target/usbh_conf.c **** 
  49:USB_HOST/Target/usbh_conf.c **** /* USER CODE END PFP */
  50:USB_HOST/Target/usbh_conf.c **** 
  51:USB_HOST/Target/usbh_conf.c **** /* Private functions ---------------------------------------------------------*/
  52:USB_HOST/Target/usbh_conf.c **** 
  53:USB_HOST/Target/usbh_conf.c **** /* USER CODE BEGIN 1 */
  54:USB_HOST/Target/usbh_conf.c **** 
  55:USB_HOST/Target/usbh_conf.c **** /* USER CODE END 1 */
  56:USB_HOST/Target/usbh_conf.c **** 
  57:USB_HOST/Target/usbh_conf.c **** /*******************************************************************************
  58:USB_HOST/Target/usbh_conf.c ****                        LL Driver Callbacks (HCD -> USB Host Library)
  59:USB_HOST/Target/usbh_conf.c **** *******************************************************************************/
  60:USB_HOST/Target/usbh_conf.c **** /* MSP Init */
  61:USB_HOST/Target/usbh_conf.c **** 
  62:USB_HOST/Target/usbh_conf.c **** void HAL_HCD_MspInit(HCD_HandleTypeDef* hcdHandle)
  63:USB_HOST/Target/usbh_conf.c **** {
  30              		.loc 1 63 1 view -0
  31              		.cfi_startproc
  32              		@ args = 0, pretend = 0, frame = 32
  33              		@ frame_needed = 0, uses_anonymous_args = 0
  34              		.loc 1 63 1 is_stmt 0 view .LVU1
  35 0000 10B5     		push	{r4, lr}
  36              	.LCFI0:
  37              		.cfi_def_cfa_offset 8
  38              		.cfi_offset 4, -8
  39              		.cfi_offset 14, -4
  40 0002 88B0     		sub	sp, sp, #32
  41              	.LCFI1:
  42              		.cfi_def_cfa_offset 40
  64:USB_HOST/Target/usbh_conf.c ****   GPIO_InitTypeDef GPIO_InitStruct = {0};
  43              		.loc 1 64 3 is_stmt 1 view .LVU2
  44              		.loc 1 64 20 is_stmt 0 view .LVU3
  45 0004 0023     		movs	r3, #0
  46 0006 0393     		str	r3, [sp, #12]
  47 0008 0493     		str	r3, [sp, #16]
  48 000a 0593     		str	r3, [sp, #20]
  49 000c 0693     		str	r3, [sp, #24]
  50 000e 0793     		str	r3, [sp, #28]
  65:USB_HOST/Target/usbh_conf.c ****   if(hcdHandle->Instance==USB_OTG_FS)
ARM GAS  /tmp/ccFN7ZkF.s 			page 3


  51              		.loc 1 65 3 is_stmt 1 view .LVU4
  52              		.loc 1 65 15 is_stmt 0 view .LVU5
  53 0010 0368     		ldr	r3, [r0]
  54              		.loc 1 65 5 view .LVU6
  55 0012 B3F1A04F 		cmp	r3, #1342177280
  56 0016 01D0     		beq	.L4
  57              	.LVL1:
  58              	.L1:
  66:USB_HOST/Target/usbh_conf.c ****   {
  67:USB_HOST/Target/usbh_conf.c ****   /* USER CODE BEGIN USB_OTG_FS_MspInit 0 */
  68:USB_HOST/Target/usbh_conf.c **** 
  69:USB_HOST/Target/usbh_conf.c ****   /* USER CODE END USB_OTG_FS_MspInit 0 */
  70:USB_HOST/Target/usbh_conf.c **** 
  71:USB_HOST/Target/usbh_conf.c ****     __HAL_RCC_GPIOA_CLK_ENABLE();
  72:USB_HOST/Target/usbh_conf.c ****     /**USB_OTG_FS GPIO Configuration
  73:USB_HOST/Target/usbh_conf.c ****     PA12     ------> USB_OTG_FS_DP
  74:USB_HOST/Target/usbh_conf.c ****     PA11     ------> USB_OTG_FS_DM
  75:USB_HOST/Target/usbh_conf.c ****     */
  76:USB_HOST/Target/usbh_conf.c ****     GPIO_InitStruct.Pin = OTG_FS_P_Pin|OTG_FS_N_Pin;
  77:USB_HOST/Target/usbh_conf.c ****     GPIO_InitStruct.Mode = GPIO_MODE_AF_PP;
  78:USB_HOST/Target/usbh_conf.c ****     GPIO_InitStruct.Pull = GPIO_NOPULL;
  79:USB_HOST/Target/usbh_conf.c ****     GPIO_InitStruct.Speed = GPIO_SPEED_FREQ_VERY_HIGH;
  80:USB_HOST/Target/usbh_conf.c ****     GPIO_InitStruct.Alternate = GPIO_AF10_OTG_FS;
  81:USB_HOST/Target/usbh_conf.c ****     HAL_GPIO_Init(GPIOA, &GPIO_InitStruct);
  82:USB_HOST/Target/usbh_conf.c **** 
  83:USB_HOST/Target/usbh_conf.c ****     /* Peripheral clock enable */
  84:USB_HOST/Target/usbh_conf.c ****     __HAL_RCC_USB_OTG_FS_CLK_ENABLE();
  85:USB_HOST/Target/usbh_conf.c **** 
  86:USB_HOST/Target/usbh_conf.c ****     /* Peripheral interrupt init */
  87:USB_HOST/Target/usbh_conf.c ****     HAL_NVIC_SetPriority(OTG_FS_IRQn, 0, 0);
  88:USB_HOST/Target/usbh_conf.c ****     HAL_NVIC_EnableIRQ(OTG_FS_IRQn);
  89:USB_HOST/Target/usbh_conf.c ****   /* USER CODE BEGIN USB_OTG_FS_MspInit 1 */
  90:USB_HOST/Target/usbh_conf.c **** 
  91:USB_HOST/Target/usbh_conf.c ****   /* USER CODE END USB_OTG_FS_MspInit 1 */
  92:USB_HOST/Target/usbh_conf.c ****   }
  93:USB_HOST/Target/usbh_conf.c **** }
  59              		.loc 1 93 1 view .LVU7
  60 0018 08B0     		add	sp, sp, #32
  61              	.LCFI2:
  62              		.cfi_remember_state
  63              		.cfi_def_cfa_offset 8
  64              		@ sp needed
  65 001a 10BD     		pop	{r4, pc}
  66              	.LVL2:
  67              	.L4:
  68              	.LCFI3:
  69              		.cfi_restore_state
  71:USB_HOST/Target/usbh_conf.c ****     /**USB_OTG_FS GPIO Configuration
  70              		.loc 1 71 5 is_stmt 1 view .LVU8
  71              	.LBB2:
  71:USB_HOST/Target/usbh_conf.c ****     /**USB_OTG_FS GPIO Configuration
  72              		.loc 1 71 5 view .LVU9
  71:USB_HOST/Target/usbh_conf.c ****     /**USB_OTG_FS GPIO Configuration
  73              		.loc 1 71 5 view .LVU10
  74 001c 184C     		ldr	r4, .L5
  75 001e 236B     		ldr	r3, [r4, #48]
  76 0020 43F00103 		orr	r3, r3, #1
ARM GAS  /tmp/ccFN7ZkF.s 			page 4


  77 0024 2363     		str	r3, [r4, #48]
  71:USB_HOST/Target/usbh_conf.c ****     /**USB_OTG_FS GPIO Configuration
  78              		.loc 1 71 5 view .LVU11
  79 0026 236B     		ldr	r3, [r4, #48]
  80 0028 03F00103 		and	r3, r3, #1
  81 002c 0093     		str	r3, [sp]
  71:USB_HOST/Target/usbh_conf.c ****     /**USB_OTG_FS GPIO Configuration
  82              		.loc 1 71 5 view .LVU12
  83 002e 009B     		ldr	r3, [sp]
  84              	.LBE2:
  71:USB_HOST/Target/usbh_conf.c ****     /**USB_OTG_FS GPIO Configuration
  85              		.loc 1 71 5 view .LVU13
  76:USB_HOST/Target/usbh_conf.c ****     GPIO_InitStruct.Mode = GPIO_MODE_AF_PP;
  86              		.loc 1 76 5 view .LVU14
  76:USB_HOST/Target/usbh_conf.c ****     GPIO_InitStruct.Mode = GPIO_MODE_AF_PP;
  87              		.loc 1 76 25 is_stmt 0 view .LVU15
  88 0030 4FF4C053 		mov	r3, #6144
  89 0034 0393     		str	r3, [sp, #12]
  77:USB_HOST/Target/usbh_conf.c ****     GPIO_InitStruct.Pull = GPIO_NOPULL;
  90              		.loc 1 77 5 is_stmt 1 view .LVU16
  77:USB_HOST/Target/usbh_conf.c ****     GPIO_InitStruct.Pull = GPIO_NOPULL;
  91              		.loc 1 77 26 is_stmt 0 view .LVU17
  92 0036 0223     		movs	r3, #2
  93 0038 0493     		str	r3, [sp, #16]
  78:USB_HOST/Target/usbh_conf.c ****     GPIO_InitStruct.Speed = GPIO_SPEED_FREQ_VERY_HIGH;
  94              		.loc 1 78 5 is_stmt 1 view .LVU18
  79:USB_HOST/Target/usbh_conf.c ****     GPIO_InitStruct.Alternate = GPIO_AF10_OTG_FS;
  95              		.loc 1 79 5 view .LVU19
  79:USB_HOST/Target/usbh_conf.c ****     GPIO_InitStruct.Alternate = GPIO_AF10_OTG_FS;
  96              		.loc 1 79 27 is_stmt 0 view .LVU20
  97 003a 0323     		movs	r3, #3
  98 003c 0693     		str	r3, [sp, #24]
  80:USB_HOST/Target/usbh_conf.c ****     HAL_GPIO_Init(GPIOA, &GPIO_InitStruct);
  99              		.loc 1 80 5 is_stmt 1 view .LVU21
  80:USB_HOST/Target/usbh_conf.c ****     HAL_GPIO_Init(GPIOA, &GPIO_InitStruct);
 100              		.loc 1 80 31 is_stmt 0 view .LVU22
 101 003e 0A23     		movs	r3, #10
 102 0040 0793     		str	r3, [sp, #28]
  81:USB_HOST/Target/usbh_conf.c **** 
 103              		.loc 1 81 5 is_stmt 1 view .LVU23
 104 0042 03A9     		add	r1, sp, #12
 105 0044 0F48     		ldr	r0, .L5+4
 106              	.LVL3:
  81:USB_HOST/Target/usbh_conf.c **** 
 107              		.loc 1 81 5 is_stmt 0 view .LVU24
 108 0046 FFF7FEFF 		bl	HAL_GPIO_Init
 109              	.LVL4:
  84:USB_HOST/Target/usbh_conf.c **** 
 110              		.loc 1 84 5 is_stmt 1 view .LVU25
 111              	.LBB3:
  84:USB_HOST/Target/usbh_conf.c **** 
 112              		.loc 1 84 5 view .LVU26
  84:USB_HOST/Target/usbh_conf.c **** 
 113              		.loc 1 84 5 view .LVU27
 114 004a 636B     		ldr	r3, [r4, #52]
 115 004c 43F08003 		orr	r3, r3, #128
 116 0050 6363     		str	r3, [r4, #52]
ARM GAS  /tmp/ccFN7ZkF.s 			page 5


  84:USB_HOST/Target/usbh_conf.c **** 
 117              		.loc 1 84 5 view .LVU28
 118 0052 636B     		ldr	r3, [r4, #52]
 119 0054 03F08003 		and	r3, r3, #128
 120 0058 0193     		str	r3, [sp, #4]
  84:USB_HOST/Target/usbh_conf.c **** 
 121              		.loc 1 84 5 view .LVU29
 122 005a 019B     		ldr	r3, [sp, #4]
  84:USB_HOST/Target/usbh_conf.c **** 
 123              		.loc 1 84 5 view .LVU30
 124              	.LBB4:
  84:USB_HOST/Target/usbh_conf.c **** 
 125              		.loc 1 84 5 view .LVU31
  84:USB_HOST/Target/usbh_conf.c **** 
 126              		.loc 1 84 5 view .LVU32
 127 005c 636C     		ldr	r3, [r4, #68]
 128 005e 43F48043 		orr	r3, r3, #16384
 129 0062 6364     		str	r3, [r4, #68]
  84:USB_HOST/Target/usbh_conf.c **** 
 130              		.loc 1 84 5 view .LVU33
 131 0064 636C     		ldr	r3, [r4, #68]
 132 0066 03F48043 		and	r3, r3, #16384
 133 006a 0293     		str	r3, [sp, #8]
  84:USB_HOST/Target/usbh_conf.c **** 
 134              		.loc 1 84 5 view .LVU34
 135 006c 029B     		ldr	r3, [sp, #8]
 136              	.LBE4:
  84:USB_HOST/Target/usbh_conf.c **** 
 137              		.loc 1 84 5 view .LVU35
 138              	.LBE3:
  84:USB_HOST/Target/usbh_conf.c **** 
 139              		.loc 1 84 5 view .LVU36
  87:USB_HOST/Target/usbh_conf.c ****     HAL_NVIC_EnableIRQ(OTG_FS_IRQn);
 140              		.loc 1 87 5 view .LVU37
 141 006e 0022     		movs	r2, #0
 142 0070 1146     		mov	r1, r2
 143 0072 4320     		movs	r0, #67
 144 0074 FFF7FEFF 		bl	HAL_NVIC_SetPriority
 145              	.LVL5:
  88:USB_HOST/Target/usbh_conf.c ****   /* USER CODE BEGIN USB_OTG_FS_MspInit 1 */
 146              		.loc 1 88 5 view .LVU38
 147 0078 4320     		movs	r0, #67
 148 007a FFF7FEFF 		bl	HAL_NVIC_EnableIRQ
 149              	.LVL6:
 150              		.loc 1 93 1 is_stmt 0 view .LVU39
 151 007e CBE7     		b	.L1
 152              	.L6:
 153              		.align	2
 154              	.L5:
 155 0080 00380240 		.word	1073887232
 156 0084 00000240 		.word	1073872896
 157              		.cfi_endproc
 158              	.LFE144:
 160              		.section	.text.HAL_HCD_MspDeInit,"ax",%progbits
 161              		.align	1
 162              		.global	HAL_HCD_MspDeInit
 163              		.syntax unified
ARM GAS  /tmp/ccFN7ZkF.s 			page 6


 164              		.thumb
 165              		.thumb_func
 167              	HAL_HCD_MspDeInit:
 168              	.LVL7:
 169              	.LFB145:
  94:USB_HOST/Target/usbh_conf.c **** 
  95:USB_HOST/Target/usbh_conf.c **** void HAL_HCD_MspDeInit(HCD_HandleTypeDef* hcdHandle)
  96:USB_HOST/Target/usbh_conf.c **** {
 170              		.loc 1 96 1 is_stmt 1 view -0
 171              		.cfi_startproc
 172              		@ args = 0, pretend = 0, frame = 0
 173              		@ frame_needed = 0, uses_anonymous_args = 0
 174              		.loc 1 96 1 is_stmt 0 view .LVU41
 175 0000 08B5     		push	{r3, lr}
 176              	.LCFI4:
 177              		.cfi_def_cfa_offset 8
 178              		.cfi_offset 3, -8
 179              		.cfi_offset 14, -4
  97:USB_HOST/Target/usbh_conf.c ****   if(hcdHandle->Instance==USB_OTG_FS)
 180              		.loc 1 97 3 is_stmt 1 view .LVU42
 181              		.loc 1 97 15 is_stmt 0 view .LVU43
 182 0002 0368     		ldr	r3, [r0]
 183              		.loc 1 97 5 view .LVU44
 184 0004 B3F1A04F 		cmp	r3, #1342177280
 185 0008 00D0     		beq	.L10
 186              	.LVL8:
 187              	.L7:
  98:USB_HOST/Target/usbh_conf.c ****   {
  99:USB_HOST/Target/usbh_conf.c ****   /* USER CODE BEGIN USB_OTG_FS_MspDeInit 0 */
 100:USB_HOST/Target/usbh_conf.c **** 
 101:USB_HOST/Target/usbh_conf.c ****   /* USER CODE END USB_OTG_FS_MspDeInit 0 */
 102:USB_HOST/Target/usbh_conf.c ****     /* Peripheral clock disable */
 103:USB_HOST/Target/usbh_conf.c ****     __HAL_RCC_USB_OTG_FS_CLK_DISABLE();
 104:USB_HOST/Target/usbh_conf.c **** 
 105:USB_HOST/Target/usbh_conf.c ****     /**USB_OTG_FS GPIO Configuration
 106:USB_HOST/Target/usbh_conf.c ****     PA12     ------> USB_OTG_FS_DP
 107:USB_HOST/Target/usbh_conf.c ****     PA11     ------> USB_OTG_FS_DM
 108:USB_HOST/Target/usbh_conf.c ****     */
 109:USB_HOST/Target/usbh_conf.c ****     HAL_GPIO_DeInit(GPIOA, OTG_FS_P_Pin|OTG_FS_N_Pin);
 110:USB_HOST/Target/usbh_conf.c **** 
 111:USB_HOST/Target/usbh_conf.c ****     /* Peripheral interrupt Deinit*/
 112:USB_HOST/Target/usbh_conf.c ****     HAL_NVIC_DisableIRQ(OTG_FS_IRQn);
 113:USB_HOST/Target/usbh_conf.c **** 
 114:USB_HOST/Target/usbh_conf.c ****   /* USER CODE BEGIN USB_OTG_FS_MspDeInit 1 */
 115:USB_HOST/Target/usbh_conf.c **** 
 116:USB_HOST/Target/usbh_conf.c ****   /* USER CODE END USB_OTG_FS_MspDeInit 1 */
 117:USB_HOST/Target/usbh_conf.c ****   }
 118:USB_HOST/Target/usbh_conf.c **** }
 188              		.loc 1 118 1 view .LVU45
 189 000a 08BD     		pop	{r3, pc}
 190              	.LVL9:
 191              	.L10:
 103:USB_HOST/Target/usbh_conf.c **** 
 192              		.loc 1 103 5 is_stmt 1 view .LVU46
 193 000c 064A     		ldr	r2, .L11
 194 000e 536B     		ldr	r3, [r2, #52]
 195 0010 23F08003 		bic	r3, r3, #128
ARM GAS  /tmp/ccFN7ZkF.s 			page 7


 196 0014 5363     		str	r3, [r2, #52]
 109:USB_HOST/Target/usbh_conf.c **** 
 197              		.loc 1 109 5 view .LVU47
 198 0016 4FF4C051 		mov	r1, #6144
 199 001a 0448     		ldr	r0, .L11+4
 200              	.LVL10:
 109:USB_HOST/Target/usbh_conf.c **** 
 201              		.loc 1 109 5 is_stmt 0 view .LVU48
 202 001c FFF7FEFF 		bl	HAL_GPIO_DeInit
 203              	.LVL11:
 112:USB_HOST/Target/usbh_conf.c **** 
 204              		.loc 1 112 5 is_stmt 1 view .LVU49
 205 0020 4320     		movs	r0, #67
 206 0022 FFF7FEFF 		bl	HAL_NVIC_DisableIRQ
 207              	.LVL12:
 208              		.loc 1 118 1 is_stmt 0 view .LVU50
 209 0026 F0E7     		b	.L7
 210              	.L12:
 211              		.align	2
 212              	.L11:
 213 0028 00380240 		.word	1073887232
 214 002c 00000240 		.word	1073872896
 215              		.cfi_endproc
 216              	.LFE145:
 218              		.section	.text.HAL_HCD_SOF_Callback,"ax",%progbits
 219              		.align	1
 220              		.global	HAL_HCD_SOF_Callback
 221              		.syntax unified
 222              		.thumb
 223              		.thumb_func
 225              	HAL_HCD_SOF_Callback:
 226              	.LVL13:
 227              	.LFB146:
 119:USB_HOST/Target/usbh_conf.c **** 
 120:USB_HOST/Target/usbh_conf.c **** /**
 121:USB_HOST/Target/usbh_conf.c ****   * @brief  SOF callback.
 122:USB_HOST/Target/usbh_conf.c ****   * @param  hhcd: HCD handle
 123:USB_HOST/Target/usbh_conf.c ****   * @retval None
 124:USB_HOST/Target/usbh_conf.c ****   */
 125:USB_HOST/Target/usbh_conf.c **** void HAL_HCD_SOF_Callback(HCD_HandleTypeDef *hhcd)
 126:USB_HOST/Target/usbh_conf.c **** {
 228              		.loc 1 126 1 is_stmt 1 view -0
 229              		.cfi_startproc
 230              		@ args = 0, pretend = 0, frame = 0
 231              		@ frame_needed = 0, uses_anonymous_args = 0
 232              		.loc 1 126 1 is_stmt 0 view .LVU52
 233 0000 08B5     		push	{r3, lr}
 234              	.LCFI5:
 235              		.cfi_def_cfa_offset 8
 236              		.cfi_offset 3, -8
 237              		.cfi_offset 14, -4
 127:USB_HOST/Target/usbh_conf.c ****   USBH_LL_IncTimer(hhcd->pData);
 238              		.loc 1 127 3 is_stmt 1 view .LVU53
 239 0002 D0F80003 		ldr	r0, [r0, #768]
 240              	.LVL14:
 241              		.loc 1 127 3 is_stmt 0 view .LVU54
 242 0006 FFF7FEFF 		bl	USBH_LL_IncTimer
ARM GAS  /tmp/ccFN7ZkF.s 			page 8


 243              	.LVL15:
 128:USB_HOST/Target/usbh_conf.c **** }
 244              		.loc 1 128 1 view .LVU55
 245 000a 08BD     		pop	{r3, pc}
 246              		.cfi_endproc
 247              	.LFE146:
 249              		.section	.text.HAL_HCD_Connect_Callback,"ax",%progbits
 250              		.align	1
 251              		.global	HAL_HCD_Connect_Callback
 252              		.syntax unified
 253              		.thumb
 254              		.thumb_func
 256              	HAL_HCD_Connect_Callback:
 257              	.LVL16:
 258              	.LFB147:
 129:USB_HOST/Target/usbh_conf.c **** 
 130:USB_HOST/Target/usbh_conf.c **** /**
 131:USB_HOST/Target/usbh_conf.c ****   * @brief  SOF callback.
 132:USB_HOST/Target/usbh_conf.c ****   * @param  hhcd: HCD handle
 133:USB_HOST/Target/usbh_conf.c ****   * @retval None
 134:USB_HOST/Target/usbh_conf.c ****   */
 135:USB_HOST/Target/usbh_conf.c **** void HAL_HCD_Connect_Callback(HCD_HandleTypeDef *hhcd)
 136:USB_HOST/Target/usbh_conf.c **** {
 259              		.loc 1 136 1 is_stmt 1 view -0
 260              		.cfi_startproc
 261              		@ args = 0, pretend = 0, frame = 0
 262              		@ frame_needed = 0, uses_anonymous_args = 0
 263              		.loc 1 136 1 is_stmt 0 view .LVU57
 264 0000 08B5     		push	{r3, lr}
 265              	.LCFI6:
 266              		.cfi_def_cfa_offset 8
 267              		.cfi_offset 3, -8
 268              		.cfi_offset 14, -4
 137:USB_HOST/Target/usbh_conf.c ****   USBH_LL_Connect(hhcd->pData);
 269              		.loc 1 137 3 is_stmt 1 view .LVU58
 270 0002 D0F80003 		ldr	r0, [r0, #768]
 271              	.LVL17:
 272              		.loc 1 137 3 is_stmt 0 view .LVU59
 273 0006 FFF7FEFF 		bl	USBH_LL_Connect
 274              	.LVL18:
 138:USB_HOST/Target/usbh_conf.c **** }
 275              		.loc 1 138 1 view .LVU60
 276 000a 08BD     		pop	{r3, pc}
 277              		.cfi_endproc
 278              	.LFE147:
 280              		.section	.text.HAL_HCD_Disconnect_Callback,"ax",%progbits
 281              		.align	1
 282              		.global	HAL_HCD_Disconnect_Callback
 283              		.syntax unified
 284              		.thumb
 285              		.thumb_func
 287              	HAL_HCD_Disconnect_Callback:
 288              	.LVL19:
 289              	.LFB148:
 139:USB_HOST/Target/usbh_conf.c **** 
 140:USB_HOST/Target/usbh_conf.c **** /**
 141:USB_HOST/Target/usbh_conf.c ****   * @brief  SOF callback.
ARM GAS  /tmp/ccFN7ZkF.s 			page 9


 142:USB_HOST/Target/usbh_conf.c ****   * @param  hhcd: HCD handle
 143:USB_HOST/Target/usbh_conf.c ****   * @retval None
 144:USB_HOST/Target/usbh_conf.c ****   */
 145:USB_HOST/Target/usbh_conf.c **** void HAL_HCD_Disconnect_Callback(HCD_HandleTypeDef *hhcd)
 146:USB_HOST/Target/usbh_conf.c **** {
 290              		.loc 1 146 1 is_stmt 1 view -0
 291              		.cfi_startproc
 292              		@ args = 0, pretend = 0, frame = 0
 293              		@ frame_needed = 0, uses_anonymous_args = 0
 294              		.loc 1 146 1 is_stmt 0 view .LVU62
 295 0000 08B5     		push	{r3, lr}
 296              	.LCFI7:
 297              		.cfi_def_cfa_offset 8
 298              		.cfi_offset 3, -8
 299              		.cfi_offset 14, -4
 147:USB_HOST/Target/usbh_conf.c ****   USBH_LL_Disconnect(hhcd->pData);
 300              		.loc 1 147 3 is_stmt 1 view .LVU63
 301 0002 D0F80003 		ldr	r0, [r0, #768]
 302              	.LVL20:
 303              		.loc 1 147 3 is_stmt 0 view .LVU64
 304 0006 FFF7FEFF 		bl	USBH_LL_Disconnect
 305              	.LVL21:
 148:USB_HOST/Target/usbh_conf.c **** }
 306              		.loc 1 148 1 view .LVU65
 307 000a 08BD     		pop	{r3, pc}
 308              		.cfi_endproc
 309              	.LFE148:
 311              		.section	.text.HAL_HCD_HC_NotifyURBChange_Callback,"ax",%progbits
 312              		.align	1
 313              		.global	HAL_HCD_HC_NotifyURBChange_Callback
 314              		.syntax unified
 315              		.thumb
 316              		.thumb_func
 318              	HAL_HCD_HC_NotifyURBChange_Callback:
 319              	.LVL22:
 320              	.LFB149:
 149:USB_HOST/Target/usbh_conf.c **** 
 150:USB_HOST/Target/usbh_conf.c **** /**
 151:USB_HOST/Target/usbh_conf.c ****   * @brief  Notify URB state change callback.
 152:USB_HOST/Target/usbh_conf.c ****   * @param  hhcd: HCD handle
 153:USB_HOST/Target/usbh_conf.c ****   * @param  chnum: channel number
 154:USB_HOST/Target/usbh_conf.c ****   * @param  urb_state: state
 155:USB_HOST/Target/usbh_conf.c ****   * @retval None
 156:USB_HOST/Target/usbh_conf.c ****   */
 157:USB_HOST/Target/usbh_conf.c **** void HAL_HCD_HC_NotifyURBChange_Callback(HCD_HandleTypeDef *hhcd, uint8_t chnum, HCD_URBStateTypeDe
 158:USB_HOST/Target/usbh_conf.c **** {
 321              		.loc 1 158 1 is_stmt 1 view -0
 322              		.cfi_startproc
 323              		@ args = 0, pretend = 0, frame = 0
 324              		@ frame_needed = 0, uses_anonymous_args = 0
 325              		@ link register save eliminated.
 159:USB_HOST/Target/usbh_conf.c ****   /* To be used with OS to sync URB state with the global state machine */
 160:USB_HOST/Target/usbh_conf.c **** #if (USBH_USE_OS == 1)
 161:USB_HOST/Target/usbh_conf.c ****   USBH_LL_NotifyURBChange(hhcd->pData);
 162:USB_HOST/Target/usbh_conf.c **** #endif
 163:USB_HOST/Target/usbh_conf.c **** }
 326              		.loc 1 163 1 view .LVU67
ARM GAS  /tmp/ccFN7ZkF.s 			page 10


 327 0000 7047     		bx	lr
 328              		.cfi_endproc
 329              	.LFE149:
 331              		.section	.text.HAL_HCD_PortEnabled_Callback,"ax",%progbits
 332              		.align	1
 333              		.global	HAL_HCD_PortEnabled_Callback
 334              		.syntax unified
 335              		.thumb
 336              		.thumb_func
 338              	HAL_HCD_PortEnabled_Callback:
 339              	.LVL23:
 340              	.LFB150:
 164:USB_HOST/Target/usbh_conf.c **** /**
 165:USB_HOST/Target/usbh_conf.c **** * @brief  Port Port Enabled callback.
 166:USB_HOST/Target/usbh_conf.c ****   * @param  hhcd: HCD handle
 167:USB_HOST/Target/usbh_conf.c ****   * @retval None
 168:USB_HOST/Target/usbh_conf.c ****   */
 169:USB_HOST/Target/usbh_conf.c **** void HAL_HCD_PortEnabled_Callback(HCD_HandleTypeDef *hhcd)
 170:USB_HOST/Target/usbh_conf.c **** {
 341              		.loc 1 170 1 view -0
 342              		.cfi_startproc
 343              		@ args = 0, pretend = 0, frame = 0
 344              		@ frame_needed = 0, uses_anonymous_args = 0
 345              		.loc 1 170 1 is_stmt 0 view .LVU69
 346 0000 08B5     		push	{r3, lr}
 347              	.LCFI8:
 348              		.cfi_def_cfa_offset 8
 349              		.cfi_offset 3, -8
 350              		.cfi_offset 14, -4
 171:USB_HOST/Target/usbh_conf.c ****   USBH_LL_PortEnabled(hhcd->pData);
 351              		.loc 1 171 3 is_stmt 1 view .LVU70
 352 0002 D0F80003 		ldr	r0, [r0, #768]
 353              	.LVL24:
 354              		.loc 1 171 3 is_stmt 0 view .LVU71
 355 0006 FFF7FEFF 		bl	USBH_LL_PortEnabled
 356              	.LVL25:
 172:USB_HOST/Target/usbh_conf.c **** }
 357              		.loc 1 172 1 view .LVU72
 358 000a 08BD     		pop	{r3, pc}
 359              		.cfi_endproc
 360              	.LFE150:
 362              		.section	.text.HAL_HCD_PortDisabled_Callback,"ax",%progbits
 363              		.align	1
 364              		.global	HAL_HCD_PortDisabled_Callback
 365              		.syntax unified
 366              		.thumb
 367              		.thumb_func
 369              	HAL_HCD_PortDisabled_Callback:
 370              	.LVL26:
 371              	.LFB151:
 173:USB_HOST/Target/usbh_conf.c **** 
 174:USB_HOST/Target/usbh_conf.c **** /**
 175:USB_HOST/Target/usbh_conf.c ****   * @brief  Port Port Disabled callback.
 176:USB_HOST/Target/usbh_conf.c ****   * @param  hhcd: HCD handle
 177:USB_HOST/Target/usbh_conf.c ****   * @retval None
 178:USB_HOST/Target/usbh_conf.c ****   */
 179:USB_HOST/Target/usbh_conf.c **** void HAL_HCD_PortDisabled_Callback(HCD_HandleTypeDef *hhcd)
ARM GAS  /tmp/ccFN7ZkF.s 			page 11


 180:USB_HOST/Target/usbh_conf.c **** {
 372              		.loc 1 180 1 is_stmt 1 view -0
 373              		.cfi_startproc
 374              		@ args = 0, pretend = 0, frame = 0
 375              		@ frame_needed = 0, uses_anonymous_args = 0
 376              		.loc 1 180 1 is_stmt 0 view .LVU74
 377 0000 08B5     		push	{r3, lr}
 378              	.LCFI9:
 379              		.cfi_def_cfa_offset 8
 380              		.cfi_offset 3, -8
 381              		.cfi_offset 14, -4
 181:USB_HOST/Target/usbh_conf.c ****   USBH_LL_PortDisabled(hhcd->pData);
 382              		.loc 1 181 3 is_stmt 1 view .LVU75
 383 0002 D0F80003 		ldr	r0, [r0, #768]
 384              	.LVL27:
 385              		.loc 1 181 3 is_stmt 0 view .LVU76
 386 0006 FFF7FEFF 		bl	USBH_LL_PortDisabled
 387              	.LVL28:
 182:USB_HOST/Target/usbh_conf.c **** }
 388              		.loc 1 182 1 view .LVU77
 389 000a 08BD     		pop	{r3, pc}
 390              		.cfi_endproc
 391              	.LFE151:
 393              		.section	.text.USBH_LL_Init,"ax",%progbits
 394              		.align	1
 395              		.global	USBH_LL_Init
 396              		.syntax unified
 397              		.thumb
 398              		.thumb_func
 400              	USBH_LL_Init:
 401              	.LVL29:
 402              	.LFB152:
 183:USB_HOST/Target/usbh_conf.c **** 
 184:USB_HOST/Target/usbh_conf.c **** /*******************************************************************************
 185:USB_HOST/Target/usbh_conf.c ****                        LL Driver Interface (USB Host Library --> HCD)
 186:USB_HOST/Target/usbh_conf.c **** *******************************************************************************/
 187:USB_HOST/Target/usbh_conf.c **** 
 188:USB_HOST/Target/usbh_conf.c **** /**
 189:USB_HOST/Target/usbh_conf.c ****   * @brief  Initialize the low level portion of the host driver.
 190:USB_HOST/Target/usbh_conf.c ****   * @param  phost: Host handle
 191:USB_HOST/Target/usbh_conf.c ****   * @retval USBH status
 192:USB_HOST/Target/usbh_conf.c ****   */
 193:USB_HOST/Target/usbh_conf.c **** USBH_StatusTypeDef USBH_LL_Init(USBH_HandleTypeDef *phost)
 194:USB_HOST/Target/usbh_conf.c **** {
 403              		.loc 1 194 1 is_stmt 1 view -0
 404              		.cfi_startproc
 405              		@ args = 0, pretend = 0, frame = 0
 406              		@ frame_needed = 0, uses_anonymous_args = 0
 195:USB_HOST/Target/usbh_conf.c ****   /* Init USB_IP */
 196:USB_HOST/Target/usbh_conf.c ****   if (phost->id == HOST_FS) {
 407              		.loc 1 196 3 view .LVU79
 408              		.loc 1 196 12 is_stmt 0 view .LVU80
 409 0000 90F8CC33 		ldrb	r3, [r0, #972]	@ zero_extendqisi2
 410              		.loc 1 196 6 view .LVU81
 411 0004 012B     		cmp	r3, #1
 412 0006 01D0     		beq	.L31
 197:USB_HOST/Target/usbh_conf.c ****   /* Link the driver to the stack. */
ARM GAS  /tmp/ccFN7ZkF.s 			page 12


 198:USB_HOST/Target/usbh_conf.c ****   hhcd_USB_OTG_FS.pData = phost;
 199:USB_HOST/Target/usbh_conf.c ****   phost->pData = &hhcd_USB_OTG_FS;
 200:USB_HOST/Target/usbh_conf.c **** 
 201:USB_HOST/Target/usbh_conf.c ****   hhcd_USB_OTG_FS.Instance = USB_OTG_FS;
 202:USB_HOST/Target/usbh_conf.c ****   hhcd_USB_OTG_FS.Init.Host_channels = 8;
 203:USB_HOST/Target/usbh_conf.c ****   hhcd_USB_OTG_FS.Init.speed = HCD_SPEED_FULL;
 204:USB_HOST/Target/usbh_conf.c ****   hhcd_USB_OTG_FS.Init.dma_enable = DISABLE;
 205:USB_HOST/Target/usbh_conf.c ****   hhcd_USB_OTG_FS.Init.phy_itface = HCD_PHY_EMBEDDED;
 206:USB_HOST/Target/usbh_conf.c ****   hhcd_USB_OTG_FS.Init.Sof_enable = DISABLE;
 207:USB_HOST/Target/usbh_conf.c ****   if (HAL_HCD_Init(&hhcd_USB_OTG_FS) != HAL_OK)
 208:USB_HOST/Target/usbh_conf.c ****   {
 209:USB_HOST/Target/usbh_conf.c ****     Error_Handler( );
 210:USB_HOST/Target/usbh_conf.c ****   }
 211:USB_HOST/Target/usbh_conf.c **** 
 212:USB_HOST/Target/usbh_conf.c ****   USBH_LL_SetTimer(phost, HAL_HCD_GetCurrentFrame(&hhcd_USB_OTG_FS));
 213:USB_HOST/Target/usbh_conf.c ****   }
 214:USB_HOST/Target/usbh_conf.c ****   return USBH_OK;
 413              		.loc 1 214 3 is_stmt 1 view .LVU82
 215:USB_HOST/Target/usbh_conf.c **** }
 414              		.loc 1 215 1 is_stmt 0 view .LVU83
 415 0008 0020     		movs	r0, #0
 416              	.LVL30:
 417              		.loc 1 215 1 view .LVU84
 418 000a 7047     		bx	lr
 419              	.LVL31:
 420              	.L31:
 194:USB_HOST/Target/usbh_conf.c ****   /* Init USB_IP */
 421              		.loc 1 194 1 view .LVU85
 422 000c 10B5     		push	{r4, lr}
 423              	.LCFI10:
 424              		.cfi_def_cfa_offset 8
 425              		.cfi_offset 4, -8
 426              		.cfi_offset 14, -4
 427 000e 0446     		mov	r4, r0
 198:USB_HOST/Target/usbh_conf.c ****   phost->pData = &hhcd_USB_OTG_FS;
 428              		.loc 1 198 3 is_stmt 1 view .LVU86
 198:USB_HOST/Target/usbh_conf.c ****   phost->pData = &hhcd_USB_OTG_FS;
 429              		.loc 1 198 25 is_stmt 0 view .LVU87
 430 0010 0F48     		ldr	r0, .L33
 431              	.LVL32:
 198:USB_HOST/Target/usbh_conf.c ****   phost->pData = &hhcd_USB_OTG_FS;
 432              		.loc 1 198 25 view .LVU88
 433 0012 C0F80043 		str	r4, [r0, #768]
 199:USB_HOST/Target/usbh_conf.c **** 
 434              		.loc 1 199 3 is_stmt 1 view .LVU89
 199:USB_HOST/Target/usbh_conf.c **** 
 435              		.loc 1 199 16 is_stmt 0 view .LVU90
 436 0016 C4F8D003 		str	r0, [r4, #976]
 201:USB_HOST/Target/usbh_conf.c ****   hhcd_USB_OTG_FS.Init.Host_channels = 8;
 437              		.loc 1 201 3 is_stmt 1 view .LVU91
 201:USB_HOST/Target/usbh_conf.c ****   hhcd_USB_OTG_FS.Init.Host_channels = 8;
 438              		.loc 1 201 28 is_stmt 0 view .LVU92
 439 001a 4FF0A043 		mov	r3, #1342177280
 440 001e 0360     		str	r3, [r0]
 202:USB_HOST/Target/usbh_conf.c ****   hhcd_USB_OTG_FS.Init.speed = HCD_SPEED_FULL;
 441              		.loc 1 202 3 is_stmt 1 view .LVU93
 202:USB_HOST/Target/usbh_conf.c ****   hhcd_USB_OTG_FS.Init.speed = HCD_SPEED_FULL;
ARM GAS  /tmp/ccFN7ZkF.s 			page 13


 442              		.loc 1 202 38 is_stmt 0 view .LVU94
 443 0020 0823     		movs	r3, #8
 444 0022 8360     		str	r3, [r0, #8]
 203:USB_HOST/Target/usbh_conf.c ****   hhcd_USB_OTG_FS.Init.dma_enable = DISABLE;
 445              		.loc 1 203 3 is_stmt 1 view .LVU95
 203:USB_HOST/Target/usbh_conf.c ****   hhcd_USB_OTG_FS.Init.dma_enable = DISABLE;
 446              		.loc 1 203 30 is_stmt 0 view .LVU96
 447 0024 0123     		movs	r3, #1
 448 0026 C360     		str	r3, [r0, #12]
 204:USB_HOST/Target/usbh_conf.c ****   hhcd_USB_OTG_FS.Init.phy_itface = HCD_PHY_EMBEDDED;
 449              		.loc 1 204 3 is_stmt 1 view .LVU97
 204:USB_HOST/Target/usbh_conf.c ****   hhcd_USB_OTG_FS.Init.phy_itface = HCD_PHY_EMBEDDED;
 450              		.loc 1 204 35 is_stmt 0 view .LVU98
 451 0028 0023     		movs	r3, #0
 452 002a 0361     		str	r3, [r0, #16]
 205:USB_HOST/Target/usbh_conf.c ****   hhcd_USB_OTG_FS.Init.Sof_enable = DISABLE;
 453              		.loc 1 205 3 is_stmt 1 view .LVU99
 205:USB_HOST/Target/usbh_conf.c ****   hhcd_USB_OTG_FS.Init.Sof_enable = DISABLE;
 454              		.loc 1 205 35 is_stmt 0 view .LVU100
 455 002c 0222     		movs	r2, #2
 456 002e 8261     		str	r2, [r0, #24]
 206:USB_HOST/Target/usbh_conf.c ****   if (HAL_HCD_Init(&hhcd_USB_OTG_FS) != HAL_OK)
 457              		.loc 1 206 3 is_stmt 1 view .LVU101
 206:USB_HOST/Target/usbh_conf.c ****   if (HAL_HCD_Init(&hhcd_USB_OTG_FS) != HAL_OK)
 458              		.loc 1 206 35 is_stmt 0 view .LVU102
 459 0030 C361     		str	r3, [r0, #28]
 207:USB_HOST/Target/usbh_conf.c ****   {
 460              		.loc 1 207 3 is_stmt 1 view .LVU103
 207:USB_HOST/Target/usbh_conf.c ****   {
 461              		.loc 1 207 7 is_stmt 0 view .LVU104
 462 0032 FFF7FEFF 		bl	HAL_HCD_Init
 463              	.LVL33:
 207:USB_HOST/Target/usbh_conf.c ****   {
 464              		.loc 1 207 6 view .LVU105
 465 0036 40B9     		cbnz	r0, .L32
 466              	.L26:
 212:USB_HOST/Target/usbh_conf.c ****   }
 467              		.loc 1 212 3 is_stmt 1 view .LVU106
 468 0038 0548     		ldr	r0, .L33
 469 003a FFF7FEFF 		bl	HAL_HCD_GetCurrentFrame
 470              	.LVL34:
 471 003e 0146     		mov	r1, r0
 472 0040 2046     		mov	r0, r4
 473 0042 FFF7FEFF 		bl	USBH_LL_SetTimer
 474              	.LVL35:
 214:USB_HOST/Target/usbh_conf.c **** }
 475              		.loc 1 214 3 view .LVU107
 476              		.loc 1 215 1 is_stmt 0 view .LVU108
 477 0046 0020     		movs	r0, #0
 478 0048 10BD     		pop	{r4, pc}
 479              	.LVL36:
 480              	.L32:
 209:USB_HOST/Target/usbh_conf.c ****   }
 481              		.loc 1 209 5 is_stmt 1 view .LVU109
 482 004a FFF7FEFF 		bl	Error_Handler
 483              	.LVL37:
 484 004e F3E7     		b	.L26
ARM GAS  /tmp/ccFN7ZkF.s 			page 14


 485              	.L34:
 486              		.align	2
 487              	.L33:
 488 0050 00000000 		.word	hhcd_USB_OTG_FS
 489              		.cfi_endproc
 490              	.LFE152:
 492              		.section	.text.USBH_LL_GetSpeed,"ax",%progbits
 493              		.align	1
 494              		.global	USBH_LL_GetSpeed
 495              		.syntax unified
 496              		.thumb
 497              		.thumb_func
 499              	USBH_LL_GetSpeed:
 500              	.LVL38:
 501              	.LFB156:
 216:USB_HOST/Target/usbh_conf.c **** 
 217:USB_HOST/Target/usbh_conf.c **** /**
 218:USB_HOST/Target/usbh_conf.c ****   * @brief  De-Initialize the low level portion of the host driver.
 219:USB_HOST/Target/usbh_conf.c ****   * @param  phost: Host handle
 220:USB_HOST/Target/usbh_conf.c ****   * @retval USBH status
 221:USB_HOST/Target/usbh_conf.c ****   */
 222:USB_HOST/Target/usbh_conf.c **** USBH_StatusTypeDef USBH_LL_DeInit(USBH_HandleTypeDef *phost)
 223:USB_HOST/Target/usbh_conf.c **** {
 224:USB_HOST/Target/usbh_conf.c ****   HAL_StatusTypeDef hal_status = HAL_OK;
 225:USB_HOST/Target/usbh_conf.c ****   USBH_StatusTypeDef usb_status = USBH_OK;
 226:USB_HOST/Target/usbh_conf.c **** 
 227:USB_HOST/Target/usbh_conf.c ****   hal_status = HAL_HCD_DeInit(phost->pData);
 228:USB_HOST/Target/usbh_conf.c **** 
 229:USB_HOST/Target/usbh_conf.c ****   usb_status = USBH_Get_USB_Status(hal_status);
 230:USB_HOST/Target/usbh_conf.c **** 
 231:USB_HOST/Target/usbh_conf.c ****   return usb_status;
 232:USB_HOST/Target/usbh_conf.c **** }
 233:USB_HOST/Target/usbh_conf.c **** 
 234:USB_HOST/Target/usbh_conf.c **** /**
 235:USB_HOST/Target/usbh_conf.c ****   * @brief  Start the low level portion of the host driver.
 236:USB_HOST/Target/usbh_conf.c ****   * @param  phost: Host handle
 237:USB_HOST/Target/usbh_conf.c ****   * @retval USBH status
 238:USB_HOST/Target/usbh_conf.c ****   */
 239:USB_HOST/Target/usbh_conf.c **** USBH_StatusTypeDef USBH_LL_Start(USBH_HandleTypeDef *phost)
 240:USB_HOST/Target/usbh_conf.c **** {
 241:USB_HOST/Target/usbh_conf.c ****   HAL_StatusTypeDef hal_status = HAL_OK;
 242:USB_HOST/Target/usbh_conf.c ****   USBH_StatusTypeDef usb_status = USBH_OK;
 243:USB_HOST/Target/usbh_conf.c **** 
 244:USB_HOST/Target/usbh_conf.c ****   hal_status = HAL_HCD_Start(phost->pData);
 245:USB_HOST/Target/usbh_conf.c **** 
 246:USB_HOST/Target/usbh_conf.c ****   usb_status = USBH_Get_USB_Status(hal_status);
 247:USB_HOST/Target/usbh_conf.c **** 
 248:USB_HOST/Target/usbh_conf.c ****   return usb_status;
 249:USB_HOST/Target/usbh_conf.c **** }
 250:USB_HOST/Target/usbh_conf.c **** 
 251:USB_HOST/Target/usbh_conf.c **** /**
 252:USB_HOST/Target/usbh_conf.c ****   * @brief  Stop the low level portion of the host driver.
 253:USB_HOST/Target/usbh_conf.c ****   * @param  phost: Host handle
 254:USB_HOST/Target/usbh_conf.c ****   * @retval USBH status
 255:USB_HOST/Target/usbh_conf.c ****   */
 256:USB_HOST/Target/usbh_conf.c **** USBH_StatusTypeDef USBH_LL_Stop(USBH_HandleTypeDef *phost)
 257:USB_HOST/Target/usbh_conf.c **** {
ARM GAS  /tmp/ccFN7ZkF.s 			page 15


 258:USB_HOST/Target/usbh_conf.c ****   HAL_StatusTypeDef hal_status = HAL_OK;
 259:USB_HOST/Target/usbh_conf.c ****   USBH_StatusTypeDef usb_status = USBH_OK;
 260:USB_HOST/Target/usbh_conf.c **** 
 261:USB_HOST/Target/usbh_conf.c ****   hal_status = HAL_HCD_Stop(phost->pData);
 262:USB_HOST/Target/usbh_conf.c **** 
 263:USB_HOST/Target/usbh_conf.c ****   usb_status = USBH_Get_USB_Status(hal_status);
 264:USB_HOST/Target/usbh_conf.c **** 
 265:USB_HOST/Target/usbh_conf.c ****   return usb_status;
 266:USB_HOST/Target/usbh_conf.c **** }
 267:USB_HOST/Target/usbh_conf.c **** 
 268:USB_HOST/Target/usbh_conf.c **** /**
 269:USB_HOST/Target/usbh_conf.c ****   * @brief  Return the USB host speed from the low level driver.
 270:USB_HOST/Target/usbh_conf.c ****   * @param  phost: Host handle
 271:USB_HOST/Target/usbh_conf.c ****   * @retval USBH speeds
 272:USB_HOST/Target/usbh_conf.c ****   */
 273:USB_HOST/Target/usbh_conf.c **** USBH_SpeedTypeDef USBH_LL_GetSpeed(USBH_HandleTypeDef *phost)
 274:USB_HOST/Target/usbh_conf.c **** {
 502              		.loc 1 274 1 view -0
 503              		.cfi_startproc
 504              		@ args = 0, pretend = 0, frame = 0
 505              		@ frame_needed = 0, uses_anonymous_args = 0
 506              		.loc 1 274 1 is_stmt 0 view .LVU111
 507 0000 08B5     		push	{r3, lr}
 508              	.LCFI11:
 509              		.cfi_def_cfa_offset 8
 510              		.cfi_offset 3, -8
 511              		.cfi_offset 14, -4
 275:USB_HOST/Target/usbh_conf.c ****   USBH_SpeedTypeDef speed = USBH_SPEED_FULL;
 512              		.loc 1 275 3 is_stmt 1 view .LVU112
 513              	.LVL39:
 276:USB_HOST/Target/usbh_conf.c **** 
 277:USB_HOST/Target/usbh_conf.c ****   switch (HAL_HCD_GetCurrentSpeed(phost->pData))
 514              		.loc 1 277 3 view .LVU113
 515              		.loc 1 277 11 is_stmt 0 view .LVU114
 516 0002 D0F8D003 		ldr	r0, [r0, #976]
 517              	.LVL40:
 518              		.loc 1 277 11 view .LVU115
 519 0006 FFF7FEFF 		bl	HAL_HCD_GetCurrentSpeed
 520              	.LVL41:
 521              		.loc 1 277 3 view .LVU116
 522 000a 0128     		cmp	r0, #1
 523 000c 04D0     		beq	.L37
 524 000e 0228     		cmp	r0, #2
 525 0010 04D0     		beq	.L38
 526 0012 00B1     		cbz	r0, .L36
 278:USB_HOST/Target/usbh_conf.c ****   {
 279:USB_HOST/Target/usbh_conf.c ****   case 0 :
 280:USB_HOST/Target/usbh_conf.c ****     speed = USBH_SPEED_HIGH;
 281:USB_HOST/Target/usbh_conf.c ****     break;
 282:USB_HOST/Target/usbh_conf.c **** 
 283:USB_HOST/Target/usbh_conf.c ****   case 1 :
 284:USB_HOST/Target/usbh_conf.c ****     speed = USBH_SPEED_FULL;
 285:USB_HOST/Target/usbh_conf.c ****     break;
 286:USB_HOST/Target/usbh_conf.c **** 
 287:USB_HOST/Target/usbh_conf.c ****   case 2 :
 288:USB_HOST/Target/usbh_conf.c ****     speed = USBH_SPEED_LOW;
 289:USB_HOST/Target/usbh_conf.c ****     break;
ARM GAS  /tmp/ccFN7ZkF.s 			page 16


 290:USB_HOST/Target/usbh_conf.c **** 
 291:USB_HOST/Target/usbh_conf.c ****   default:
 292:USB_HOST/Target/usbh_conf.c ****    speed = USBH_SPEED_FULL;
 527              		.loc 1 292 10 view .LVU117
 528 0014 0120     		movs	r0, #1
 529              	.L36:
 530              	.LVL42:
 293:USB_HOST/Target/usbh_conf.c ****     break;
 294:USB_HOST/Target/usbh_conf.c ****   }
 295:USB_HOST/Target/usbh_conf.c ****   return  speed;
 531              		.loc 1 295 3 is_stmt 1 view .LVU118
 296:USB_HOST/Target/usbh_conf.c **** }
 532              		.loc 1 296 1 is_stmt 0 view .LVU119
 533 0016 08BD     		pop	{r3, pc}
 534              	.LVL43:
 535              	.L37:
 284:USB_HOST/Target/usbh_conf.c ****     break;
 536              		.loc 1 284 11 view .LVU120
 537 0018 0120     		movs	r0, #1
 538 001a FCE7     		b	.L36
 539              	.L38:
 288:USB_HOST/Target/usbh_conf.c ****     break;
 540              		.loc 1 288 11 view .LVU121
 541 001c 0220     		movs	r0, #2
 542 001e FAE7     		b	.L36
 543              		.cfi_endproc
 544              	.LFE156:
 546              		.section	.text.USBH_LL_GetLastXferSize,"ax",%progbits
 547              		.align	1
 548              		.global	USBH_LL_GetLastXferSize
 549              		.syntax unified
 550              		.thumb
 551              		.thumb_func
 553              	USBH_LL_GetLastXferSize:
 554              	.LVL44:
 555              	.LFB158:
 297:USB_HOST/Target/usbh_conf.c **** 
 298:USB_HOST/Target/usbh_conf.c **** /**
 299:USB_HOST/Target/usbh_conf.c ****   * @brief  Reset the Host port of the low level driver.
 300:USB_HOST/Target/usbh_conf.c ****   * @param  phost: Host handle
 301:USB_HOST/Target/usbh_conf.c ****   * @retval USBH status
 302:USB_HOST/Target/usbh_conf.c ****   */
 303:USB_HOST/Target/usbh_conf.c **** USBH_StatusTypeDef USBH_LL_ResetPort(USBH_HandleTypeDef *phost)
 304:USB_HOST/Target/usbh_conf.c **** {
 305:USB_HOST/Target/usbh_conf.c ****   HAL_StatusTypeDef hal_status = HAL_OK;
 306:USB_HOST/Target/usbh_conf.c ****   USBH_StatusTypeDef usb_status = USBH_OK;
 307:USB_HOST/Target/usbh_conf.c **** 
 308:USB_HOST/Target/usbh_conf.c ****   hal_status = HAL_HCD_ResetPort(phost->pData);
 309:USB_HOST/Target/usbh_conf.c **** 
 310:USB_HOST/Target/usbh_conf.c ****   usb_status = USBH_Get_USB_Status(hal_status);
 311:USB_HOST/Target/usbh_conf.c **** 
 312:USB_HOST/Target/usbh_conf.c ****   return usb_status;
 313:USB_HOST/Target/usbh_conf.c **** }
 314:USB_HOST/Target/usbh_conf.c **** 
 315:USB_HOST/Target/usbh_conf.c **** /**
 316:USB_HOST/Target/usbh_conf.c ****   * @brief  Return the last transferred packet size.
 317:USB_HOST/Target/usbh_conf.c ****   * @param  phost: Host handle
ARM GAS  /tmp/ccFN7ZkF.s 			page 17


 318:USB_HOST/Target/usbh_conf.c ****   * @param  pipe: Pipe index
 319:USB_HOST/Target/usbh_conf.c ****   * @retval Packet size
 320:USB_HOST/Target/usbh_conf.c ****   */
 321:USB_HOST/Target/usbh_conf.c **** uint32_t USBH_LL_GetLastXferSize(USBH_HandleTypeDef *phost, uint8_t pipe)
 322:USB_HOST/Target/usbh_conf.c **** {
 556              		.loc 1 322 1 is_stmt 1 view -0
 557              		.cfi_startproc
 558              		@ args = 0, pretend = 0, frame = 0
 559              		@ frame_needed = 0, uses_anonymous_args = 0
 560              		.loc 1 322 1 is_stmt 0 view .LVU123
 561 0000 08B5     		push	{r3, lr}
 562              	.LCFI12:
 563              		.cfi_def_cfa_offset 8
 564              		.cfi_offset 3, -8
 565              		.cfi_offset 14, -4
 323:USB_HOST/Target/usbh_conf.c ****   return HAL_HCD_HC_GetXferCount(phost->pData, pipe);
 566              		.loc 1 323 3 is_stmt 1 view .LVU124
 567              		.loc 1 323 10 is_stmt 0 view .LVU125
 568 0002 D0F8D003 		ldr	r0, [r0, #976]
 569              	.LVL45:
 570              		.loc 1 323 10 view .LVU126
 571 0006 FFF7FEFF 		bl	HAL_HCD_HC_GetXferCount
 572              	.LVL46:
 324:USB_HOST/Target/usbh_conf.c **** }
 573              		.loc 1 324 1 view .LVU127
 574 000a 08BD     		pop	{r3, pc}
 575              		.cfi_endproc
 576              	.LFE158:
 578              		.section	.text.USBH_LL_GetURBState,"ax",%progbits
 579              		.align	1
 580              		.global	USBH_LL_GetURBState
 581              		.syntax unified
 582              		.thumb
 583              		.thumb_func
 585              	USBH_LL_GetURBState:
 586              	.LVL47:
 587              	.LFB162:
 325:USB_HOST/Target/usbh_conf.c **** 
 326:USB_HOST/Target/usbh_conf.c **** /**
 327:USB_HOST/Target/usbh_conf.c ****   * @brief  Open a pipe of the low level driver.
 328:USB_HOST/Target/usbh_conf.c ****   * @param  phost: Host handle
 329:USB_HOST/Target/usbh_conf.c ****   * @param  pipe_num: Pipe index
 330:USB_HOST/Target/usbh_conf.c ****   * @param  epnum: Endpoint number
 331:USB_HOST/Target/usbh_conf.c ****   * @param  dev_address: Device USB address
 332:USB_HOST/Target/usbh_conf.c ****   * @param  speed: Device Speed
 333:USB_HOST/Target/usbh_conf.c ****   * @param  ep_type: Endpoint type
 334:USB_HOST/Target/usbh_conf.c ****   * @param  mps: Endpoint max packet size
 335:USB_HOST/Target/usbh_conf.c ****   * @retval USBH status
 336:USB_HOST/Target/usbh_conf.c ****   */
 337:USB_HOST/Target/usbh_conf.c **** USBH_StatusTypeDef USBH_LL_OpenPipe(USBH_HandleTypeDef *phost, uint8_t pipe_num, uint8_t epnum,
 338:USB_HOST/Target/usbh_conf.c ****                                     uint8_t dev_address, uint8_t speed, uint8_t ep_type, uint16_t m
 339:USB_HOST/Target/usbh_conf.c **** {
 340:USB_HOST/Target/usbh_conf.c ****   HAL_StatusTypeDef hal_status = HAL_OK;
 341:USB_HOST/Target/usbh_conf.c ****   USBH_StatusTypeDef usb_status = USBH_OK;
 342:USB_HOST/Target/usbh_conf.c **** 
 343:USB_HOST/Target/usbh_conf.c ****   hal_status = HAL_HCD_HC_Init(phost->pData, pipe_num, epnum,
 344:USB_HOST/Target/usbh_conf.c ****                                dev_address, speed, ep_type, mps);
ARM GAS  /tmp/ccFN7ZkF.s 			page 18


 345:USB_HOST/Target/usbh_conf.c **** 
 346:USB_HOST/Target/usbh_conf.c ****   usb_status = USBH_Get_USB_Status(hal_status);
 347:USB_HOST/Target/usbh_conf.c **** 
 348:USB_HOST/Target/usbh_conf.c ****   return usb_status;
 349:USB_HOST/Target/usbh_conf.c **** }
 350:USB_HOST/Target/usbh_conf.c **** 
 351:USB_HOST/Target/usbh_conf.c **** /**
 352:USB_HOST/Target/usbh_conf.c ****   * @brief  Close a pipe of the low level driver.
 353:USB_HOST/Target/usbh_conf.c ****   * @param  phost: Host handle
 354:USB_HOST/Target/usbh_conf.c ****   * @param  pipe: Pipe index
 355:USB_HOST/Target/usbh_conf.c ****   * @retval USBH status
 356:USB_HOST/Target/usbh_conf.c ****   */
 357:USB_HOST/Target/usbh_conf.c **** USBH_StatusTypeDef USBH_LL_ClosePipe(USBH_HandleTypeDef *phost, uint8_t pipe)
 358:USB_HOST/Target/usbh_conf.c **** {
 359:USB_HOST/Target/usbh_conf.c ****   HAL_StatusTypeDef hal_status = HAL_OK;
 360:USB_HOST/Target/usbh_conf.c ****   USBH_StatusTypeDef usb_status = USBH_OK;
 361:USB_HOST/Target/usbh_conf.c **** 
 362:USB_HOST/Target/usbh_conf.c ****   hal_status = HAL_HCD_HC_Halt(phost->pData, pipe);
 363:USB_HOST/Target/usbh_conf.c **** 
 364:USB_HOST/Target/usbh_conf.c ****   usb_status = USBH_Get_USB_Status(hal_status);
 365:USB_HOST/Target/usbh_conf.c **** 
 366:USB_HOST/Target/usbh_conf.c ****   return usb_status;
 367:USB_HOST/Target/usbh_conf.c **** }
 368:USB_HOST/Target/usbh_conf.c **** 
 369:USB_HOST/Target/usbh_conf.c **** /**
 370:USB_HOST/Target/usbh_conf.c ****   * @brief  Submit a new URB to the low level driver.
 371:USB_HOST/Target/usbh_conf.c ****   * @param  phost: Host handle
 372:USB_HOST/Target/usbh_conf.c ****   * @param  pipe: Pipe index
 373:USB_HOST/Target/usbh_conf.c ****   *         This parameter can be a value from 1 to 15
 374:USB_HOST/Target/usbh_conf.c ****   * @param  direction : Channel number
 375:USB_HOST/Target/usbh_conf.c ****   *          This parameter can be one of the these values:
 376:USB_HOST/Target/usbh_conf.c ****   *           0 : Output
 377:USB_HOST/Target/usbh_conf.c ****   *           1 : Input
 378:USB_HOST/Target/usbh_conf.c ****   * @param  ep_type : Endpoint Type
 379:USB_HOST/Target/usbh_conf.c ****   *          This parameter can be one of the these values:
 380:USB_HOST/Target/usbh_conf.c ****   *            @arg EP_TYPE_CTRL: Control type
 381:USB_HOST/Target/usbh_conf.c ****   *            @arg EP_TYPE_ISOC: Isochrounous type
 382:USB_HOST/Target/usbh_conf.c ****   *            @arg EP_TYPE_BULK: Bulk type
 383:USB_HOST/Target/usbh_conf.c ****   *            @arg EP_TYPE_INTR: Interrupt type
 384:USB_HOST/Target/usbh_conf.c ****   * @param  token : Endpoint Type
 385:USB_HOST/Target/usbh_conf.c ****   *          This parameter can be one of the these values:
 386:USB_HOST/Target/usbh_conf.c ****   *            @arg 0: PID_SETUP
 387:USB_HOST/Target/usbh_conf.c ****   *            @arg 1: PID_DATA
 388:USB_HOST/Target/usbh_conf.c ****   * @param  pbuff : pointer to URB data
 389:USB_HOST/Target/usbh_conf.c ****   * @param  length : Length of URB data
 390:USB_HOST/Target/usbh_conf.c ****   * @param  do_ping : activate do ping protocol (for high speed only)
 391:USB_HOST/Target/usbh_conf.c ****   *          This parameter can be one of the these values:
 392:USB_HOST/Target/usbh_conf.c ****   *           0 : do ping inactive
 393:USB_HOST/Target/usbh_conf.c ****   *           1 : do ping active
 394:USB_HOST/Target/usbh_conf.c ****   * @retval Status
 395:USB_HOST/Target/usbh_conf.c ****   */
 396:USB_HOST/Target/usbh_conf.c **** USBH_StatusTypeDef USBH_LL_SubmitURB(USBH_HandleTypeDef *phost, uint8_t pipe, uint8_t direction,
 397:USB_HOST/Target/usbh_conf.c ****                                      uint8_t ep_type, uint8_t token, uint8_t *pbuff, uint16_t lengt
 398:USB_HOST/Target/usbh_conf.c ****                                      uint8_t do_ping)
 399:USB_HOST/Target/usbh_conf.c **** {
 400:USB_HOST/Target/usbh_conf.c ****   HAL_StatusTypeDef hal_status = HAL_OK;
 401:USB_HOST/Target/usbh_conf.c ****   USBH_StatusTypeDef usb_status = USBH_OK;
ARM GAS  /tmp/ccFN7ZkF.s 			page 19


 402:USB_HOST/Target/usbh_conf.c **** 
 403:USB_HOST/Target/usbh_conf.c ****   hal_status = HAL_HCD_HC_SubmitRequest(phost->pData, pipe, direction ,
 404:USB_HOST/Target/usbh_conf.c ****                                         ep_type, token, pbuff, length,
 405:USB_HOST/Target/usbh_conf.c ****                                         do_ping);
 406:USB_HOST/Target/usbh_conf.c ****   usb_status =  USBH_Get_USB_Status(hal_status);
 407:USB_HOST/Target/usbh_conf.c **** 
 408:USB_HOST/Target/usbh_conf.c ****   return usb_status;
 409:USB_HOST/Target/usbh_conf.c **** }
 410:USB_HOST/Target/usbh_conf.c **** 
 411:USB_HOST/Target/usbh_conf.c **** /**
 412:USB_HOST/Target/usbh_conf.c ****   * @brief  Get a URB state from the low level driver.
 413:USB_HOST/Target/usbh_conf.c ****   * @param  phost: Host handle
 414:USB_HOST/Target/usbh_conf.c ****   * @param  pipe: Pipe index
 415:USB_HOST/Target/usbh_conf.c ****   *         This parameter can be a value from 1 to 15
 416:USB_HOST/Target/usbh_conf.c ****   * @retval URB state
 417:USB_HOST/Target/usbh_conf.c ****   *          This parameter can be one of the these values:
 418:USB_HOST/Target/usbh_conf.c ****   *            @arg URB_IDLE
 419:USB_HOST/Target/usbh_conf.c ****   *            @arg URB_DONE
 420:USB_HOST/Target/usbh_conf.c ****   *            @arg URB_NOTREADY
 421:USB_HOST/Target/usbh_conf.c ****   *            @arg URB_NYET
 422:USB_HOST/Target/usbh_conf.c ****   *            @arg URB_ERROR
 423:USB_HOST/Target/usbh_conf.c ****   *            @arg URB_STALL
 424:USB_HOST/Target/usbh_conf.c ****   */
 425:USB_HOST/Target/usbh_conf.c **** USBH_URBStateTypeDef USBH_LL_GetURBState(USBH_HandleTypeDef *phost, uint8_t pipe)
 426:USB_HOST/Target/usbh_conf.c **** {
 588              		.loc 1 426 1 is_stmt 1 view -0
 589              		.cfi_startproc
 590              		@ args = 0, pretend = 0, frame = 0
 591              		@ frame_needed = 0, uses_anonymous_args = 0
 592              		.loc 1 426 1 is_stmt 0 view .LVU129
 593 0000 08B5     		push	{r3, lr}
 594              	.LCFI13:
 595              		.cfi_def_cfa_offset 8
 596              		.cfi_offset 3, -8
 597              		.cfi_offset 14, -4
 427:USB_HOST/Target/usbh_conf.c ****   return (USBH_URBStateTypeDef)HAL_HCD_HC_GetURBState (phost->pData, pipe);
 598              		.loc 1 427 3 is_stmt 1 view .LVU130
 599              		.loc 1 427 32 is_stmt 0 view .LVU131
 600 0002 D0F8D003 		ldr	r0, [r0, #976]
 601              	.LVL48:
 602              		.loc 1 427 32 view .LVU132
 603 0006 FFF7FEFF 		bl	HAL_HCD_HC_GetURBState
 604              	.LVL49:
 428:USB_HOST/Target/usbh_conf.c **** }
 605              		.loc 1 428 1 view .LVU133
 606 000a 08BD     		pop	{r3, pc}
 607              		.cfi_endproc
 608              	.LFE162:
 610              		.section	.text.USBH_LL_DriverVBUS,"ax",%progbits
 611              		.align	1
 612              		.global	USBH_LL_DriverVBUS
 613              		.syntax unified
 614              		.thumb
 615              		.thumb_func
 617              	USBH_LL_DriverVBUS:
 618              	.LVL50:
 619              	.LFB163:
ARM GAS  /tmp/ccFN7ZkF.s 			page 20


 429:USB_HOST/Target/usbh_conf.c **** 
 430:USB_HOST/Target/usbh_conf.c **** /**
 431:USB_HOST/Target/usbh_conf.c ****   * @brief  Drive VBUS.
 432:USB_HOST/Target/usbh_conf.c ****   * @param  phost: Host handle
 433:USB_HOST/Target/usbh_conf.c ****   * @param  state : VBUS state
 434:USB_HOST/Target/usbh_conf.c ****   *          This parameter can be one of the these values:
 435:USB_HOST/Target/usbh_conf.c ****   *           0 : VBUS Inactive
 436:USB_HOST/Target/usbh_conf.c ****   *           1 : VBUS Active
 437:USB_HOST/Target/usbh_conf.c ****   * @retval Status
 438:USB_HOST/Target/usbh_conf.c ****   */
 439:USB_HOST/Target/usbh_conf.c **** USBH_StatusTypeDef USBH_LL_DriverVBUS(USBH_HandleTypeDef *phost, uint8_t state)
 440:USB_HOST/Target/usbh_conf.c **** {
 620              		.loc 1 440 1 is_stmt 1 view -0
 621              		.cfi_startproc
 622              		@ args = 0, pretend = 0, frame = 0
 623              		@ frame_needed = 0, uses_anonymous_args = 0
 624              		.loc 1 440 1 is_stmt 0 view .LVU135
 625 0000 08B5     		push	{r3, lr}
 626              	.LCFI14:
 627              		.cfi_def_cfa_offset 8
 628              		.cfi_offset 3, -8
 629              		.cfi_offset 14, -4
 441:USB_HOST/Target/usbh_conf.c ****   if (phost->id == HOST_FS) {
 630              		.loc 1 441 3 is_stmt 1 view .LVU136
 631              		.loc 1 441 12 is_stmt 0 view .LVU137
 632 0002 90F8CC33 		ldrb	r3, [r0, #972]	@ zero_extendqisi2
 633              		.loc 1 441 6 view .LVU138
 634 0006 012B     		cmp	r3, #1
 635 0008 04D0     		beq	.L48
 636              	.LVL51:
 637              	.L46:
 442:USB_HOST/Target/usbh_conf.c ****     MX_DriverVbusFS(state);
 443:USB_HOST/Target/usbh_conf.c ****   }
 444:USB_HOST/Target/usbh_conf.c **** 
 445:USB_HOST/Target/usbh_conf.c ****   /* USER CODE BEGIN 0 */
 446:USB_HOST/Target/usbh_conf.c **** 
 447:USB_HOST/Target/usbh_conf.c ****   /* USER CODE END 0*/
 448:USB_HOST/Target/usbh_conf.c **** 
 449:USB_HOST/Target/usbh_conf.c ****   HAL_Delay(200);
 638              		.loc 1 449 3 is_stmt 1 view .LVU139
 639 000a C820     		movs	r0, #200
 640 000c FFF7FEFF 		bl	HAL_Delay
 641              	.LVL52:
 450:USB_HOST/Target/usbh_conf.c ****   return USBH_OK;
 642              		.loc 1 450 3 view .LVU140
 451:USB_HOST/Target/usbh_conf.c **** }
 643              		.loc 1 451 1 is_stmt 0 view .LVU141
 644 0010 0020     		movs	r0, #0
 645 0012 08BD     		pop	{r3, pc}
 646              	.LVL53:
 647              	.L48:
 442:USB_HOST/Target/usbh_conf.c ****     MX_DriverVbusFS(state);
 648              		.loc 1 442 5 is_stmt 1 view .LVU142
 649 0014 0846     		mov	r0, r1
 650              	.LVL54:
 442:USB_HOST/Target/usbh_conf.c ****     MX_DriverVbusFS(state);
 651              		.loc 1 442 5 is_stmt 0 view .LVU143
ARM GAS  /tmp/ccFN7ZkF.s 			page 21


 652 0016 FFF7FEFF 		bl	MX_DriverVbusFS
 653              	.LVL55:
 442:USB_HOST/Target/usbh_conf.c ****     MX_DriverVbusFS(state);
 654              		.loc 1 442 5 view .LVU144
 655 001a F6E7     		b	.L46
 656              		.cfi_endproc
 657              	.LFE163:
 659              		.section	.text.USBH_LL_SetToggle,"ax",%progbits
 660              		.align	1
 661              		.global	USBH_LL_SetToggle
 662              		.syntax unified
 663              		.thumb
 664              		.thumb_func
 666              	USBH_LL_SetToggle:
 667              	.LVL56:
 668              	.LFB164:
 452:USB_HOST/Target/usbh_conf.c **** 
 453:USB_HOST/Target/usbh_conf.c **** /**
 454:USB_HOST/Target/usbh_conf.c ****   * @brief  Set toggle for a pipe.
 455:USB_HOST/Target/usbh_conf.c ****   * @param  phost: Host handle
 456:USB_HOST/Target/usbh_conf.c ****   * @param  pipe: Pipe index
 457:USB_HOST/Target/usbh_conf.c ****   * @param  toggle: toggle (0/1)
 458:USB_HOST/Target/usbh_conf.c ****   * @retval Status
 459:USB_HOST/Target/usbh_conf.c ****   */
 460:USB_HOST/Target/usbh_conf.c **** USBH_StatusTypeDef USBH_LL_SetToggle(USBH_HandleTypeDef *phost, uint8_t pipe, uint8_t toggle)
 461:USB_HOST/Target/usbh_conf.c **** {
 669              		.loc 1 461 1 is_stmt 1 view -0
 670              		.cfi_startproc
 671              		@ args = 0, pretend = 0, frame = 0
 672              		@ frame_needed = 0, uses_anonymous_args = 0
 673              		@ link register save eliminated.
 462:USB_HOST/Target/usbh_conf.c ****   HCD_HandleTypeDef *pHandle;
 674              		.loc 1 462 3 view .LVU146
 463:USB_HOST/Target/usbh_conf.c ****   pHandle = phost->pData;
 675              		.loc 1 463 3 view .LVU147
 676              		.loc 1 463 11 is_stmt 0 view .LVU148
 677 0000 D0F8D033 		ldr	r3, [r0, #976]
 678              	.LVL57:
 464:USB_HOST/Target/usbh_conf.c **** 
 465:USB_HOST/Target/usbh_conf.c ****   if(pHandle->hc[pipe].ep_is_in)
 679              		.loc 1 465 3 is_stmt 1 view .LVU149
 680              		.loc 1 465 23 is_stmt 0 view .LVU150
 681 0004 2C20     		movs	r0, #44
 682              	.LVL58:
 683              		.loc 1 465 23 view .LVU151
 684 0006 00FB0130 		mla	r0, r0, r1, r3
 685 000a 90F83B00 		ldrb	r0, [r0, #59]	@ zero_extendqisi2
 686              		.loc 1 465 5 view .LVU152
 687 000e 30B1     		cbz	r0, .L50
 466:USB_HOST/Target/usbh_conf.c ****   {
 467:USB_HOST/Target/usbh_conf.c ****     pHandle->hc[pipe].toggle_in = toggle;
 688              		.loc 1 467 5 is_stmt 1 view .LVU153
 689              		.loc 1 467 33 is_stmt 0 view .LVU154
 690 0010 2C20     		movs	r0, #44
 691 0012 00FB0131 		mla	r1, r0, r1, r3
 692              	.LVL59:
 693              		.loc 1 467 33 view .LVU155
ARM GAS  /tmp/ccFN7ZkF.s 			page 22


 694 0016 81F85420 		strb	r2, [r1, #84]
 695              	.L51:
 468:USB_HOST/Target/usbh_conf.c ****   }
 469:USB_HOST/Target/usbh_conf.c ****   else
 470:USB_HOST/Target/usbh_conf.c ****   {
 471:USB_HOST/Target/usbh_conf.c ****     pHandle->hc[pipe].toggle_out = toggle;
 472:USB_HOST/Target/usbh_conf.c ****   }
 473:USB_HOST/Target/usbh_conf.c **** 
 474:USB_HOST/Target/usbh_conf.c ****   return USBH_OK;
 696              		.loc 1 474 3 is_stmt 1 view .LVU156
 475:USB_HOST/Target/usbh_conf.c **** }
 697              		.loc 1 475 1 is_stmt 0 view .LVU157
 698 001a 0020     		movs	r0, #0
 699 001c 7047     		bx	lr
 700              	.LVL60:
 701              	.L50:
 471:USB_HOST/Target/usbh_conf.c ****   }
 702              		.loc 1 471 5 is_stmt 1 view .LVU158
 471:USB_HOST/Target/usbh_conf.c ****   }
 703              		.loc 1 471 34 is_stmt 0 view .LVU159
 704 001e 2C20     		movs	r0, #44
 705 0020 00FB0131 		mla	r1, r0, r1, r3
 706              	.LVL61:
 471:USB_HOST/Target/usbh_conf.c ****   }
 707              		.loc 1 471 34 view .LVU160
 708 0024 81F85520 		strb	r2, [r1, #85]
 709 0028 F7E7     		b	.L51
 710              		.cfi_endproc
 711              	.LFE164:
 713              		.section	.text.USBH_LL_GetToggle,"ax",%progbits
 714              		.align	1
 715              		.global	USBH_LL_GetToggle
 716              		.syntax unified
 717              		.thumb
 718              		.thumb_func
 720              	USBH_LL_GetToggle:
 721              	.LVL62:
 722              	.LFB165:
 476:USB_HOST/Target/usbh_conf.c **** 
 477:USB_HOST/Target/usbh_conf.c **** /**
 478:USB_HOST/Target/usbh_conf.c ****   * @brief  Return the current toggle of a pipe.
 479:USB_HOST/Target/usbh_conf.c ****   * @param  phost: Host handle
 480:USB_HOST/Target/usbh_conf.c ****   * @param  pipe: Pipe index
 481:USB_HOST/Target/usbh_conf.c ****   * @retval toggle (0/1)
 482:USB_HOST/Target/usbh_conf.c ****   */
 483:USB_HOST/Target/usbh_conf.c **** uint8_t USBH_LL_GetToggle(USBH_HandleTypeDef *phost, uint8_t pipe)
 484:USB_HOST/Target/usbh_conf.c **** {
 723              		.loc 1 484 1 is_stmt 1 view -0
 724              		.cfi_startproc
 725              		@ args = 0, pretend = 0, frame = 0
 726              		@ frame_needed = 0, uses_anonymous_args = 0
 727              		@ link register save eliminated.
 485:USB_HOST/Target/usbh_conf.c ****   uint8_t toggle = 0;
 728              		.loc 1 485 3 view .LVU162
 486:USB_HOST/Target/usbh_conf.c ****   HCD_HandleTypeDef *pHandle;
 729              		.loc 1 486 3 view .LVU163
 487:USB_HOST/Target/usbh_conf.c ****   pHandle = phost->pData;
ARM GAS  /tmp/ccFN7ZkF.s 			page 23


 730              		.loc 1 487 3 view .LVU164
 731              		.loc 1 487 11 is_stmt 0 view .LVU165
 732 0000 D0F8D033 		ldr	r3, [r0, #976]
 733              	.LVL63:
 488:USB_HOST/Target/usbh_conf.c **** 
 489:USB_HOST/Target/usbh_conf.c ****   if(pHandle->hc[pipe].ep_is_in)
 734              		.loc 1 489 3 is_stmt 1 view .LVU166
 735              		.loc 1 489 23 is_stmt 0 view .LVU167
 736 0004 2C22     		movs	r2, #44
 737 0006 02FB0132 		mla	r2, r2, r1, r3
 738 000a 92F83B20 		ldrb	r2, [r2, #59]	@ zero_extendqisi2
 739              		.loc 1 489 5 view .LVU168
 740 000e 2AB1     		cbz	r2, .L53
 490:USB_HOST/Target/usbh_conf.c ****   {
 491:USB_HOST/Target/usbh_conf.c ****     toggle = pHandle->hc[pipe].toggle_in;
 741              		.loc 1 491 5 is_stmt 1 view .LVU169
 742              		.loc 1 491 12 is_stmt 0 view .LVU170
 743 0010 2C22     		movs	r2, #44
 744 0012 02FB0131 		mla	r1, r2, r1, r3
 745              	.LVL64:
 746              		.loc 1 491 12 view .LVU171
 747 0016 91F85400 		ldrb	r0, [r1, #84]	@ zero_extendqisi2
 748              	.LVL65:
 749              		.loc 1 491 12 view .LVU172
 750 001a 7047     		bx	lr
 751              	.LVL66:
 752              	.L53:
 492:USB_HOST/Target/usbh_conf.c ****   }
 493:USB_HOST/Target/usbh_conf.c ****   else
 494:USB_HOST/Target/usbh_conf.c ****   {
 495:USB_HOST/Target/usbh_conf.c ****     toggle = pHandle->hc[pipe].toggle_out;
 753              		.loc 1 495 5 is_stmt 1 view .LVU173
 754              		.loc 1 495 12 is_stmt 0 view .LVU174
 755 001c 2C22     		movs	r2, #44
 756 001e 02FB0131 		mla	r1, r2, r1, r3
 757              	.LVL67:
 758              		.loc 1 495 12 view .LVU175
 759 0022 91F85500 		ldrb	r0, [r1, #85]	@ zero_extendqisi2
 760              	.LVL68:
 496:USB_HOST/Target/usbh_conf.c ****   }
 497:USB_HOST/Target/usbh_conf.c ****   return toggle;
 761              		.loc 1 497 3 is_stmt 1 view .LVU176
 498:USB_HOST/Target/usbh_conf.c **** }
 762              		.loc 1 498 1 is_stmt 0 view .LVU177
 763 0026 7047     		bx	lr
 764              		.cfi_endproc
 765              	.LFE165:
 767              		.section	.text.USBH_Delay,"ax",%progbits
 768              		.align	1
 769              		.global	USBH_Delay
 770              		.syntax unified
 771              		.thumb
 772              		.thumb_func
 774              	USBH_Delay:
 775              	.LVL69:
 776              	.LFB166:
 499:USB_HOST/Target/usbh_conf.c **** 
ARM GAS  /tmp/ccFN7ZkF.s 			page 24


 500:USB_HOST/Target/usbh_conf.c **** /**
 501:USB_HOST/Target/usbh_conf.c ****   * @brief  Delay routine for the USB Host Library
 502:USB_HOST/Target/usbh_conf.c ****   * @param  Delay: Delay in ms
 503:USB_HOST/Target/usbh_conf.c ****   * @retval None
 504:USB_HOST/Target/usbh_conf.c ****   */
 505:USB_HOST/Target/usbh_conf.c **** void USBH_Delay(uint32_t Delay)
 506:USB_HOST/Target/usbh_conf.c **** {
 777              		.loc 1 506 1 is_stmt 1 view -0
 778              		.cfi_startproc
 779              		@ args = 0, pretend = 0, frame = 0
 780              		@ frame_needed = 0, uses_anonymous_args = 0
 781              		.loc 1 506 1 is_stmt 0 view .LVU179
 782 0000 08B5     		push	{r3, lr}
 783              	.LCFI15:
 784              		.cfi_def_cfa_offset 8
 785              		.cfi_offset 3, -8
 786              		.cfi_offset 14, -4
 507:USB_HOST/Target/usbh_conf.c ****   HAL_Delay(Delay);
 787              		.loc 1 507 3 is_stmt 1 view .LVU180
 788 0002 FFF7FEFF 		bl	HAL_Delay
 789              	.LVL70:
 508:USB_HOST/Target/usbh_conf.c **** }
 790              		.loc 1 508 1 is_stmt 0 view .LVU181
 791 0006 08BD     		pop	{r3, pc}
 792              		.cfi_endproc
 793              	.LFE166:
 795              		.section	.text.USBH_Get_USB_Status,"ax",%progbits
 796              		.align	1
 797              		.global	USBH_Get_USB_Status
 798              		.syntax unified
 799              		.thumb
 800              		.thumb_func
 802              	USBH_Get_USB_Status:
 803              	.LVL71:
 804              	.LFB167:
 509:USB_HOST/Target/usbh_conf.c **** 
 510:USB_HOST/Target/usbh_conf.c **** /**
 511:USB_HOST/Target/usbh_conf.c ****   * @brief  Returns the USB status depending on the HAL status:
 512:USB_HOST/Target/usbh_conf.c ****   * @param  hal_status: HAL status
 513:USB_HOST/Target/usbh_conf.c ****   * @retval USB status
 514:USB_HOST/Target/usbh_conf.c ****   */
 515:USB_HOST/Target/usbh_conf.c **** USBH_StatusTypeDef USBH_Get_USB_Status(HAL_StatusTypeDef hal_status)
 516:USB_HOST/Target/usbh_conf.c **** {
 805              		.loc 1 516 1 is_stmt 1 view -0
 806              		.cfi_startproc
 807              		@ args = 0, pretend = 0, frame = 0
 808              		@ frame_needed = 0, uses_anonymous_args = 0
 809              		@ link register save eliminated.
 517:USB_HOST/Target/usbh_conf.c ****   USBH_StatusTypeDef usb_status = USBH_OK;
 810              		.loc 1 517 3 view .LVU183
 518:USB_HOST/Target/usbh_conf.c **** 
 519:USB_HOST/Target/usbh_conf.c ****   switch (hal_status)
 811              		.loc 1 519 3 view .LVU184
 812 0000 0228     		cmp	r0, #2
 813 0002 05D8     		bhi	.L62
 814 0004 DFE800F0 		tbb	[pc, r0]
 815              	.L60:
ARM GAS  /tmp/ccFN7ZkF.s 			page 25


 816 0008 05       		.byte	(.L58-.L60)/2
 817 0009 04       		.byte	(.L62-.L60)/2
 818 000a 02       		.byte	(.L59-.L60)/2
 819 000b 00       		.p2align 1
 820              	.L59:
 520:USB_HOST/Target/usbh_conf.c ****   {
 521:USB_HOST/Target/usbh_conf.c ****     case HAL_OK :
 522:USB_HOST/Target/usbh_conf.c ****       usb_status = USBH_OK;
 523:USB_HOST/Target/usbh_conf.c ****     break;
 524:USB_HOST/Target/usbh_conf.c ****     case HAL_ERROR :
 525:USB_HOST/Target/usbh_conf.c ****       usb_status = USBH_FAIL;
 526:USB_HOST/Target/usbh_conf.c ****     break;
 527:USB_HOST/Target/usbh_conf.c ****     case HAL_BUSY :
 528:USB_HOST/Target/usbh_conf.c ****       usb_status = USBH_BUSY;
 821              		.loc 1 528 7 view .LVU185
 822              	.LVL72:
 529:USB_HOST/Target/usbh_conf.c ****     break;
 823              		.loc 1 529 5 view .LVU186
 528:USB_HOST/Target/usbh_conf.c ****     break;
 824              		.loc 1 528 18 is_stmt 0 view .LVU187
 825 000c 0120     		movs	r0, #1
 826              	.LVL73:
 827              		.loc 1 529 5 view .LVU188
 828 000e 7047     		bx	lr
 829              	.LVL74:
 830              	.L62:
 525:USB_HOST/Target/usbh_conf.c ****     break;
 831              		.loc 1 525 18 view .LVU189
 832 0010 0220     		movs	r0, #2
 833              	.LVL75:
 834              	.L58:
 530:USB_HOST/Target/usbh_conf.c ****     case HAL_TIMEOUT :
 531:USB_HOST/Target/usbh_conf.c ****       usb_status = USBH_FAIL;
 532:USB_HOST/Target/usbh_conf.c ****     break;
 533:USB_HOST/Target/usbh_conf.c ****     default :
 534:USB_HOST/Target/usbh_conf.c ****       usb_status = USBH_FAIL;
 535:USB_HOST/Target/usbh_conf.c ****     break;
 536:USB_HOST/Target/usbh_conf.c ****   }
 537:USB_HOST/Target/usbh_conf.c ****   return usb_status;
 835              		.loc 1 537 3 is_stmt 1 view .LVU190
 538:USB_HOST/Target/usbh_conf.c **** }
 836              		.loc 1 538 1 is_stmt 0 view .LVU191
 837 0012 7047     		bx	lr
 838              		.cfi_endproc
 839              	.LFE167:
 841              		.section	.text.USBH_LL_DeInit,"ax",%progbits
 842              		.align	1
 843              		.global	USBH_LL_DeInit
 844              		.syntax unified
 845              		.thumb
 846              		.thumb_func
 848              	USBH_LL_DeInit:
 849              	.LVL76:
 850              	.LFB153:
 223:USB_HOST/Target/usbh_conf.c ****   HAL_StatusTypeDef hal_status = HAL_OK;
 851              		.loc 1 223 1 is_stmt 1 view -0
 852              		.cfi_startproc
ARM GAS  /tmp/ccFN7ZkF.s 			page 26


 853              		@ args = 0, pretend = 0, frame = 0
 854              		@ frame_needed = 0, uses_anonymous_args = 0
 223:USB_HOST/Target/usbh_conf.c ****   HAL_StatusTypeDef hal_status = HAL_OK;
 855              		.loc 1 223 1 is_stmt 0 view .LVU193
 856 0000 08B5     		push	{r3, lr}
 857              	.LCFI16:
 858              		.cfi_def_cfa_offset 8
 859              		.cfi_offset 3, -8
 860              		.cfi_offset 14, -4
 224:USB_HOST/Target/usbh_conf.c ****   USBH_StatusTypeDef usb_status = USBH_OK;
 861              		.loc 1 224 3 is_stmt 1 view .LVU194
 862              	.LVL77:
 225:USB_HOST/Target/usbh_conf.c **** 
 863              		.loc 1 225 3 view .LVU195
 227:USB_HOST/Target/usbh_conf.c **** 
 864              		.loc 1 227 3 view .LVU196
 227:USB_HOST/Target/usbh_conf.c **** 
 865              		.loc 1 227 16 is_stmt 0 view .LVU197
 866 0002 D0F8D003 		ldr	r0, [r0, #976]
 867              	.LVL78:
 227:USB_HOST/Target/usbh_conf.c **** 
 868              		.loc 1 227 16 view .LVU198
 869 0006 FFF7FEFF 		bl	HAL_HCD_DeInit
 870              	.LVL79:
 229:USB_HOST/Target/usbh_conf.c **** 
 871              		.loc 1 229 3 is_stmt 1 view .LVU199
 229:USB_HOST/Target/usbh_conf.c **** 
 872              		.loc 1 229 16 is_stmt 0 view .LVU200
 873 000a FFF7FEFF 		bl	USBH_Get_USB_Status
 874              	.LVL80:
 231:USB_HOST/Target/usbh_conf.c **** }
 875              		.loc 1 231 3 is_stmt 1 view .LVU201
 232:USB_HOST/Target/usbh_conf.c **** 
 876              		.loc 1 232 1 is_stmt 0 view .LVU202
 877 000e 08BD     		pop	{r3, pc}
 878              		.cfi_endproc
 879              	.LFE153:
 881              		.section	.text.USBH_LL_Start,"ax",%progbits
 882              		.align	1
 883              		.global	USBH_LL_Start
 884              		.syntax unified
 885              		.thumb
 886              		.thumb_func
 888              	USBH_LL_Start:
 889              	.LVL81:
 890              	.LFB154:
 240:USB_HOST/Target/usbh_conf.c ****   HAL_StatusTypeDef hal_status = HAL_OK;
 891              		.loc 1 240 1 is_stmt 1 view -0
 892              		.cfi_startproc
 893              		@ args = 0, pretend = 0, frame = 0
 894              		@ frame_needed = 0, uses_anonymous_args = 0
 240:USB_HOST/Target/usbh_conf.c ****   HAL_StatusTypeDef hal_status = HAL_OK;
 895              		.loc 1 240 1 is_stmt 0 view .LVU204
 896 0000 08B5     		push	{r3, lr}
 897              	.LCFI17:
 898              		.cfi_def_cfa_offset 8
 899              		.cfi_offset 3, -8
ARM GAS  /tmp/ccFN7ZkF.s 			page 27


 900              		.cfi_offset 14, -4
 241:USB_HOST/Target/usbh_conf.c ****   USBH_StatusTypeDef usb_status = USBH_OK;
 901              		.loc 1 241 3 is_stmt 1 view .LVU205
 902              	.LVL82:
 242:USB_HOST/Target/usbh_conf.c **** 
 903              		.loc 1 242 3 view .LVU206
 244:USB_HOST/Target/usbh_conf.c **** 
 904              		.loc 1 244 3 view .LVU207
 244:USB_HOST/Target/usbh_conf.c **** 
 905              		.loc 1 244 16 is_stmt 0 view .LVU208
 906 0002 D0F8D003 		ldr	r0, [r0, #976]
 907              	.LVL83:
 244:USB_HOST/Target/usbh_conf.c **** 
 908              		.loc 1 244 16 view .LVU209
 909 0006 FFF7FEFF 		bl	HAL_HCD_Start
 910              	.LVL84:
 246:USB_HOST/Target/usbh_conf.c **** 
 911              		.loc 1 246 3 is_stmt 1 view .LVU210
 246:USB_HOST/Target/usbh_conf.c **** 
 912              		.loc 1 246 16 is_stmt 0 view .LVU211
 913 000a FFF7FEFF 		bl	USBH_Get_USB_Status
 914              	.LVL85:
 248:USB_HOST/Target/usbh_conf.c **** }
 915              		.loc 1 248 3 is_stmt 1 view .LVU212
 249:USB_HOST/Target/usbh_conf.c **** 
 916              		.loc 1 249 1 is_stmt 0 view .LVU213
 917 000e 08BD     		pop	{r3, pc}
 918              		.cfi_endproc
 919              	.LFE154:
 921              		.section	.text.USBH_LL_Stop,"ax",%progbits
 922              		.align	1
 923              		.global	USBH_LL_Stop
 924              		.syntax unified
 925              		.thumb
 926              		.thumb_func
 928              	USBH_LL_Stop:
 929              	.LVL86:
 930              	.LFB155:
 257:USB_HOST/Target/usbh_conf.c ****   HAL_StatusTypeDef hal_status = HAL_OK;
 931              		.loc 1 257 1 is_stmt 1 view -0
 932              		.cfi_startproc
 933              		@ args = 0, pretend = 0, frame = 0
 934              		@ frame_needed = 0, uses_anonymous_args = 0
 257:USB_HOST/Target/usbh_conf.c ****   HAL_StatusTypeDef hal_status = HAL_OK;
 935              		.loc 1 257 1 is_stmt 0 view .LVU215
 936 0000 08B5     		push	{r3, lr}
 937              	.LCFI18:
 938              		.cfi_def_cfa_offset 8
 939              		.cfi_offset 3, -8
 940              		.cfi_offset 14, -4
 258:USB_HOST/Target/usbh_conf.c ****   USBH_StatusTypeDef usb_status = USBH_OK;
 941              		.loc 1 258 3 is_stmt 1 view .LVU216
 942              	.LVL87:
 259:USB_HOST/Target/usbh_conf.c **** 
 943              		.loc 1 259 3 view .LVU217
 261:USB_HOST/Target/usbh_conf.c **** 
 944              		.loc 1 261 3 view .LVU218
ARM GAS  /tmp/ccFN7ZkF.s 			page 28


 261:USB_HOST/Target/usbh_conf.c **** 
 945              		.loc 1 261 16 is_stmt 0 view .LVU219
 946 0002 D0F8D003 		ldr	r0, [r0, #976]
 947              	.LVL88:
 261:USB_HOST/Target/usbh_conf.c **** 
 948              		.loc 1 261 16 view .LVU220
 949 0006 FFF7FEFF 		bl	HAL_HCD_Stop
 950              	.LVL89:
 263:USB_HOST/Target/usbh_conf.c **** 
 951              		.loc 1 263 3 is_stmt 1 view .LVU221
 263:USB_HOST/Target/usbh_conf.c **** 
 952              		.loc 1 263 16 is_stmt 0 view .LVU222
 953 000a FFF7FEFF 		bl	USBH_Get_USB_Status
 954              	.LVL90:
 265:USB_HOST/Target/usbh_conf.c **** }
 955              		.loc 1 265 3 is_stmt 1 view .LVU223
 266:USB_HOST/Target/usbh_conf.c **** 
 956              		.loc 1 266 1 is_stmt 0 view .LVU224
 957 000e 08BD     		pop	{r3, pc}
 958              		.cfi_endproc
 959              	.LFE155:
 961              		.section	.text.USBH_LL_ResetPort,"ax",%progbits
 962              		.align	1
 963              		.global	USBH_LL_ResetPort
 964              		.syntax unified
 965              		.thumb
 966              		.thumb_func
 968              	USBH_LL_ResetPort:
 969              	.LVL91:
 970              	.LFB157:
 304:USB_HOST/Target/usbh_conf.c ****   HAL_StatusTypeDef hal_status = HAL_OK;
 971              		.loc 1 304 1 is_stmt 1 view -0
 972              		.cfi_startproc
 973              		@ args = 0, pretend = 0, frame = 0
 974              		@ frame_needed = 0, uses_anonymous_args = 0
 304:USB_HOST/Target/usbh_conf.c ****   HAL_StatusTypeDef hal_status = HAL_OK;
 975              		.loc 1 304 1 is_stmt 0 view .LVU226
 976 0000 08B5     		push	{r3, lr}
 977              	.LCFI19:
 978              		.cfi_def_cfa_offset 8
 979              		.cfi_offset 3, -8
 980              		.cfi_offset 14, -4
 305:USB_HOST/Target/usbh_conf.c ****   USBH_StatusTypeDef usb_status = USBH_OK;
 981              		.loc 1 305 3 is_stmt 1 view .LVU227
 982              	.LVL92:
 306:USB_HOST/Target/usbh_conf.c **** 
 983              		.loc 1 306 3 view .LVU228
 308:USB_HOST/Target/usbh_conf.c **** 
 984              		.loc 1 308 3 view .LVU229
 308:USB_HOST/Target/usbh_conf.c **** 
 985              		.loc 1 308 16 is_stmt 0 view .LVU230
 986 0002 D0F8D003 		ldr	r0, [r0, #976]
 987              	.LVL93:
 308:USB_HOST/Target/usbh_conf.c **** 
 988              		.loc 1 308 16 view .LVU231
 989 0006 FFF7FEFF 		bl	HAL_HCD_ResetPort
 990              	.LVL94:
ARM GAS  /tmp/ccFN7ZkF.s 			page 29


 310:USB_HOST/Target/usbh_conf.c **** 
 991              		.loc 1 310 3 is_stmt 1 view .LVU232
 310:USB_HOST/Target/usbh_conf.c **** 
 992              		.loc 1 310 16 is_stmt 0 view .LVU233
 993 000a FFF7FEFF 		bl	USBH_Get_USB_Status
 994              	.LVL95:
 312:USB_HOST/Target/usbh_conf.c **** }
 995              		.loc 1 312 3 is_stmt 1 view .LVU234
 313:USB_HOST/Target/usbh_conf.c **** 
 996              		.loc 1 313 1 is_stmt 0 view .LVU235
 997 000e 08BD     		pop	{r3, pc}
 998              		.cfi_endproc
 999              	.LFE157:
 1001              		.section	.text.USBH_LL_OpenPipe,"ax",%progbits
 1002              		.align	1
 1003              		.global	USBH_LL_OpenPipe
 1004              		.syntax unified
 1005              		.thumb
 1006              		.thumb_func
 1008              	USBH_LL_OpenPipe:
 1009              	.LVL96:
 1010              	.LFB159:
 339:USB_HOST/Target/usbh_conf.c ****   HAL_StatusTypeDef hal_status = HAL_OK;
 1011              		.loc 1 339 1 is_stmt 1 view -0
 1012              		.cfi_startproc
 1013              		@ args = 12, pretend = 0, frame = 0
 1014              		@ frame_needed = 0, uses_anonymous_args = 0
 339:USB_HOST/Target/usbh_conf.c ****   HAL_StatusTypeDef hal_status = HAL_OK;
 1015              		.loc 1 339 1 is_stmt 0 view .LVU237
 1016 0000 10B5     		push	{r4, lr}
 1017              	.LCFI20:
 1018              		.cfi_def_cfa_offset 8
 1019              		.cfi_offset 4, -8
 1020              		.cfi_offset 14, -4
 1021 0002 84B0     		sub	sp, sp, #16
 1022              	.LCFI21:
 1023              		.cfi_def_cfa_offset 24
 340:USB_HOST/Target/usbh_conf.c ****   USBH_StatusTypeDef usb_status = USBH_OK;
 1024              		.loc 1 340 3 is_stmt 1 view .LVU238
 1025              	.LVL97:
 341:USB_HOST/Target/usbh_conf.c **** 
 1026              		.loc 1 341 3 view .LVU239
 343:USB_HOST/Target/usbh_conf.c ****                                dev_address, speed, ep_type, mps);
 1027              		.loc 1 343 3 view .LVU240
 343:USB_HOST/Target/usbh_conf.c ****                                dev_address, speed, ep_type, mps);
 1028              		.loc 1 343 37 is_stmt 0 view .LVU241
 1029 0004 D0F8D003 		ldr	r0, [r0, #976]
 1030              	.LVL98:
 343:USB_HOST/Target/usbh_conf.c ****                                dev_address, speed, ep_type, mps);
 1031              		.loc 1 343 16 view .LVU242
 1032 0008 BDF82040 		ldrh	r4, [sp, #32]
 1033 000c 0294     		str	r4, [sp, #8]
 1034 000e 9DF81C40 		ldrb	r4, [sp, #28]	@ zero_extendqisi2
 1035 0012 0194     		str	r4, [sp, #4]
 1036 0014 9DF81840 		ldrb	r4, [sp, #24]	@ zero_extendqisi2
 1037 0018 0094     		str	r4, [sp]
 1038 001a FFF7FEFF 		bl	HAL_HCD_HC_Init
ARM GAS  /tmp/ccFN7ZkF.s 			page 30


 1039              	.LVL99:
 346:USB_HOST/Target/usbh_conf.c **** 
 1040              		.loc 1 346 3 is_stmt 1 view .LVU243
 346:USB_HOST/Target/usbh_conf.c **** 
 1041              		.loc 1 346 16 is_stmt 0 view .LVU244
 1042 001e FFF7FEFF 		bl	USBH_Get_USB_Status
 1043              	.LVL100:
 348:USB_HOST/Target/usbh_conf.c **** }
 1044              		.loc 1 348 3 is_stmt 1 view .LVU245
 349:USB_HOST/Target/usbh_conf.c **** 
 1045              		.loc 1 349 1 is_stmt 0 view .LVU246
 1046 0022 04B0     		add	sp, sp, #16
 1047              	.LCFI22:
 1048              		.cfi_def_cfa_offset 8
 1049              		@ sp needed
 1050 0024 10BD     		pop	{r4, pc}
 349:USB_HOST/Target/usbh_conf.c **** 
 1051              		.loc 1 349 1 view .LVU247
 1052              		.cfi_endproc
 1053              	.LFE159:
 1055              		.section	.text.USBH_LL_ClosePipe,"ax",%progbits
 1056              		.align	1
 1057              		.global	USBH_LL_ClosePipe
 1058              		.syntax unified
 1059              		.thumb
 1060              		.thumb_func
 1062              	USBH_LL_ClosePipe:
 1063              	.LVL101:
 1064              	.LFB160:
 358:USB_HOST/Target/usbh_conf.c ****   HAL_StatusTypeDef hal_status = HAL_OK;
 1065              		.loc 1 358 1 is_stmt 1 view -0
 1066              		.cfi_startproc
 1067              		@ args = 0, pretend = 0, frame = 0
 1068              		@ frame_needed = 0, uses_anonymous_args = 0
 358:USB_HOST/Target/usbh_conf.c ****   HAL_StatusTypeDef hal_status = HAL_OK;
 1069              		.loc 1 358 1 is_stmt 0 view .LVU249
 1070 0000 08B5     		push	{r3, lr}
 1071              	.LCFI23:
 1072              		.cfi_def_cfa_offset 8
 1073              		.cfi_offset 3, -8
 1074              		.cfi_offset 14, -4
 359:USB_HOST/Target/usbh_conf.c ****   USBH_StatusTypeDef usb_status = USBH_OK;
 1075              		.loc 1 359 3 is_stmt 1 view .LVU250
 1076              	.LVL102:
 360:USB_HOST/Target/usbh_conf.c **** 
 1077              		.loc 1 360 3 view .LVU251
 362:USB_HOST/Target/usbh_conf.c **** 
 1078              		.loc 1 362 3 view .LVU252
 362:USB_HOST/Target/usbh_conf.c **** 
 1079              		.loc 1 362 16 is_stmt 0 view .LVU253
 1080 0002 D0F8D003 		ldr	r0, [r0, #976]
 1081              	.LVL103:
 362:USB_HOST/Target/usbh_conf.c **** 
 1082              		.loc 1 362 16 view .LVU254
 1083 0006 FFF7FEFF 		bl	HAL_HCD_HC_Halt
 1084              	.LVL104:
 364:USB_HOST/Target/usbh_conf.c **** 
ARM GAS  /tmp/ccFN7ZkF.s 			page 31


 1085              		.loc 1 364 3 is_stmt 1 view .LVU255
 364:USB_HOST/Target/usbh_conf.c **** 
 1086              		.loc 1 364 16 is_stmt 0 view .LVU256
 1087 000a FFF7FEFF 		bl	USBH_Get_USB_Status
 1088              	.LVL105:
 366:USB_HOST/Target/usbh_conf.c **** }
 1089              		.loc 1 366 3 is_stmt 1 view .LVU257
 367:USB_HOST/Target/usbh_conf.c **** 
 1090              		.loc 1 367 1 is_stmt 0 view .LVU258
 1091 000e 08BD     		pop	{r3, pc}
 1092              		.cfi_endproc
 1093              	.LFE160:
 1095              		.section	.text.USBH_LL_SubmitURB,"ax",%progbits
 1096              		.align	1
 1097              		.global	USBH_LL_SubmitURB
 1098              		.syntax unified
 1099              		.thumb
 1100              		.thumb_func
 1102              	USBH_LL_SubmitURB:
 1103              	.LVL106:
 1104              	.LFB161:
 399:USB_HOST/Target/usbh_conf.c ****   HAL_StatusTypeDef hal_status = HAL_OK;
 1105              		.loc 1 399 1 is_stmt 1 view -0
 1106              		.cfi_startproc
 1107              		@ args = 16, pretend = 0, frame = 0
 1108              		@ frame_needed = 0, uses_anonymous_args = 0
 399:USB_HOST/Target/usbh_conf.c ****   HAL_StatusTypeDef hal_status = HAL_OK;
 1109              		.loc 1 399 1 is_stmt 0 view .LVU260
 1110 0000 10B5     		push	{r4, lr}
 1111              	.LCFI24:
 1112              		.cfi_def_cfa_offset 8
 1113              		.cfi_offset 4, -8
 1114              		.cfi_offset 14, -4
 1115 0002 84B0     		sub	sp, sp, #16
 1116              	.LCFI25:
 1117              		.cfi_def_cfa_offset 24
 400:USB_HOST/Target/usbh_conf.c ****   USBH_StatusTypeDef usb_status = USBH_OK;
 1118              		.loc 1 400 3 is_stmt 1 view .LVU261
 1119              	.LVL107:
 401:USB_HOST/Target/usbh_conf.c **** 
 1120              		.loc 1 401 3 view .LVU262
 403:USB_HOST/Target/usbh_conf.c ****                                         ep_type, token, pbuff, length,
 1121              		.loc 1 403 3 view .LVU263
 403:USB_HOST/Target/usbh_conf.c ****                                         ep_type, token, pbuff, length,
 1122              		.loc 1 403 46 is_stmt 0 view .LVU264
 1123 0004 D0F8D003 		ldr	r0, [r0, #976]
 1124              	.LVL108:
 403:USB_HOST/Target/usbh_conf.c ****                                         ep_type, token, pbuff, length,
 1125              		.loc 1 403 16 view .LVU265
 1126 0008 9DF82440 		ldrb	r4, [sp, #36]	@ zero_extendqisi2
 1127 000c 0394     		str	r4, [sp, #12]
 1128 000e BDF82040 		ldrh	r4, [sp, #32]
 1129 0012 0294     		str	r4, [sp, #8]
 1130 0014 079C     		ldr	r4, [sp, #28]
 1131 0016 0194     		str	r4, [sp, #4]
 1132 0018 9DF81840 		ldrb	r4, [sp, #24]	@ zero_extendqisi2
 1133 001c 0094     		str	r4, [sp]
ARM GAS  /tmp/ccFN7ZkF.s 			page 32


 1134 001e FFF7FEFF 		bl	HAL_HCD_HC_SubmitRequest
 1135              	.LVL109:
 406:USB_HOST/Target/usbh_conf.c **** 
 1136              		.loc 1 406 3 is_stmt 1 view .LVU266
 406:USB_HOST/Target/usbh_conf.c **** 
 1137              		.loc 1 406 17 is_stmt 0 view .LVU267
 1138 0022 FFF7FEFF 		bl	USBH_Get_USB_Status
 1139              	.LVL110:
 408:USB_HOST/Target/usbh_conf.c **** }
 1140              		.loc 1 408 3 is_stmt 1 view .LVU268
 409:USB_HOST/Target/usbh_conf.c **** 
 1141              		.loc 1 409 1 is_stmt 0 view .LVU269
 1142 0026 04B0     		add	sp, sp, #16
 1143              	.LCFI26:
 1144              		.cfi_def_cfa_offset 8
 1145              		@ sp needed
 1146 0028 10BD     		pop	{r4, pc}
 409:USB_HOST/Target/usbh_conf.c **** 
 1147              		.loc 1 409 1 view .LVU270
 1148              		.cfi_endproc
 1149              	.LFE161:
 1151              		.global	hhcd_USB_OTG_FS
 1152              		.section	.bss.hhcd_USB_OTG_FS,"aw",%nobits
 1153              		.align	2
 1156              	hhcd_USB_OTG_FS:
 1157 0000 00000000 		.space	772
 1157      00000000 
 1157      00000000 
 1157      00000000 
 1157      00000000 
 1158              		.text
 1159              	.Letext0:
 1160              		.file 2 "/usr/include/newlib/machine/_default_types.h"
 1161              		.file 3 "/usr/include/newlib/sys/_stdint.h"
 1162              		.file 4 "Drivers/CMSIS/Device/ST/STM32F7xx/Include/stm32f746xx.h"
 1163              		.file 5 "Drivers/CMSIS/Device/ST/STM32F7xx/Include/stm32f7xx.h"
 1164              		.file 6 "Drivers/STM32F7xx_HAL_Driver/Inc/stm32f7xx_hal_def.h"
 1165              		.file 7 "Drivers/STM32F7xx_HAL_Driver/Inc/stm32f7xx_hal_gpio.h"
 1166              		.file 8 "Drivers/STM32F7xx_HAL_Driver/Inc/stm32f7xx_ll_usb.h"
 1167              		.file 9 "Drivers/STM32F7xx_HAL_Driver/Inc/stm32f7xx_hal_hcd.h"
 1168              		.file 10 "Middlewares/ST/STM32_USB_Host_Library/Core/Inc/usbh_def.h"
 1169              		.file 11 "Drivers/STM32F7xx_HAL_Driver/Inc/stm32f7xx_hal.h"
 1170              		.file 12 "USB_HOST/Target/usbh_platform.h"
 1171              		.file 13 "Middlewares/ST/STM32_USB_Host_Library/Core/Inc/usbh_core.h"
 1172              		.file 14 "Drivers/STM32F7xx_HAL_Driver/Inc/stm32f7xx_hal_cortex.h"
ARM GAS  /tmp/ccFN7ZkF.s 			page 33

