ARM GAS  /tmp/ccXc1b7R.s 			page 1


   1              		.cpu cortex-m7
   2              		.arch armv7e-m
   3              		.fpu fpv5-sp-d16
   4              		.eabi_attribute 27, 1
   5              		.eabi_attribute 28, 1
   6              		.eabi_attribute 20, 1
   7              		.eabi_attribute 21, 1
   8              		.eabi_attribute 23, 3
   9              		.eabi_attribute 24, 1
  10              		.eabi_attribute 25, 1
  11              		.eabi_attribute 26, 1
  12              		.eabi_attribute 30, 1
  13              		.eabi_attribute 34, 1
  14              		.eabi_attribute 18, 4
  15              		.file	"usbh_ctlreq.c"
  16              		.text
  17              	.Ltext0:
  18              		.cfi_sections	.debug_frame
  19              		.file 1 "Middlewares/ST/STM32_USB_Host_Library/Core/Src/usbh_ctlreq.c"
  20              		.section	.text.USBH_ParseDevDesc,"ax",%progbits
  21              		.align	1
  22              		.syntax unified
  23              		.thumb
  24              		.thumb_func
  26              	USBH_ParseDevDesc:
  27              	.LVL0:
  28              	.LFB153:
   1:Middlewares/ST/STM32_USB_Host_Library/Core/Src/usbh_ctlreq.c **** /**
   2:Middlewares/ST/STM32_USB_Host_Library/Core/Src/usbh_ctlreq.c ****   ******************************************************************************
   3:Middlewares/ST/STM32_USB_Host_Library/Core/Src/usbh_ctlreq.c ****   * @file    usbh_ctlreq.c
   4:Middlewares/ST/STM32_USB_Host_Library/Core/Src/usbh_ctlreq.c ****   * @author  MCD Application Team
   5:Middlewares/ST/STM32_USB_Host_Library/Core/Src/usbh_ctlreq.c ****   * @brief   This file implements the control requests for device enumeration
   6:Middlewares/ST/STM32_USB_Host_Library/Core/Src/usbh_ctlreq.c ****   ******************************************************************************
   7:Middlewares/ST/STM32_USB_Host_Library/Core/Src/usbh_ctlreq.c ****   * @attention
   8:Middlewares/ST/STM32_USB_Host_Library/Core/Src/usbh_ctlreq.c ****   *
   9:Middlewares/ST/STM32_USB_Host_Library/Core/Src/usbh_ctlreq.c ****   * Copyright (c) 2015 STMicroelectronics.
  10:Middlewares/ST/STM32_USB_Host_Library/Core/Src/usbh_ctlreq.c ****   * All rights reserved.
  11:Middlewares/ST/STM32_USB_Host_Library/Core/Src/usbh_ctlreq.c ****   *
  12:Middlewares/ST/STM32_USB_Host_Library/Core/Src/usbh_ctlreq.c ****   * This software is licensed under terms that can be found in the LICENSE file
  13:Middlewares/ST/STM32_USB_Host_Library/Core/Src/usbh_ctlreq.c ****   * in the root directory of this software component.
  14:Middlewares/ST/STM32_USB_Host_Library/Core/Src/usbh_ctlreq.c ****   * If no LICENSE file comes with this software, it is provided AS-IS.
  15:Middlewares/ST/STM32_USB_Host_Library/Core/Src/usbh_ctlreq.c ****   *
  16:Middlewares/ST/STM32_USB_Host_Library/Core/Src/usbh_ctlreq.c ****   ******************************************************************************
  17:Middlewares/ST/STM32_USB_Host_Library/Core/Src/usbh_ctlreq.c ****   */
  18:Middlewares/ST/STM32_USB_Host_Library/Core/Src/usbh_ctlreq.c **** 
  19:Middlewares/ST/STM32_USB_Host_Library/Core/Src/usbh_ctlreq.c **** /* Includes ------------------------------------------------------------------*/
  20:Middlewares/ST/STM32_USB_Host_Library/Core/Src/usbh_ctlreq.c **** #include "usbh_ctlreq.h"
  21:Middlewares/ST/STM32_USB_Host_Library/Core/Src/usbh_ctlreq.c **** 
  22:Middlewares/ST/STM32_USB_Host_Library/Core/Src/usbh_ctlreq.c **** /** @addtogroup USBH_LIB
  23:Middlewares/ST/STM32_USB_Host_Library/Core/Src/usbh_ctlreq.c ****   * @{
  24:Middlewares/ST/STM32_USB_Host_Library/Core/Src/usbh_ctlreq.c ****   */
  25:Middlewares/ST/STM32_USB_Host_Library/Core/Src/usbh_ctlreq.c **** 
  26:Middlewares/ST/STM32_USB_Host_Library/Core/Src/usbh_ctlreq.c **** /** @addtogroup USBH_LIB_CORE
  27:Middlewares/ST/STM32_USB_Host_Library/Core/Src/usbh_ctlreq.c ****   * @{
  28:Middlewares/ST/STM32_USB_Host_Library/Core/Src/usbh_ctlreq.c ****   */
  29:Middlewares/ST/STM32_USB_Host_Library/Core/Src/usbh_ctlreq.c **** 
  30:Middlewares/ST/STM32_USB_Host_Library/Core/Src/usbh_ctlreq.c **** /** @defgroup USBH_CTLREQ
ARM GAS  /tmp/ccXc1b7R.s 			page 2


  31:Middlewares/ST/STM32_USB_Host_Library/Core/Src/usbh_ctlreq.c ****   * @brief This file implements the standard requests for device enumeration
  32:Middlewares/ST/STM32_USB_Host_Library/Core/Src/usbh_ctlreq.c ****   * @{
  33:Middlewares/ST/STM32_USB_Host_Library/Core/Src/usbh_ctlreq.c ****   */
  34:Middlewares/ST/STM32_USB_Host_Library/Core/Src/usbh_ctlreq.c **** 
  35:Middlewares/ST/STM32_USB_Host_Library/Core/Src/usbh_ctlreq.c **** 
  36:Middlewares/ST/STM32_USB_Host_Library/Core/Src/usbh_ctlreq.c **** /** @defgroup USBH_CTLREQ_Private_Defines
  37:Middlewares/ST/STM32_USB_Host_Library/Core/Src/usbh_ctlreq.c ****   * @{
  38:Middlewares/ST/STM32_USB_Host_Library/Core/Src/usbh_ctlreq.c ****   */
  39:Middlewares/ST/STM32_USB_Host_Library/Core/Src/usbh_ctlreq.c **** /**
  40:Middlewares/ST/STM32_USB_Host_Library/Core/Src/usbh_ctlreq.c ****   * @}
  41:Middlewares/ST/STM32_USB_Host_Library/Core/Src/usbh_ctlreq.c ****   */
  42:Middlewares/ST/STM32_USB_Host_Library/Core/Src/usbh_ctlreq.c **** 
  43:Middlewares/ST/STM32_USB_Host_Library/Core/Src/usbh_ctlreq.c **** 
  44:Middlewares/ST/STM32_USB_Host_Library/Core/Src/usbh_ctlreq.c **** /** @defgroup USBH_CTLREQ_Private_TypesDefinitions
  45:Middlewares/ST/STM32_USB_Host_Library/Core/Src/usbh_ctlreq.c ****   * @{
  46:Middlewares/ST/STM32_USB_Host_Library/Core/Src/usbh_ctlreq.c ****   */
  47:Middlewares/ST/STM32_USB_Host_Library/Core/Src/usbh_ctlreq.c **** /**
  48:Middlewares/ST/STM32_USB_Host_Library/Core/Src/usbh_ctlreq.c ****   * @}
  49:Middlewares/ST/STM32_USB_Host_Library/Core/Src/usbh_ctlreq.c ****   */
  50:Middlewares/ST/STM32_USB_Host_Library/Core/Src/usbh_ctlreq.c **** 
  51:Middlewares/ST/STM32_USB_Host_Library/Core/Src/usbh_ctlreq.c **** 
  52:Middlewares/ST/STM32_USB_Host_Library/Core/Src/usbh_ctlreq.c **** 
  53:Middlewares/ST/STM32_USB_Host_Library/Core/Src/usbh_ctlreq.c **** /** @defgroup USBH_CTLREQ_Private_Macros
  54:Middlewares/ST/STM32_USB_Host_Library/Core/Src/usbh_ctlreq.c ****   * @{
  55:Middlewares/ST/STM32_USB_Host_Library/Core/Src/usbh_ctlreq.c ****   */
  56:Middlewares/ST/STM32_USB_Host_Library/Core/Src/usbh_ctlreq.c **** /**
  57:Middlewares/ST/STM32_USB_Host_Library/Core/Src/usbh_ctlreq.c ****   * @}
  58:Middlewares/ST/STM32_USB_Host_Library/Core/Src/usbh_ctlreq.c ****   */
  59:Middlewares/ST/STM32_USB_Host_Library/Core/Src/usbh_ctlreq.c **** 
  60:Middlewares/ST/STM32_USB_Host_Library/Core/Src/usbh_ctlreq.c **** 
  61:Middlewares/ST/STM32_USB_Host_Library/Core/Src/usbh_ctlreq.c **** /** @defgroup USBH_CTLREQ_Private_Variables
  62:Middlewares/ST/STM32_USB_Host_Library/Core/Src/usbh_ctlreq.c ****   * @{
  63:Middlewares/ST/STM32_USB_Host_Library/Core/Src/usbh_ctlreq.c ****   */
  64:Middlewares/ST/STM32_USB_Host_Library/Core/Src/usbh_ctlreq.c **** /**
  65:Middlewares/ST/STM32_USB_Host_Library/Core/Src/usbh_ctlreq.c ****   * @}
  66:Middlewares/ST/STM32_USB_Host_Library/Core/Src/usbh_ctlreq.c ****   */
  67:Middlewares/ST/STM32_USB_Host_Library/Core/Src/usbh_ctlreq.c **** 
  68:Middlewares/ST/STM32_USB_Host_Library/Core/Src/usbh_ctlreq.c **** /** @defgroup USBH_CTLREQ_Private_FunctionPrototypes
  69:Middlewares/ST/STM32_USB_Host_Library/Core/Src/usbh_ctlreq.c ****   * @{
  70:Middlewares/ST/STM32_USB_Host_Library/Core/Src/usbh_ctlreq.c ****   */
  71:Middlewares/ST/STM32_USB_Host_Library/Core/Src/usbh_ctlreq.c **** static USBH_StatusTypeDef USBH_HandleControl(USBH_HandleTypeDef *phost);
  72:Middlewares/ST/STM32_USB_Host_Library/Core/Src/usbh_ctlreq.c **** 
  73:Middlewares/ST/STM32_USB_Host_Library/Core/Src/usbh_ctlreq.c **** static void USBH_ParseDevDesc(USBH_DevDescTypeDef *dev_desc,
  74:Middlewares/ST/STM32_USB_Host_Library/Core/Src/usbh_ctlreq.c ****                               uint8_t *buf, uint16_t length);
  75:Middlewares/ST/STM32_USB_Host_Library/Core/Src/usbh_ctlreq.c **** 
  76:Middlewares/ST/STM32_USB_Host_Library/Core/Src/usbh_ctlreq.c **** static USBH_StatusTypeDef USBH_ParseCfgDesc(USBH_HandleTypeDef *phost,
  77:Middlewares/ST/STM32_USB_Host_Library/Core/Src/usbh_ctlreq.c ****                                             uint8_t *buf, uint16_t length);
  78:Middlewares/ST/STM32_USB_Host_Library/Core/Src/usbh_ctlreq.c **** 
  79:Middlewares/ST/STM32_USB_Host_Library/Core/Src/usbh_ctlreq.c **** static USBH_StatusTypeDef USBH_ParseEPDesc(USBH_HandleTypeDef *phost, USBH_EpDescTypeDef  *ep_descr
  80:Middlewares/ST/STM32_USB_Host_Library/Core/Src/usbh_ctlreq.c **** static void USBH_ParseStringDesc(uint8_t *psrc, uint8_t *pdest, uint16_t length);
  81:Middlewares/ST/STM32_USB_Host_Library/Core/Src/usbh_ctlreq.c **** static void USBH_ParseInterfaceDesc(USBH_InterfaceDescTypeDef  *if_descriptor, uint8_t *buf);
  82:Middlewares/ST/STM32_USB_Host_Library/Core/Src/usbh_ctlreq.c **** 
  83:Middlewares/ST/STM32_USB_Host_Library/Core/Src/usbh_ctlreq.c **** 
  84:Middlewares/ST/STM32_USB_Host_Library/Core/Src/usbh_ctlreq.c **** /**
  85:Middlewares/ST/STM32_USB_Host_Library/Core/Src/usbh_ctlreq.c ****   * @}
  86:Middlewares/ST/STM32_USB_Host_Library/Core/Src/usbh_ctlreq.c ****   */
  87:Middlewares/ST/STM32_USB_Host_Library/Core/Src/usbh_ctlreq.c **** 
ARM GAS  /tmp/ccXc1b7R.s 			page 3


  88:Middlewares/ST/STM32_USB_Host_Library/Core/Src/usbh_ctlreq.c **** 
  89:Middlewares/ST/STM32_USB_Host_Library/Core/Src/usbh_ctlreq.c **** /** @defgroup USBH_CTLREQ_Private_Functions
  90:Middlewares/ST/STM32_USB_Host_Library/Core/Src/usbh_ctlreq.c ****   * @{
  91:Middlewares/ST/STM32_USB_Host_Library/Core/Src/usbh_ctlreq.c ****   */
  92:Middlewares/ST/STM32_USB_Host_Library/Core/Src/usbh_ctlreq.c **** 
  93:Middlewares/ST/STM32_USB_Host_Library/Core/Src/usbh_ctlreq.c **** 
  94:Middlewares/ST/STM32_USB_Host_Library/Core/Src/usbh_ctlreq.c **** /**
  95:Middlewares/ST/STM32_USB_Host_Library/Core/Src/usbh_ctlreq.c ****   * @brief  USBH_Get_DevDesc
  96:Middlewares/ST/STM32_USB_Host_Library/Core/Src/usbh_ctlreq.c ****   *         Issue Get Device Descriptor command to the device. Once the response
  97:Middlewares/ST/STM32_USB_Host_Library/Core/Src/usbh_ctlreq.c ****   *         received, it parses the device descriptor and updates the status.
  98:Middlewares/ST/STM32_USB_Host_Library/Core/Src/usbh_ctlreq.c ****   * @param  phost: Host Handle
  99:Middlewares/ST/STM32_USB_Host_Library/Core/Src/usbh_ctlreq.c ****   * @param  length: Length of the descriptor
 100:Middlewares/ST/STM32_USB_Host_Library/Core/Src/usbh_ctlreq.c ****   * @retval USBH Status
 101:Middlewares/ST/STM32_USB_Host_Library/Core/Src/usbh_ctlreq.c ****   */
 102:Middlewares/ST/STM32_USB_Host_Library/Core/Src/usbh_ctlreq.c **** USBH_StatusTypeDef USBH_Get_DevDesc(USBH_HandleTypeDef *phost, uint8_t length)
 103:Middlewares/ST/STM32_USB_Host_Library/Core/Src/usbh_ctlreq.c **** {
 104:Middlewares/ST/STM32_USB_Host_Library/Core/Src/usbh_ctlreq.c ****   USBH_StatusTypeDef status;
 105:Middlewares/ST/STM32_USB_Host_Library/Core/Src/usbh_ctlreq.c **** 
 106:Middlewares/ST/STM32_USB_Host_Library/Core/Src/usbh_ctlreq.c ****   status = USBH_GetDescriptor(phost,
 107:Middlewares/ST/STM32_USB_Host_Library/Core/Src/usbh_ctlreq.c ****                               USB_REQ_RECIPIENT_DEVICE | USB_REQ_TYPE_STANDARD,
 108:Middlewares/ST/STM32_USB_Host_Library/Core/Src/usbh_ctlreq.c ****                               USB_DESC_DEVICE, phost->device.Data,
 109:Middlewares/ST/STM32_USB_Host_Library/Core/Src/usbh_ctlreq.c ****                               (uint16_t)length);
 110:Middlewares/ST/STM32_USB_Host_Library/Core/Src/usbh_ctlreq.c **** 
 111:Middlewares/ST/STM32_USB_Host_Library/Core/Src/usbh_ctlreq.c ****   if (status == USBH_OK)
 112:Middlewares/ST/STM32_USB_Host_Library/Core/Src/usbh_ctlreq.c ****   {
 113:Middlewares/ST/STM32_USB_Host_Library/Core/Src/usbh_ctlreq.c ****     /* Commands successfully sent and Response Received */
 114:Middlewares/ST/STM32_USB_Host_Library/Core/Src/usbh_ctlreq.c ****     USBH_ParseDevDesc(&phost->device.DevDesc, phost->device.Data,
 115:Middlewares/ST/STM32_USB_Host_Library/Core/Src/usbh_ctlreq.c ****                       (uint16_t)length);
 116:Middlewares/ST/STM32_USB_Host_Library/Core/Src/usbh_ctlreq.c ****   }
 117:Middlewares/ST/STM32_USB_Host_Library/Core/Src/usbh_ctlreq.c **** 
 118:Middlewares/ST/STM32_USB_Host_Library/Core/Src/usbh_ctlreq.c ****   return status;
 119:Middlewares/ST/STM32_USB_Host_Library/Core/Src/usbh_ctlreq.c **** }
 120:Middlewares/ST/STM32_USB_Host_Library/Core/Src/usbh_ctlreq.c **** 
 121:Middlewares/ST/STM32_USB_Host_Library/Core/Src/usbh_ctlreq.c **** 
 122:Middlewares/ST/STM32_USB_Host_Library/Core/Src/usbh_ctlreq.c **** /**
 123:Middlewares/ST/STM32_USB_Host_Library/Core/Src/usbh_ctlreq.c ****   * @brief  USBH_Get_CfgDesc
 124:Middlewares/ST/STM32_USB_Host_Library/Core/Src/usbh_ctlreq.c ****   *         Issues Configuration Descriptor to the device. Once the response
 125:Middlewares/ST/STM32_USB_Host_Library/Core/Src/usbh_ctlreq.c ****   *         received, it parses the configuration descriptor and updates the
 126:Middlewares/ST/STM32_USB_Host_Library/Core/Src/usbh_ctlreq.c ****   *         status.
 127:Middlewares/ST/STM32_USB_Host_Library/Core/Src/usbh_ctlreq.c ****   * @param  phost: Host Handle
 128:Middlewares/ST/STM32_USB_Host_Library/Core/Src/usbh_ctlreq.c ****   * @param  length: Length of the descriptor
 129:Middlewares/ST/STM32_USB_Host_Library/Core/Src/usbh_ctlreq.c ****   * @retval USBH Status
 130:Middlewares/ST/STM32_USB_Host_Library/Core/Src/usbh_ctlreq.c ****   */
 131:Middlewares/ST/STM32_USB_Host_Library/Core/Src/usbh_ctlreq.c **** USBH_StatusTypeDef USBH_Get_CfgDesc(USBH_HandleTypeDef *phost,
 132:Middlewares/ST/STM32_USB_Host_Library/Core/Src/usbh_ctlreq.c ****                                     uint16_t length)
 133:Middlewares/ST/STM32_USB_Host_Library/Core/Src/usbh_ctlreq.c **** 
 134:Middlewares/ST/STM32_USB_Host_Library/Core/Src/usbh_ctlreq.c **** {
 135:Middlewares/ST/STM32_USB_Host_Library/Core/Src/usbh_ctlreq.c ****   USBH_StatusTypeDef status;
 136:Middlewares/ST/STM32_USB_Host_Library/Core/Src/usbh_ctlreq.c ****   uint8_t *pData = phost->device.CfgDesc_Raw;
 137:Middlewares/ST/STM32_USB_Host_Library/Core/Src/usbh_ctlreq.c **** 
 138:Middlewares/ST/STM32_USB_Host_Library/Core/Src/usbh_ctlreq.c ****   status = USBH_GetDescriptor(phost, (USB_REQ_RECIPIENT_DEVICE | USB_REQ_TYPE_STANDARD),
 139:Middlewares/ST/STM32_USB_Host_Library/Core/Src/usbh_ctlreq.c ****                               USB_DESC_CONFIGURATION, pData, length);
 140:Middlewares/ST/STM32_USB_Host_Library/Core/Src/usbh_ctlreq.c **** 
 141:Middlewares/ST/STM32_USB_Host_Library/Core/Src/usbh_ctlreq.c ****   if (status == USBH_OK)
 142:Middlewares/ST/STM32_USB_Host_Library/Core/Src/usbh_ctlreq.c ****   {
 143:Middlewares/ST/STM32_USB_Host_Library/Core/Src/usbh_ctlreq.c ****     /* Commands successfully sent and Response Received  */
 144:Middlewares/ST/STM32_USB_Host_Library/Core/Src/usbh_ctlreq.c ****     status = USBH_ParseCfgDesc(phost, pData, length);
ARM GAS  /tmp/ccXc1b7R.s 			page 4


 145:Middlewares/ST/STM32_USB_Host_Library/Core/Src/usbh_ctlreq.c ****   }
 146:Middlewares/ST/STM32_USB_Host_Library/Core/Src/usbh_ctlreq.c **** 
 147:Middlewares/ST/STM32_USB_Host_Library/Core/Src/usbh_ctlreq.c ****   return status;
 148:Middlewares/ST/STM32_USB_Host_Library/Core/Src/usbh_ctlreq.c **** }
 149:Middlewares/ST/STM32_USB_Host_Library/Core/Src/usbh_ctlreq.c **** 
 150:Middlewares/ST/STM32_USB_Host_Library/Core/Src/usbh_ctlreq.c **** 
 151:Middlewares/ST/STM32_USB_Host_Library/Core/Src/usbh_ctlreq.c **** /**
 152:Middlewares/ST/STM32_USB_Host_Library/Core/Src/usbh_ctlreq.c ****   * @brief  USBH_Get_StringDesc
 153:Middlewares/ST/STM32_USB_Host_Library/Core/Src/usbh_ctlreq.c ****   *         Issues string Descriptor command to the device. Once the response
 154:Middlewares/ST/STM32_USB_Host_Library/Core/Src/usbh_ctlreq.c ****   *         received, it parses the string descriptor and updates the status.
 155:Middlewares/ST/STM32_USB_Host_Library/Core/Src/usbh_ctlreq.c ****   * @param  phost: Host Handle
 156:Middlewares/ST/STM32_USB_Host_Library/Core/Src/usbh_ctlreq.c ****   * @param  string_index: String index for the descriptor
 157:Middlewares/ST/STM32_USB_Host_Library/Core/Src/usbh_ctlreq.c ****   * @param  buff: Buffer address for the descriptor
 158:Middlewares/ST/STM32_USB_Host_Library/Core/Src/usbh_ctlreq.c ****   * @param  length: Length of the descriptor
 159:Middlewares/ST/STM32_USB_Host_Library/Core/Src/usbh_ctlreq.c ****   * @retval USBH Status
 160:Middlewares/ST/STM32_USB_Host_Library/Core/Src/usbh_ctlreq.c ****   */
 161:Middlewares/ST/STM32_USB_Host_Library/Core/Src/usbh_ctlreq.c **** USBH_StatusTypeDef USBH_Get_StringDesc(USBH_HandleTypeDef *phost,
 162:Middlewares/ST/STM32_USB_Host_Library/Core/Src/usbh_ctlreq.c ****                                        uint8_t string_index, uint8_t *buff,
 163:Middlewares/ST/STM32_USB_Host_Library/Core/Src/usbh_ctlreq.c ****                                        uint16_t length)
 164:Middlewares/ST/STM32_USB_Host_Library/Core/Src/usbh_ctlreq.c **** {
 165:Middlewares/ST/STM32_USB_Host_Library/Core/Src/usbh_ctlreq.c ****   USBH_StatusTypeDef status;
 166:Middlewares/ST/STM32_USB_Host_Library/Core/Src/usbh_ctlreq.c **** 
 167:Middlewares/ST/STM32_USB_Host_Library/Core/Src/usbh_ctlreq.c ****   status = USBH_GetDescriptor(phost,
 168:Middlewares/ST/STM32_USB_Host_Library/Core/Src/usbh_ctlreq.c ****                               USB_REQ_RECIPIENT_DEVICE | USB_REQ_TYPE_STANDARD,
 169:Middlewares/ST/STM32_USB_Host_Library/Core/Src/usbh_ctlreq.c ****                               USB_DESC_STRING | string_index,
 170:Middlewares/ST/STM32_USB_Host_Library/Core/Src/usbh_ctlreq.c ****                               phost->device.Data, length);
 171:Middlewares/ST/STM32_USB_Host_Library/Core/Src/usbh_ctlreq.c **** 
 172:Middlewares/ST/STM32_USB_Host_Library/Core/Src/usbh_ctlreq.c ****   if (status == USBH_OK)
 173:Middlewares/ST/STM32_USB_Host_Library/Core/Src/usbh_ctlreq.c ****   {
 174:Middlewares/ST/STM32_USB_Host_Library/Core/Src/usbh_ctlreq.c ****     /* Commands successfully sent and Response Received  */
 175:Middlewares/ST/STM32_USB_Host_Library/Core/Src/usbh_ctlreq.c ****     USBH_ParseStringDesc(phost->device.Data, buff, length);
 176:Middlewares/ST/STM32_USB_Host_Library/Core/Src/usbh_ctlreq.c ****   }
 177:Middlewares/ST/STM32_USB_Host_Library/Core/Src/usbh_ctlreq.c **** 
 178:Middlewares/ST/STM32_USB_Host_Library/Core/Src/usbh_ctlreq.c ****   return status;
 179:Middlewares/ST/STM32_USB_Host_Library/Core/Src/usbh_ctlreq.c **** }
 180:Middlewares/ST/STM32_USB_Host_Library/Core/Src/usbh_ctlreq.c **** 
 181:Middlewares/ST/STM32_USB_Host_Library/Core/Src/usbh_ctlreq.c **** 
 182:Middlewares/ST/STM32_USB_Host_Library/Core/Src/usbh_ctlreq.c **** /**
 183:Middlewares/ST/STM32_USB_Host_Library/Core/Src/usbh_ctlreq.c ****   * @brief  USBH_GetDescriptor
 184:Middlewares/ST/STM32_USB_Host_Library/Core/Src/usbh_ctlreq.c ****   *         Issues Descriptor command to the device. Once the response received,
 185:Middlewares/ST/STM32_USB_Host_Library/Core/Src/usbh_ctlreq.c ****   *         it parses the descriptor and updates the status.
 186:Middlewares/ST/STM32_USB_Host_Library/Core/Src/usbh_ctlreq.c ****   * @param  phost: Host Handle
 187:Middlewares/ST/STM32_USB_Host_Library/Core/Src/usbh_ctlreq.c ****   * @param  req_type: Descriptor type
 188:Middlewares/ST/STM32_USB_Host_Library/Core/Src/usbh_ctlreq.c ****   * @param  value_idx: Value for the GetDescriptr request
 189:Middlewares/ST/STM32_USB_Host_Library/Core/Src/usbh_ctlreq.c ****   * @param  buff: Buffer to store the descriptor
 190:Middlewares/ST/STM32_USB_Host_Library/Core/Src/usbh_ctlreq.c ****   * @param  length: Length of the descriptor
 191:Middlewares/ST/STM32_USB_Host_Library/Core/Src/usbh_ctlreq.c ****   * @retval USBH Status
 192:Middlewares/ST/STM32_USB_Host_Library/Core/Src/usbh_ctlreq.c ****   */
 193:Middlewares/ST/STM32_USB_Host_Library/Core/Src/usbh_ctlreq.c **** USBH_StatusTypeDef USBH_GetDescriptor(USBH_HandleTypeDef *phost,
 194:Middlewares/ST/STM32_USB_Host_Library/Core/Src/usbh_ctlreq.c ****                                       uint8_t  req_type,
 195:Middlewares/ST/STM32_USB_Host_Library/Core/Src/usbh_ctlreq.c ****                                       uint16_t value_idx,
 196:Middlewares/ST/STM32_USB_Host_Library/Core/Src/usbh_ctlreq.c ****                                       uint8_t *buff,
 197:Middlewares/ST/STM32_USB_Host_Library/Core/Src/usbh_ctlreq.c ****                                       uint16_t length)
 198:Middlewares/ST/STM32_USB_Host_Library/Core/Src/usbh_ctlreq.c **** {
 199:Middlewares/ST/STM32_USB_Host_Library/Core/Src/usbh_ctlreq.c ****   if (phost->RequestState == CMD_SEND)
 200:Middlewares/ST/STM32_USB_Host_Library/Core/Src/usbh_ctlreq.c ****   {
 201:Middlewares/ST/STM32_USB_Host_Library/Core/Src/usbh_ctlreq.c ****     phost->Control.setup.b.bmRequestType = USB_D2H | req_type;
ARM GAS  /tmp/ccXc1b7R.s 			page 5


 202:Middlewares/ST/STM32_USB_Host_Library/Core/Src/usbh_ctlreq.c ****     phost->Control.setup.b.bRequest = USB_REQ_GET_DESCRIPTOR;
 203:Middlewares/ST/STM32_USB_Host_Library/Core/Src/usbh_ctlreq.c ****     phost->Control.setup.b.wValue.w = value_idx;
 204:Middlewares/ST/STM32_USB_Host_Library/Core/Src/usbh_ctlreq.c **** 
 205:Middlewares/ST/STM32_USB_Host_Library/Core/Src/usbh_ctlreq.c ****     if ((value_idx & 0xff00U) == USB_DESC_STRING)
 206:Middlewares/ST/STM32_USB_Host_Library/Core/Src/usbh_ctlreq.c ****     {
 207:Middlewares/ST/STM32_USB_Host_Library/Core/Src/usbh_ctlreq.c ****       phost->Control.setup.b.wIndex.w = 0x0409U;
 208:Middlewares/ST/STM32_USB_Host_Library/Core/Src/usbh_ctlreq.c ****     }
 209:Middlewares/ST/STM32_USB_Host_Library/Core/Src/usbh_ctlreq.c ****     else
 210:Middlewares/ST/STM32_USB_Host_Library/Core/Src/usbh_ctlreq.c ****     {
 211:Middlewares/ST/STM32_USB_Host_Library/Core/Src/usbh_ctlreq.c ****       phost->Control.setup.b.wIndex.w = 0U;
 212:Middlewares/ST/STM32_USB_Host_Library/Core/Src/usbh_ctlreq.c ****     }
 213:Middlewares/ST/STM32_USB_Host_Library/Core/Src/usbh_ctlreq.c ****     phost->Control.setup.b.wLength.w = length;
 214:Middlewares/ST/STM32_USB_Host_Library/Core/Src/usbh_ctlreq.c ****   }
 215:Middlewares/ST/STM32_USB_Host_Library/Core/Src/usbh_ctlreq.c **** 
 216:Middlewares/ST/STM32_USB_Host_Library/Core/Src/usbh_ctlreq.c ****   return USBH_CtlReq(phost, buff, length);
 217:Middlewares/ST/STM32_USB_Host_Library/Core/Src/usbh_ctlreq.c **** }
 218:Middlewares/ST/STM32_USB_Host_Library/Core/Src/usbh_ctlreq.c **** 
 219:Middlewares/ST/STM32_USB_Host_Library/Core/Src/usbh_ctlreq.c **** 
 220:Middlewares/ST/STM32_USB_Host_Library/Core/Src/usbh_ctlreq.c **** /**
 221:Middlewares/ST/STM32_USB_Host_Library/Core/Src/usbh_ctlreq.c ****   * @brief  USBH_SetAddress
 222:Middlewares/ST/STM32_USB_Host_Library/Core/Src/usbh_ctlreq.c ****   *         This command sets the address to the connected device
 223:Middlewares/ST/STM32_USB_Host_Library/Core/Src/usbh_ctlreq.c ****   * @param  phost: Host Handle
 224:Middlewares/ST/STM32_USB_Host_Library/Core/Src/usbh_ctlreq.c ****   * @param  DeviceAddress: Device address to assign
 225:Middlewares/ST/STM32_USB_Host_Library/Core/Src/usbh_ctlreq.c ****   * @retval USBH Status
 226:Middlewares/ST/STM32_USB_Host_Library/Core/Src/usbh_ctlreq.c ****   */
 227:Middlewares/ST/STM32_USB_Host_Library/Core/Src/usbh_ctlreq.c **** USBH_StatusTypeDef USBH_SetAddress(USBH_HandleTypeDef *phost,
 228:Middlewares/ST/STM32_USB_Host_Library/Core/Src/usbh_ctlreq.c ****                                    uint8_t DeviceAddress)
 229:Middlewares/ST/STM32_USB_Host_Library/Core/Src/usbh_ctlreq.c **** {
 230:Middlewares/ST/STM32_USB_Host_Library/Core/Src/usbh_ctlreq.c ****   if (phost->RequestState == CMD_SEND)
 231:Middlewares/ST/STM32_USB_Host_Library/Core/Src/usbh_ctlreq.c ****   {
 232:Middlewares/ST/STM32_USB_Host_Library/Core/Src/usbh_ctlreq.c ****     phost->Control.setup.b.bmRequestType = USB_H2D | USB_REQ_RECIPIENT_DEVICE | \
 233:Middlewares/ST/STM32_USB_Host_Library/Core/Src/usbh_ctlreq.c ****                                            USB_REQ_TYPE_STANDARD;
 234:Middlewares/ST/STM32_USB_Host_Library/Core/Src/usbh_ctlreq.c **** 
 235:Middlewares/ST/STM32_USB_Host_Library/Core/Src/usbh_ctlreq.c ****     phost->Control.setup.b.bRequest = USB_REQ_SET_ADDRESS;
 236:Middlewares/ST/STM32_USB_Host_Library/Core/Src/usbh_ctlreq.c **** 
 237:Middlewares/ST/STM32_USB_Host_Library/Core/Src/usbh_ctlreq.c ****     phost->Control.setup.b.wValue.w = (uint16_t)DeviceAddress;
 238:Middlewares/ST/STM32_USB_Host_Library/Core/Src/usbh_ctlreq.c ****     phost->Control.setup.b.wIndex.w = 0U;
 239:Middlewares/ST/STM32_USB_Host_Library/Core/Src/usbh_ctlreq.c ****     phost->Control.setup.b.wLength.w = 0U;
 240:Middlewares/ST/STM32_USB_Host_Library/Core/Src/usbh_ctlreq.c ****   }
 241:Middlewares/ST/STM32_USB_Host_Library/Core/Src/usbh_ctlreq.c **** 
 242:Middlewares/ST/STM32_USB_Host_Library/Core/Src/usbh_ctlreq.c ****   return USBH_CtlReq(phost, NULL, 0U);
 243:Middlewares/ST/STM32_USB_Host_Library/Core/Src/usbh_ctlreq.c **** }
 244:Middlewares/ST/STM32_USB_Host_Library/Core/Src/usbh_ctlreq.c **** 
 245:Middlewares/ST/STM32_USB_Host_Library/Core/Src/usbh_ctlreq.c **** 
 246:Middlewares/ST/STM32_USB_Host_Library/Core/Src/usbh_ctlreq.c **** /**
 247:Middlewares/ST/STM32_USB_Host_Library/Core/Src/usbh_ctlreq.c ****   * @brief  USBH_SetCfg
 248:Middlewares/ST/STM32_USB_Host_Library/Core/Src/usbh_ctlreq.c ****   *         The command sets the configuration value to the connected device
 249:Middlewares/ST/STM32_USB_Host_Library/Core/Src/usbh_ctlreq.c ****   * @param  phost: Host Handle
 250:Middlewares/ST/STM32_USB_Host_Library/Core/Src/usbh_ctlreq.c ****   * @param  cfg_idx: Configuration value
 251:Middlewares/ST/STM32_USB_Host_Library/Core/Src/usbh_ctlreq.c ****   * @retval USBH Status
 252:Middlewares/ST/STM32_USB_Host_Library/Core/Src/usbh_ctlreq.c ****   */
 253:Middlewares/ST/STM32_USB_Host_Library/Core/Src/usbh_ctlreq.c **** USBH_StatusTypeDef USBH_SetCfg(USBH_HandleTypeDef *phost, uint16_t cfg_idx)
 254:Middlewares/ST/STM32_USB_Host_Library/Core/Src/usbh_ctlreq.c **** {
 255:Middlewares/ST/STM32_USB_Host_Library/Core/Src/usbh_ctlreq.c ****   if (phost->RequestState == CMD_SEND)
 256:Middlewares/ST/STM32_USB_Host_Library/Core/Src/usbh_ctlreq.c ****   {
 257:Middlewares/ST/STM32_USB_Host_Library/Core/Src/usbh_ctlreq.c ****     phost->Control.setup.b.bmRequestType = USB_H2D | USB_REQ_RECIPIENT_DEVICE
 258:Middlewares/ST/STM32_USB_Host_Library/Core/Src/usbh_ctlreq.c ****                                            | USB_REQ_TYPE_STANDARD;
ARM GAS  /tmp/ccXc1b7R.s 			page 6


 259:Middlewares/ST/STM32_USB_Host_Library/Core/Src/usbh_ctlreq.c **** 
 260:Middlewares/ST/STM32_USB_Host_Library/Core/Src/usbh_ctlreq.c ****     phost->Control.setup.b.bRequest = USB_REQ_SET_CONFIGURATION;
 261:Middlewares/ST/STM32_USB_Host_Library/Core/Src/usbh_ctlreq.c ****     phost->Control.setup.b.wValue.w = cfg_idx;
 262:Middlewares/ST/STM32_USB_Host_Library/Core/Src/usbh_ctlreq.c ****     phost->Control.setup.b.wIndex.w = 0U;
 263:Middlewares/ST/STM32_USB_Host_Library/Core/Src/usbh_ctlreq.c ****     phost->Control.setup.b.wLength.w = 0U;
 264:Middlewares/ST/STM32_USB_Host_Library/Core/Src/usbh_ctlreq.c ****   }
 265:Middlewares/ST/STM32_USB_Host_Library/Core/Src/usbh_ctlreq.c **** 
 266:Middlewares/ST/STM32_USB_Host_Library/Core/Src/usbh_ctlreq.c ****   return USBH_CtlReq(phost, NULL, 0U);
 267:Middlewares/ST/STM32_USB_Host_Library/Core/Src/usbh_ctlreq.c **** }
 268:Middlewares/ST/STM32_USB_Host_Library/Core/Src/usbh_ctlreq.c **** 
 269:Middlewares/ST/STM32_USB_Host_Library/Core/Src/usbh_ctlreq.c **** 
 270:Middlewares/ST/STM32_USB_Host_Library/Core/Src/usbh_ctlreq.c **** /**
 271:Middlewares/ST/STM32_USB_Host_Library/Core/Src/usbh_ctlreq.c ****   * @brief  USBH_SetInterface
 272:Middlewares/ST/STM32_USB_Host_Library/Core/Src/usbh_ctlreq.c ****   *         The command sets the Interface value to the connected device
 273:Middlewares/ST/STM32_USB_Host_Library/Core/Src/usbh_ctlreq.c ****   * @param  phost: Host Handle
 274:Middlewares/ST/STM32_USB_Host_Library/Core/Src/usbh_ctlreq.c ****   * @param  altSetting: Interface value
 275:Middlewares/ST/STM32_USB_Host_Library/Core/Src/usbh_ctlreq.c ****   * @retval USBH Status
 276:Middlewares/ST/STM32_USB_Host_Library/Core/Src/usbh_ctlreq.c ****   */
 277:Middlewares/ST/STM32_USB_Host_Library/Core/Src/usbh_ctlreq.c **** USBH_StatusTypeDef USBH_SetInterface(USBH_HandleTypeDef *phost, uint8_t ep_num,
 278:Middlewares/ST/STM32_USB_Host_Library/Core/Src/usbh_ctlreq.c ****                                      uint8_t altSetting)
 279:Middlewares/ST/STM32_USB_Host_Library/Core/Src/usbh_ctlreq.c **** {
 280:Middlewares/ST/STM32_USB_Host_Library/Core/Src/usbh_ctlreq.c ****   if (phost->RequestState == CMD_SEND)
 281:Middlewares/ST/STM32_USB_Host_Library/Core/Src/usbh_ctlreq.c ****   {
 282:Middlewares/ST/STM32_USB_Host_Library/Core/Src/usbh_ctlreq.c ****     phost->Control.setup.b.bmRequestType = USB_H2D | USB_REQ_RECIPIENT_INTERFACE
 283:Middlewares/ST/STM32_USB_Host_Library/Core/Src/usbh_ctlreq.c ****                                            | USB_REQ_TYPE_STANDARD;
 284:Middlewares/ST/STM32_USB_Host_Library/Core/Src/usbh_ctlreq.c **** 
 285:Middlewares/ST/STM32_USB_Host_Library/Core/Src/usbh_ctlreq.c ****     phost->Control.setup.b.bRequest = USB_REQ_SET_INTERFACE;
 286:Middlewares/ST/STM32_USB_Host_Library/Core/Src/usbh_ctlreq.c ****     phost->Control.setup.b.wValue.w = altSetting;
 287:Middlewares/ST/STM32_USB_Host_Library/Core/Src/usbh_ctlreq.c ****     phost->Control.setup.b.wIndex.w = ep_num;
 288:Middlewares/ST/STM32_USB_Host_Library/Core/Src/usbh_ctlreq.c ****     phost->Control.setup.b.wLength.w = 0U;
 289:Middlewares/ST/STM32_USB_Host_Library/Core/Src/usbh_ctlreq.c ****   }
 290:Middlewares/ST/STM32_USB_Host_Library/Core/Src/usbh_ctlreq.c **** 
 291:Middlewares/ST/STM32_USB_Host_Library/Core/Src/usbh_ctlreq.c ****   return USBH_CtlReq(phost, NULL, 0U);
 292:Middlewares/ST/STM32_USB_Host_Library/Core/Src/usbh_ctlreq.c **** }
 293:Middlewares/ST/STM32_USB_Host_Library/Core/Src/usbh_ctlreq.c **** 
 294:Middlewares/ST/STM32_USB_Host_Library/Core/Src/usbh_ctlreq.c **** 
 295:Middlewares/ST/STM32_USB_Host_Library/Core/Src/usbh_ctlreq.c **** /**
 296:Middlewares/ST/STM32_USB_Host_Library/Core/Src/usbh_ctlreq.c ****   * @brief  USBH_SetFeature
 297:Middlewares/ST/STM32_USB_Host_Library/Core/Src/usbh_ctlreq.c ****   *         The command sets the device features (remote wakeup feature,..)
 298:Middlewares/ST/STM32_USB_Host_Library/Core/Src/usbh_ctlreq.c ****   * @param  pdev: Selected device
 299:Middlewares/ST/STM32_USB_Host_Library/Core/Src/usbh_ctlreq.c ****   * @param  itf_idx
 300:Middlewares/ST/STM32_USB_Host_Library/Core/Src/usbh_ctlreq.c ****   * @retval Status
 301:Middlewares/ST/STM32_USB_Host_Library/Core/Src/usbh_ctlreq.c ****   */
 302:Middlewares/ST/STM32_USB_Host_Library/Core/Src/usbh_ctlreq.c **** USBH_StatusTypeDef USBH_SetFeature(USBH_HandleTypeDef *phost, uint8_t wValue)
 303:Middlewares/ST/STM32_USB_Host_Library/Core/Src/usbh_ctlreq.c **** {
 304:Middlewares/ST/STM32_USB_Host_Library/Core/Src/usbh_ctlreq.c ****   if (phost->RequestState == CMD_SEND)
 305:Middlewares/ST/STM32_USB_Host_Library/Core/Src/usbh_ctlreq.c ****   {
 306:Middlewares/ST/STM32_USB_Host_Library/Core/Src/usbh_ctlreq.c ****     phost->Control.setup.b.bmRequestType = USB_H2D | USB_REQ_RECIPIENT_DEVICE
 307:Middlewares/ST/STM32_USB_Host_Library/Core/Src/usbh_ctlreq.c ****                                            | USB_REQ_TYPE_STANDARD;
 308:Middlewares/ST/STM32_USB_Host_Library/Core/Src/usbh_ctlreq.c **** 
 309:Middlewares/ST/STM32_USB_Host_Library/Core/Src/usbh_ctlreq.c ****     phost->Control.setup.b.bRequest = USB_REQ_SET_FEATURE;
 310:Middlewares/ST/STM32_USB_Host_Library/Core/Src/usbh_ctlreq.c ****     phost->Control.setup.b.wValue.w = wValue;
 311:Middlewares/ST/STM32_USB_Host_Library/Core/Src/usbh_ctlreq.c ****     phost->Control.setup.b.wIndex.w = 0U;
 312:Middlewares/ST/STM32_USB_Host_Library/Core/Src/usbh_ctlreq.c ****     phost->Control.setup.b.wLength.w = 0U;
 313:Middlewares/ST/STM32_USB_Host_Library/Core/Src/usbh_ctlreq.c ****   }
 314:Middlewares/ST/STM32_USB_Host_Library/Core/Src/usbh_ctlreq.c **** 
 315:Middlewares/ST/STM32_USB_Host_Library/Core/Src/usbh_ctlreq.c ****   return USBH_CtlReq(phost, NULL, 0U);
ARM GAS  /tmp/ccXc1b7R.s 			page 7


 316:Middlewares/ST/STM32_USB_Host_Library/Core/Src/usbh_ctlreq.c **** }
 317:Middlewares/ST/STM32_USB_Host_Library/Core/Src/usbh_ctlreq.c **** 
 318:Middlewares/ST/STM32_USB_Host_Library/Core/Src/usbh_ctlreq.c **** 
 319:Middlewares/ST/STM32_USB_Host_Library/Core/Src/usbh_ctlreq.c **** /**
 320:Middlewares/ST/STM32_USB_Host_Library/Core/Src/usbh_ctlreq.c ****   * @brief  USBH_ClrFeature
 321:Middlewares/ST/STM32_USB_Host_Library/Core/Src/usbh_ctlreq.c ****   *         This request is used to clear or disable a specific feature.
 322:Middlewares/ST/STM32_USB_Host_Library/Core/Src/usbh_ctlreq.c ****   * @param  phost: Host Handle
 323:Middlewares/ST/STM32_USB_Host_Library/Core/Src/usbh_ctlreq.c ****   * @param  ep_num: endpoint number
 324:Middlewares/ST/STM32_USB_Host_Library/Core/Src/usbh_ctlreq.c ****   * @param  hc_num: Host channel number
 325:Middlewares/ST/STM32_USB_Host_Library/Core/Src/usbh_ctlreq.c ****   * @retval USBH Status
 326:Middlewares/ST/STM32_USB_Host_Library/Core/Src/usbh_ctlreq.c ****   */
 327:Middlewares/ST/STM32_USB_Host_Library/Core/Src/usbh_ctlreq.c **** USBH_StatusTypeDef USBH_ClrFeature(USBH_HandleTypeDef *phost, uint8_t ep_num)
 328:Middlewares/ST/STM32_USB_Host_Library/Core/Src/usbh_ctlreq.c **** {
 329:Middlewares/ST/STM32_USB_Host_Library/Core/Src/usbh_ctlreq.c ****   if (phost->RequestState == CMD_SEND)
 330:Middlewares/ST/STM32_USB_Host_Library/Core/Src/usbh_ctlreq.c ****   {
 331:Middlewares/ST/STM32_USB_Host_Library/Core/Src/usbh_ctlreq.c ****     phost->Control.setup.b.bmRequestType = USB_H2D | USB_REQ_RECIPIENT_ENDPOINT
 332:Middlewares/ST/STM32_USB_Host_Library/Core/Src/usbh_ctlreq.c ****                                            | USB_REQ_TYPE_STANDARD;
 333:Middlewares/ST/STM32_USB_Host_Library/Core/Src/usbh_ctlreq.c **** 
 334:Middlewares/ST/STM32_USB_Host_Library/Core/Src/usbh_ctlreq.c ****     phost->Control.setup.b.bRequest = USB_REQ_CLEAR_FEATURE;
 335:Middlewares/ST/STM32_USB_Host_Library/Core/Src/usbh_ctlreq.c ****     phost->Control.setup.b.wValue.w = FEATURE_SELECTOR_ENDPOINT;
 336:Middlewares/ST/STM32_USB_Host_Library/Core/Src/usbh_ctlreq.c ****     phost->Control.setup.b.wIndex.w = ep_num;
 337:Middlewares/ST/STM32_USB_Host_Library/Core/Src/usbh_ctlreq.c ****     phost->Control.setup.b.wLength.w = 0U;
 338:Middlewares/ST/STM32_USB_Host_Library/Core/Src/usbh_ctlreq.c ****   }
 339:Middlewares/ST/STM32_USB_Host_Library/Core/Src/usbh_ctlreq.c ****   return USBH_CtlReq(phost, NULL, 0U);
 340:Middlewares/ST/STM32_USB_Host_Library/Core/Src/usbh_ctlreq.c **** }
 341:Middlewares/ST/STM32_USB_Host_Library/Core/Src/usbh_ctlreq.c **** 
 342:Middlewares/ST/STM32_USB_Host_Library/Core/Src/usbh_ctlreq.c **** 
 343:Middlewares/ST/STM32_USB_Host_Library/Core/Src/usbh_ctlreq.c **** /**
 344:Middlewares/ST/STM32_USB_Host_Library/Core/Src/usbh_ctlreq.c ****   * @brief  USBH_ParseDevDesc
 345:Middlewares/ST/STM32_USB_Host_Library/Core/Src/usbh_ctlreq.c ****   *         This function Parses the device descriptor
 346:Middlewares/ST/STM32_USB_Host_Library/Core/Src/usbh_ctlreq.c ****   * @param  dev_desc: device_descriptor destination address
 347:Middlewares/ST/STM32_USB_Host_Library/Core/Src/usbh_ctlreq.c ****   * @param  buf: Buffer where the source descriptor is available
 348:Middlewares/ST/STM32_USB_Host_Library/Core/Src/usbh_ctlreq.c ****   * @param  length: Length of the descriptor
 349:Middlewares/ST/STM32_USB_Host_Library/Core/Src/usbh_ctlreq.c ****   * @retval None
 350:Middlewares/ST/STM32_USB_Host_Library/Core/Src/usbh_ctlreq.c ****   */
 351:Middlewares/ST/STM32_USB_Host_Library/Core/Src/usbh_ctlreq.c **** static void USBH_ParseDevDesc(USBH_DevDescTypeDef *dev_desc, uint8_t *buf,
 352:Middlewares/ST/STM32_USB_Host_Library/Core/Src/usbh_ctlreq.c ****                               uint16_t length)
 353:Middlewares/ST/STM32_USB_Host_Library/Core/Src/usbh_ctlreq.c **** {
  29              		.loc 1 353 1 view -0
  30              		.cfi_startproc
  31              		@ args = 0, pretend = 0, frame = 0
  32              		@ frame_needed = 0, uses_anonymous_args = 0
  33              		@ link register save eliminated.
  34              		.loc 1 353 1 is_stmt 0 view .LVU1
  35 0000 10B4     		push	{r4}
  36              	.LCFI0:
  37              		.cfi_def_cfa_offset 4
  38              		.cfi_offset 4, -4
 354:Middlewares/ST/STM32_USB_Host_Library/Core/Src/usbh_ctlreq.c ****   dev_desc->bLength            = *(uint8_t *)(buf +  0);
  39              		.loc 1 354 3 is_stmt 1 view .LVU2
  40              		.loc 1 354 34 is_stmt 0 view .LVU3
  41 0002 0B78     		ldrb	r3, [r1]	@ zero_extendqisi2
  42              		.loc 1 354 32 view .LVU4
  43 0004 0370     		strb	r3, [r0]
 355:Middlewares/ST/STM32_USB_Host_Library/Core/Src/usbh_ctlreq.c ****   dev_desc->bDescriptorType    = *(uint8_t *)(buf +  1);
  44              		.loc 1 355 3 is_stmt 1 view .LVU5
  45              		.loc 1 355 32 is_stmt 0 view .LVU6
ARM GAS  /tmp/ccXc1b7R.s 			page 8


  46 0006 4B78     		ldrb	r3, [r1, #1]	@ zero_extendqisi2
  47 0008 4370     		strb	r3, [r0, #1]
 356:Middlewares/ST/STM32_USB_Host_Library/Core/Src/usbh_ctlreq.c ****   dev_desc->bcdUSB             = LE16(buf +  2);
  48              		.loc 1 356 3 is_stmt 1 view .LVU7
  49              		.loc 1 356 34 is_stmt 0 view .LVU8
  50 000a 8B78     		ldrb	r3, [r1, #2]	@ zero_extendqisi2
  51 000c CC78     		ldrb	r4, [r1, #3]	@ zero_extendqisi2
  52 000e 43EA0423 		orr	r3, r3, r4, lsl #8
  53              		.loc 1 356 32 view .LVU9
  54 0012 4380     		strh	r3, [r0, #2]	@ movhi
 357:Middlewares/ST/STM32_USB_Host_Library/Core/Src/usbh_ctlreq.c ****   dev_desc->bDeviceClass       = *(uint8_t *)(buf +  4);
  55              		.loc 1 357 3 is_stmt 1 view .LVU10
  56              		.loc 1 357 32 is_stmt 0 view .LVU11
  57 0014 0B79     		ldrb	r3, [r1, #4]	@ zero_extendqisi2
  58 0016 0371     		strb	r3, [r0, #4]
 358:Middlewares/ST/STM32_USB_Host_Library/Core/Src/usbh_ctlreq.c ****   dev_desc->bDeviceSubClass    = *(uint8_t *)(buf +  5);
  59              		.loc 1 358 3 is_stmt 1 view .LVU12
  60              		.loc 1 358 32 is_stmt 0 view .LVU13
  61 0018 4B79     		ldrb	r3, [r1, #5]	@ zero_extendqisi2
  62 001a 4371     		strb	r3, [r0, #5]
 359:Middlewares/ST/STM32_USB_Host_Library/Core/Src/usbh_ctlreq.c ****   dev_desc->bDeviceProtocol    = *(uint8_t *)(buf +  6);
  63              		.loc 1 359 3 is_stmt 1 view .LVU14
  64              		.loc 1 359 32 is_stmt 0 view .LVU15
  65 001c 8B79     		ldrb	r3, [r1, #6]	@ zero_extendqisi2
  66 001e 8371     		strb	r3, [r0, #6]
 360:Middlewares/ST/STM32_USB_Host_Library/Core/Src/usbh_ctlreq.c ****   dev_desc->bMaxPacketSize     = *(uint8_t *)(buf +  7);
  67              		.loc 1 360 3 is_stmt 1 view .LVU16
  68              		.loc 1 360 32 is_stmt 0 view .LVU17
  69 0020 CB79     		ldrb	r3, [r1, #7]	@ zero_extendqisi2
  70 0022 C371     		strb	r3, [r0, #7]
 361:Middlewares/ST/STM32_USB_Host_Library/Core/Src/usbh_ctlreq.c **** 
 362:Middlewares/ST/STM32_USB_Host_Library/Core/Src/usbh_ctlreq.c ****   /* Make sure that the max packet size is either 8, 16, 32, 64 or force it to 64 */
 363:Middlewares/ST/STM32_USB_Host_Library/Core/Src/usbh_ctlreq.c ****   switch (dev_desc->bMaxPacketSize)
  71              		.loc 1 363 3 is_stmt 1 view .LVU18
  72 0024 202B     		cmp	r3, #32
  73 0026 27D8     		bhi	.L2
  74 0028 082B     		cmp	r3, #8
  75 002a 07D3     		bcc	.L3
  76 002c 083B     		subs	r3, r3, #8
  77 002e DBB2     		uxtb	r3, r3
  78 0030 134C     		ldr	r4, .L7
  79 0032 24FA03F3 		lsr	r3, r4, r3
  80 0036 13F0010F 		tst	r3, #1
  81 003a 01D1     		bne	.L4
  82              	.L3:
 364:Middlewares/ST/STM32_USB_Host_Library/Core/Src/usbh_ctlreq.c ****   {
 365:Middlewares/ST/STM32_USB_Host_Library/Core/Src/usbh_ctlreq.c ****     case 8:
 366:Middlewares/ST/STM32_USB_Host_Library/Core/Src/usbh_ctlreq.c ****     case 16:
 367:Middlewares/ST/STM32_USB_Host_Library/Core/Src/usbh_ctlreq.c ****     case 32:
 368:Middlewares/ST/STM32_USB_Host_Library/Core/Src/usbh_ctlreq.c ****     case 64:
 369:Middlewares/ST/STM32_USB_Host_Library/Core/Src/usbh_ctlreq.c ****       dev_desc->bMaxPacketSize = dev_desc->bMaxPacketSize;
 370:Middlewares/ST/STM32_USB_Host_Library/Core/Src/usbh_ctlreq.c ****       break;
 371:Middlewares/ST/STM32_USB_Host_Library/Core/Src/usbh_ctlreq.c **** 
 372:Middlewares/ST/STM32_USB_Host_Library/Core/Src/usbh_ctlreq.c ****     default:
 373:Middlewares/ST/STM32_USB_Host_Library/Core/Src/usbh_ctlreq.c ****       /*set the size to 64 in case the device has answered with incorrect size */
 374:Middlewares/ST/STM32_USB_Host_Library/Core/Src/usbh_ctlreq.c ****       dev_desc->bMaxPacketSize = 64U;
  83              		.loc 1 374 7 view .LVU19
ARM GAS  /tmp/ccXc1b7R.s 			page 9


  84              		.loc 1 374 32 is_stmt 0 view .LVU20
  85 003c 4023     		movs	r3, #64
  86 003e C371     		strb	r3, [r0, #7]
 375:Middlewares/ST/STM32_USB_Host_Library/Core/Src/usbh_ctlreq.c ****       break;
  87              		.loc 1 375 7 is_stmt 1 view .LVU21
  88              	.L4:
 376:Middlewares/ST/STM32_USB_Host_Library/Core/Src/usbh_ctlreq.c ****   }
 377:Middlewares/ST/STM32_USB_Host_Library/Core/Src/usbh_ctlreq.c **** 
 378:Middlewares/ST/STM32_USB_Host_Library/Core/Src/usbh_ctlreq.c ****   if (length > 8U)
  89              		.loc 1 378 3 view .LVU22
  90              		.loc 1 378 6 is_stmt 0 view .LVU23
  91 0040 082A     		cmp	r2, #8
  92 0042 16D9     		bls	.L1
 379:Middlewares/ST/STM32_USB_Host_Library/Core/Src/usbh_ctlreq.c ****   {
 380:Middlewares/ST/STM32_USB_Host_Library/Core/Src/usbh_ctlreq.c ****     /* For 1st time after device connection, Host may issue only 8 bytes for
 381:Middlewares/ST/STM32_USB_Host_Library/Core/Src/usbh_ctlreq.c ****     Device Descriptor Length  */
 382:Middlewares/ST/STM32_USB_Host_Library/Core/Src/usbh_ctlreq.c ****     dev_desc->idVendor           = LE16(buf +  8);
  93              		.loc 1 382 5 is_stmt 1 view .LVU24
  94              		.loc 1 382 36 is_stmt 0 view .LVU25
  95 0044 0B7A     		ldrb	r3, [r1, #8]	@ zero_extendqisi2
  96 0046 4A7A     		ldrb	r2, [r1, #9]	@ zero_extendqisi2
  97              	.LVL1:
  98              		.loc 1 382 36 view .LVU26
  99 0048 43EA0223 		orr	r3, r3, r2, lsl #8
 100              		.loc 1 382 34 view .LVU27
 101 004c 0381     		strh	r3, [r0, #8]	@ movhi
 383:Middlewares/ST/STM32_USB_Host_Library/Core/Src/usbh_ctlreq.c ****     dev_desc->idProduct          = LE16(buf + 10);
 102              		.loc 1 383 5 is_stmt 1 view .LVU28
 103              		.loc 1 383 36 is_stmt 0 view .LVU29
 104 004e 8B7A     		ldrb	r3, [r1, #10]	@ zero_extendqisi2
 105 0050 CA7A     		ldrb	r2, [r1, #11]	@ zero_extendqisi2
 106 0052 43EA0223 		orr	r3, r3, r2, lsl #8
 107              		.loc 1 383 34 view .LVU30
 108 0056 4381     		strh	r3, [r0, #10]	@ movhi
 384:Middlewares/ST/STM32_USB_Host_Library/Core/Src/usbh_ctlreq.c ****     dev_desc->bcdDevice          = LE16(buf + 12);
 109              		.loc 1 384 5 is_stmt 1 view .LVU31
 110              		.loc 1 384 36 is_stmt 0 view .LVU32
 111 0058 0B7B     		ldrb	r3, [r1, #12]	@ zero_extendqisi2
 112 005a 4A7B     		ldrb	r2, [r1, #13]	@ zero_extendqisi2
 113 005c 43EA0223 		orr	r3, r3, r2, lsl #8
 114              		.loc 1 384 34 view .LVU33
 115 0060 8381     		strh	r3, [r0, #12]	@ movhi
 385:Middlewares/ST/STM32_USB_Host_Library/Core/Src/usbh_ctlreq.c ****     dev_desc->iManufacturer      = *(uint8_t *)(buf + 14);
 116              		.loc 1 385 5 is_stmt 1 view .LVU34
 117              		.loc 1 385 34 is_stmt 0 view .LVU35
 118 0062 8B7B     		ldrb	r3, [r1, #14]	@ zero_extendqisi2
 119 0064 8373     		strb	r3, [r0, #14]
 386:Middlewares/ST/STM32_USB_Host_Library/Core/Src/usbh_ctlreq.c ****     dev_desc->iProduct           = *(uint8_t *)(buf + 15);
 120              		.loc 1 386 5 is_stmt 1 view .LVU36
 121              		.loc 1 386 34 is_stmt 0 view .LVU37
 122 0066 CB7B     		ldrb	r3, [r1, #15]	@ zero_extendqisi2
 123 0068 C373     		strb	r3, [r0, #15]
 387:Middlewares/ST/STM32_USB_Host_Library/Core/Src/usbh_ctlreq.c ****     dev_desc->iSerialNumber      = *(uint8_t *)(buf + 16);
 124              		.loc 1 387 5 is_stmt 1 view .LVU38
 125              		.loc 1 387 34 is_stmt 0 view .LVU39
 126 006a 0B7C     		ldrb	r3, [r1, #16]	@ zero_extendqisi2
 127 006c 0374     		strb	r3, [r0, #16]
ARM GAS  /tmp/ccXc1b7R.s 			page 10


 388:Middlewares/ST/STM32_USB_Host_Library/Core/Src/usbh_ctlreq.c ****     dev_desc->bNumConfigurations = *(uint8_t *)(buf + 17);
 128              		.loc 1 388 5 is_stmt 1 view .LVU40
 129              		.loc 1 388 34 is_stmt 0 view .LVU41
 130 006e 4B7C     		ldrb	r3, [r1, #17]	@ zero_extendqisi2
 131 0070 4374     		strb	r3, [r0, #17]
 132              	.L1:
 389:Middlewares/ST/STM32_USB_Host_Library/Core/Src/usbh_ctlreq.c ****   }
 390:Middlewares/ST/STM32_USB_Host_Library/Core/Src/usbh_ctlreq.c **** }
 133              		.loc 1 390 1 view .LVU42
 134 0072 5DF8044B 		ldr	r4, [sp], #4
 135              	.LCFI1:
 136              		.cfi_remember_state
 137              		.cfi_restore 4
 138              		.cfi_def_cfa_offset 0
 139 0076 7047     		bx	lr
 140              	.LVL2:
 141              	.L2:
 142              	.LCFI2:
 143              		.cfi_restore_state
 363:Middlewares/ST/STM32_USB_Host_Library/Core/Src/usbh_ctlreq.c ****   {
 144              		.loc 1 363 3 view .LVU43
 145 0078 402B     		cmp	r3, #64
 146 007a DFD1     		bne	.L3
 147 007c E0E7     		b	.L4
 148              	.L8:
 149 007e 00BF     		.align	2
 150              	.L7:
 151 0080 01010001 		.word	16777473
 152              		.cfi_endproc
 153              	.LFE153:
 155              		.section	.text.USBH_ParseInterfaceDesc,"ax",%progbits
 156              		.align	1
 157              		.syntax unified
 158              		.thumb
 159              		.thumb_func
 161              	USBH_ParseInterfaceDesc:
 162              	.LVL3:
 163              	.LFB155:
 391:Middlewares/ST/STM32_USB_Host_Library/Core/Src/usbh_ctlreq.c **** 
 392:Middlewares/ST/STM32_USB_Host_Library/Core/Src/usbh_ctlreq.c **** 
 393:Middlewares/ST/STM32_USB_Host_Library/Core/Src/usbh_ctlreq.c **** /**
 394:Middlewares/ST/STM32_USB_Host_Library/Core/Src/usbh_ctlreq.c ****   * @brief  USBH_ParseCfgDesc
 395:Middlewares/ST/STM32_USB_Host_Library/Core/Src/usbh_ctlreq.c ****   *         This function Parses the configuration descriptor
 396:Middlewares/ST/STM32_USB_Host_Library/Core/Src/usbh_ctlreq.c ****   * @param  phost: USB Host handler
 397:Middlewares/ST/STM32_USB_Host_Library/Core/Src/usbh_ctlreq.c ****   * @param  buf: Buffer where the source descriptor is available
 398:Middlewares/ST/STM32_USB_Host_Library/Core/Src/usbh_ctlreq.c ****   * @param  length: Length of the descriptor
 399:Middlewares/ST/STM32_USB_Host_Library/Core/Src/usbh_ctlreq.c ****   * @retval USBH statuse
 400:Middlewares/ST/STM32_USB_Host_Library/Core/Src/usbh_ctlreq.c ****   */
 401:Middlewares/ST/STM32_USB_Host_Library/Core/Src/usbh_ctlreq.c **** static USBH_StatusTypeDef USBH_ParseCfgDesc(USBH_HandleTypeDef *phost, uint8_t *buf, uint16_t lengt
 402:Middlewares/ST/STM32_USB_Host_Library/Core/Src/usbh_ctlreq.c **** {
 403:Middlewares/ST/STM32_USB_Host_Library/Core/Src/usbh_ctlreq.c ****   USBH_CfgDescTypeDef *cfg_desc = &phost->device.CfgDesc;
 404:Middlewares/ST/STM32_USB_Host_Library/Core/Src/usbh_ctlreq.c ****   USBH_StatusTypeDef           status = USBH_OK;
 405:Middlewares/ST/STM32_USB_Host_Library/Core/Src/usbh_ctlreq.c ****   USBH_InterfaceDescTypeDef    *pif;
 406:Middlewares/ST/STM32_USB_Host_Library/Core/Src/usbh_ctlreq.c ****   USBH_EpDescTypeDef           *pep;
 407:Middlewares/ST/STM32_USB_Host_Library/Core/Src/usbh_ctlreq.c ****   USBH_DescHeader_t            *pdesc = (USBH_DescHeader_t *)(void *)buf;
 408:Middlewares/ST/STM32_USB_Host_Library/Core/Src/usbh_ctlreq.c ****   uint16_t                     ptr;
 409:Middlewares/ST/STM32_USB_Host_Library/Core/Src/usbh_ctlreq.c ****   uint8_t                      if_ix = 0U;
ARM GAS  /tmp/ccXc1b7R.s 			page 11


 410:Middlewares/ST/STM32_USB_Host_Library/Core/Src/usbh_ctlreq.c ****   uint8_t                      ep_ix = 0U;
 411:Middlewares/ST/STM32_USB_Host_Library/Core/Src/usbh_ctlreq.c **** 
 412:Middlewares/ST/STM32_USB_Host_Library/Core/Src/usbh_ctlreq.c ****   pdesc   = (USBH_DescHeader_t *)(void *)buf;
 413:Middlewares/ST/STM32_USB_Host_Library/Core/Src/usbh_ctlreq.c **** 
 414:Middlewares/ST/STM32_USB_Host_Library/Core/Src/usbh_ctlreq.c ****   /* Parse configuration descriptor */
 415:Middlewares/ST/STM32_USB_Host_Library/Core/Src/usbh_ctlreq.c ****   cfg_desc->bLength             = *(uint8_t *)(buf + 0);
 416:Middlewares/ST/STM32_USB_Host_Library/Core/Src/usbh_ctlreq.c ****   cfg_desc->bDescriptorType     = *(uint8_t *)(buf + 1);
 417:Middlewares/ST/STM32_USB_Host_Library/Core/Src/usbh_ctlreq.c ****   cfg_desc->wTotalLength        = MIN(((uint16_t) LE16(buf + 2)), ((uint16_t)USBH_MAX_SIZE_CONFIGUR
 418:Middlewares/ST/STM32_USB_Host_Library/Core/Src/usbh_ctlreq.c ****   cfg_desc->bNumInterfaces      = *(uint8_t *)(buf + 4);
 419:Middlewares/ST/STM32_USB_Host_Library/Core/Src/usbh_ctlreq.c ****   cfg_desc->bConfigurationValue = *(uint8_t *)(buf + 5);
 420:Middlewares/ST/STM32_USB_Host_Library/Core/Src/usbh_ctlreq.c ****   cfg_desc->iConfiguration      = *(uint8_t *)(buf + 6);
 421:Middlewares/ST/STM32_USB_Host_Library/Core/Src/usbh_ctlreq.c ****   cfg_desc->bmAttributes        = *(uint8_t *)(buf + 7);
 422:Middlewares/ST/STM32_USB_Host_Library/Core/Src/usbh_ctlreq.c ****   cfg_desc->bMaxPower           = *(uint8_t *)(buf + 8);
 423:Middlewares/ST/STM32_USB_Host_Library/Core/Src/usbh_ctlreq.c **** 
 424:Middlewares/ST/STM32_USB_Host_Library/Core/Src/usbh_ctlreq.c ****   /* Make sure that the Configuration descriptor's bLength is equal to USB_CONFIGURATION_DESC_SIZE 
 425:Middlewares/ST/STM32_USB_Host_Library/Core/Src/usbh_ctlreq.c ****   if (cfg_desc->bLength  != USB_CONFIGURATION_DESC_SIZE)
 426:Middlewares/ST/STM32_USB_Host_Library/Core/Src/usbh_ctlreq.c ****   {
 427:Middlewares/ST/STM32_USB_Host_Library/Core/Src/usbh_ctlreq.c ****     cfg_desc->bLength = USB_CONFIGURATION_DESC_SIZE;
 428:Middlewares/ST/STM32_USB_Host_Library/Core/Src/usbh_ctlreq.c ****   }
 429:Middlewares/ST/STM32_USB_Host_Library/Core/Src/usbh_ctlreq.c **** 
 430:Middlewares/ST/STM32_USB_Host_Library/Core/Src/usbh_ctlreq.c ****   if (length > USB_CONFIGURATION_DESC_SIZE)
 431:Middlewares/ST/STM32_USB_Host_Library/Core/Src/usbh_ctlreq.c ****   {
 432:Middlewares/ST/STM32_USB_Host_Library/Core/Src/usbh_ctlreq.c ****     ptr = USB_LEN_CFG_DESC;
 433:Middlewares/ST/STM32_USB_Host_Library/Core/Src/usbh_ctlreq.c ****     pif = (USBH_InterfaceDescTypeDef *)NULL;
 434:Middlewares/ST/STM32_USB_Host_Library/Core/Src/usbh_ctlreq.c **** 
 435:Middlewares/ST/STM32_USB_Host_Library/Core/Src/usbh_ctlreq.c ****     while ((if_ix < USBH_MAX_NUM_INTERFACES) && (ptr < cfg_desc->wTotalLength))
 436:Middlewares/ST/STM32_USB_Host_Library/Core/Src/usbh_ctlreq.c ****     {
 437:Middlewares/ST/STM32_USB_Host_Library/Core/Src/usbh_ctlreq.c ****       pdesc = USBH_GetNextDesc((uint8_t *)(void *)pdesc, &ptr);
 438:Middlewares/ST/STM32_USB_Host_Library/Core/Src/usbh_ctlreq.c ****       if (pdesc->bDescriptorType == USB_DESC_TYPE_INTERFACE)
 439:Middlewares/ST/STM32_USB_Host_Library/Core/Src/usbh_ctlreq.c ****       {
 440:Middlewares/ST/STM32_USB_Host_Library/Core/Src/usbh_ctlreq.c ****         /* Make sure that the interface descriptor's bLength is equal to USB_INTERFACE_DESC_SIZE */
 441:Middlewares/ST/STM32_USB_Host_Library/Core/Src/usbh_ctlreq.c ****         if (pdesc->bLength != USB_INTERFACE_DESC_SIZE)
 442:Middlewares/ST/STM32_USB_Host_Library/Core/Src/usbh_ctlreq.c ****         {
 443:Middlewares/ST/STM32_USB_Host_Library/Core/Src/usbh_ctlreq.c ****           pdesc->bLength = USB_INTERFACE_DESC_SIZE;
 444:Middlewares/ST/STM32_USB_Host_Library/Core/Src/usbh_ctlreq.c ****         }
 445:Middlewares/ST/STM32_USB_Host_Library/Core/Src/usbh_ctlreq.c **** 
 446:Middlewares/ST/STM32_USB_Host_Library/Core/Src/usbh_ctlreq.c ****         pif = &cfg_desc->Itf_Desc[if_ix];
 447:Middlewares/ST/STM32_USB_Host_Library/Core/Src/usbh_ctlreq.c ****         USBH_ParseInterfaceDesc(pif, (uint8_t *)(void *)pdesc);
 448:Middlewares/ST/STM32_USB_Host_Library/Core/Src/usbh_ctlreq.c **** 
 449:Middlewares/ST/STM32_USB_Host_Library/Core/Src/usbh_ctlreq.c ****         ep_ix = 0U;
 450:Middlewares/ST/STM32_USB_Host_Library/Core/Src/usbh_ctlreq.c ****         pep = (USBH_EpDescTypeDef *)NULL;
 451:Middlewares/ST/STM32_USB_Host_Library/Core/Src/usbh_ctlreq.c **** 
 452:Middlewares/ST/STM32_USB_Host_Library/Core/Src/usbh_ctlreq.c ****         while ((ep_ix < pif->bNumEndpoints) && (ptr < cfg_desc->wTotalLength))
 453:Middlewares/ST/STM32_USB_Host_Library/Core/Src/usbh_ctlreq.c ****         {
 454:Middlewares/ST/STM32_USB_Host_Library/Core/Src/usbh_ctlreq.c ****           pdesc = USBH_GetNextDesc((uint8_t *)(void *)pdesc, &ptr);
 455:Middlewares/ST/STM32_USB_Host_Library/Core/Src/usbh_ctlreq.c **** 
 456:Middlewares/ST/STM32_USB_Host_Library/Core/Src/usbh_ctlreq.c ****           if (pdesc->bDescriptorType == USB_DESC_TYPE_ENDPOINT)
 457:Middlewares/ST/STM32_USB_Host_Library/Core/Src/usbh_ctlreq.c ****           {
 458:Middlewares/ST/STM32_USB_Host_Library/Core/Src/usbh_ctlreq.c ****             /* Check if the endpoint is appartening to an audio streaming interface */
 459:Middlewares/ST/STM32_USB_Host_Library/Core/Src/usbh_ctlreq.c ****             if ((pif->bInterfaceClass == 0x01U) && (pif->bInterfaceSubClass == 0x02U))
 460:Middlewares/ST/STM32_USB_Host_Library/Core/Src/usbh_ctlreq.c ****             {
 461:Middlewares/ST/STM32_USB_Host_Library/Core/Src/usbh_ctlreq.c ****               /* Check if it is supporting the USB AUDIO 01 class specification */
 462:Middlewares/ST/STM32_USB_Host_Library/Core/Src/usbh_ctlreq.c ****               if ((pif->bInterfaceProtocol == 0x00U) && (pdesc->bLength != 0x09U))
 463:Middlewares/ST/STM32_USB_Host_Library/Core/Src/usbh_ctlreq.c ****               {
 464:Middlewares/ST/STM32_USB_Host_Library/Core/Src/usbh_ctlreq.c ****                 pdesc->bLength = 0x09U;
 465:Middlewares/ST/STM32_USB_Host_Library/Core/Src/usbh_ctlreq.c ****               }
 466:Middlewares/ST/STM32_USB_Host_Library/Core/Src/usbh_ctlreq.c ****             }
ARM GAS  /tmp/ccXc1b7R.s 			page 12


 467:Middlewares/ST/STM32_USB_Host_Library/Core/Src/usbh_ctlreq.c ****             /* Make sure that the endpoint descriptor's bLength is equal to
 468:Middlewares/ST/STM32_USB_Host_Library/Core/Src/usbh_ctlreq.c ****                USB_ENDPOINT_DESC_SIZE for all other endpoints types */
 469:Middlewares/ST/STM32_USB_Host_Library/Core/Src/usbh_ctlreq.c ****             else
 470:Middlewares/ST/STM32_USB_Host_Library/Core/Src/usbh_ctlreq.c ****             {
 471:Middlewares/ST/STM32_USB_Host_Library/Core/Src/usbh_ctlreq.c ****               pdesc->bLength = USB_ENDPOINT_DESC_SIZE;
 472:Middlewares/ST/STM32_USB_Host_Library/Core/Src/usbh_ctlreq.c ****             }
 473:Middlewares/ST/STM32_USB_Host_Library/Core/Src/usbh_ctlreq.c **** 
 474:Middlewares/ST/STM32_USB_Host_Library/Core/Src/usbh_ctlreq.c ****             pep = &cfg_desc->Itf_Desc[if_ix].Ep_Desc[ep_ix];
 475:Middlewares/ST/STM32_USB_Host_Library/Core/Src/usbh_ctlreq.c **** 
 476:Middlewares/ST/STM32_USB_Host_Library/Core/Src/usbh_ctlreq.c ****             status = USBH_ParseEPDesc(phost, pep, (uint8_t *)(void *)pdesc);
 477:Middlewares/ST/STM32_USB_Host_Library/Core/Src/usbh_ctlreq.c **** 
 478:Middlewares/ST/STM32_USB_Host_Library/Core/Src/usbh_ctlreq.c ****             ep_ix++;
 479:Middlewares/ST/STM32_USB_Host_Library/Core/Src/usbh_ctlreq.c ****           }
 480:Middlewares/ST/STM32_USB_Host_Library/Core/Src/usbh_ctlreq.c ****         }
 481:Middlewares/ST/STM32_USB_Host_Library/Core/Src/usbh_ctlreq.c **** 
 482:Middlewares/ST/STM32_USB_Host_Library/Core/Src/usbh_ctlreq.c ****         /* Check if the required endpoint(s) data are parsed */
 483:Middlewares/ST/STM32_USB_Host_Library/Core/Src/usbh_ctlreq.c ****         if (ep_ix < pif->bNumEndpoints)
 484:Middlewares/ST/STM32_USB_Host_Library/Core/Src/usbh_ctlreq.c ****         {
 485:Middlewares/ST/STM32_USB_Host_Library/Core/Src/usbh_ctlreq.c ****           return USBH_NOT_SUPPORTED;
 486:Middlewares/ST/STM32_USB_Host_Library/Core/Src/usbh_ctlreq.c ****         }
 487:Middlewares/ST/STM32_USB_Host_Library/Core/Src/usbh_ctlreq.c **** 
 488:Middlewares/ST/STM32_USB_Host_Library/Core/Src/usbh_ctlreq.c ****         if_ix++;
 489:Middlewares/ST/STM32_USB_Host_Library/Core/Src/usbh_ctlreq.c ****       }
 490:Middlewares/ST/STM32_USB_Host_Library/Core/Src/usbh_ctlreq.c ****     }
 491:Middlewares/ST/STM32_USB_Host_Library/Core/Src/usbh_ctlreq.c **** 
 492:Middlewares/ST/STM32_USB_Host_Library/Core/Src/usbh_ctlreq.c ****     /* Check if the required interface(s) data are parsed */
 493:Middlewares/ST/STM32_USB_Host_Library/Core/Src/usbh_ctlreq.c ****     if (if_ix < MIN(cfg_desc->bNumInterfaces, (uint8_t)USBH_MAX_NUM_INTERFACES))
 494:Middlewares/ST/STM32_USB_Host_Library/Core/Src/usbh_ctlreq.c ****     {
 495:Middlewares/ST/STM32_USB_Host_Library/Core/Src/usbh_ctlreq.c ****       return USBH_NOT_SUPPORTED;
 496:Middlewares/ST/STM32_USB_Host_Library/Core/Src/usbh_ctlreq.c ****     }
 497:Middlewares/ST/STM32_USB_Host_Library/Core/Src/usbh_ctlreq.c ****   }
 498:Middlewares/ST/STM32_USB_Host_Library/Core/Src/usbh_ctlreq.c **** 
 499:Middlewares/ST/STM32_USB_Host_Library/Core/Src/usbh_ctlreq.c ****   return status;
 500:Middlewares/ST/STM32_USB_Host_Library/Core/Src/usbh_ctlreq.c **** }
 501:Middlewares/ST/STM32_USB_Host_Library/Core/Src/usbh_ctlreq.c **** 
 502:Middlewares/ST/STM32_USB_Host_Library/Core/Src/usbh_ctlreq.c **** 
 503:Middlewares/ST/STM32_USB_Host_Library/Core/Src/usbh_ctlreq.c **** /**
 504:Middlewares/ST/STM32_USB_Host_Library/Core/Src/usbh_ctlreq.c ****   * @brief  USBH_ParseInterfaceDesc
 505:Middlewares/ST/STM32_USB_Host_Library/Core/Src/usbh_ctlreq.c ****   *         This function Parses the interface descriptor
 506:Middlewares/ST/STM32_USB_Host_Library/Core/Src/usbh_ctlreq.c ****   * @param  if_descriptor : Interface descriptor destination
 507:Middlewares/ST/STM32_USB_Host_Library/Core/Src/usbh_ctlreq.c ****   * @param  buf: Buffer where the descriptor data is available
 508:Middlewares/ST/STM32_USB_Host_Library/Core/Src/usbh_ctlreq.c ****   * @retval None
 509:Middlewares/ST/STM32_USB_Host_Library/Core/Src/usbh_ctlreq.c ****   */
 510:Middlewares/ST/STM32_USB_Host_Library/Core/Src/usbh_ctlreq.c **** static void USBH_ParseInterfaceDesc(USBH_InterfaceDescTypeDef *if_descriptor,
 511:Middlewares/ST/STM32_USB_Host_Library/Core/Src/usbh_ctlreq.c ****                                     uint8_t *buf)
 512:Middlewares/ST/STM32_USB_Host_Library/Core/Src/usbh_ctlreq.c **** {
 164              		.loc 1 512 1 is_stmt 1 view -0
 165              		.cfi_startproc
 166              		@ args = 0, pretend = 0, frame = 0
 167              		@ frame_needed = 0, uses_anonymous_args = 0
 168              		@ link register save eliminated.
 513:Middlewares/ST/STM32_USB_Host_Library/Core/Src/usbh_ctlreq.c ****   if_descriptor->bLength            = *(uint8_t *)(buf + 0);
 169              		.loc 1 513 3 view .LVU45
 170              		.loc 1 513 39 is_stmt 0 view .LVU46
 171 0000 0B78     		ldrb	r3, [r1]	@ zero_extendqisi2
 172              		.loc 1 513 37 view .LVU47
 173 0002 0370     		strb	r3, [r0]
ARM GAS  /tmp/ccXc1b7R.s 			page 13


 514:Middlewares/ST/STM32_USB_Host_Library/Core/Src/usbh_ctlreq.c ****   if_descriptor->bDescriptorType    = *(uint8_t *)(buf + 1);
 174              		.loc 1 514 3 is_stmt 1 view .LVU48
 175              		.loc 1 514 37 is_stmt 0 view .LVU49
 176 0004 4B78     		ldrb	r3, [r1, #1]	@ zero_extendqisi2
 177 0006 4370     		strb	r3, [r0, #1]
 515:Middlewares/ST/STM32_USB_Host_Library/Core/Src/usbh_ctlreq.c ****   if_descriptor->bInterfaceNumber   = *(uint8_t *)(buf + 2);
 178              		.loc 1 515 3 is_stmt 1 view .LVU50
 179              		.loc 1 515 37 is_stmt 0 view .LVU51
 180 0008 8B78     		ldrb	r3, [r1, #2]	@ zero_extendqisi2
 181 000a 8370     		strb	r3, [r0, #2]
 516:Middlewares/ST/STM32_USB_Host_Library/Core/Src/usbh_ctlreq.c ****   if_descriptor->bAlternateSetting  = *(uint8_t *)(buf + 3);
 182              		.loc 1 516 3 is_stmt 1 view .LVU52
 183              		.loc 1 516 37 is_stmt 0 view .LVU53
 184 000c CB78     		ldrb	r3, [r1, #3]	@ zero_extendqisi2
 185 000e C370     		strb	r3, [r0, #3]
 517:Middlewares/ST/STM32_USB_Host_Library/Core/Src/usbh_ctlreq.c ****   if_descriptor->bNumEndpoints      = *(uint8_t *)(buf + 4);
 186              		.loc 1 517 3 is_stmt 1 view .LVU54
 187              		.loc 1 517 37 is_stmt 0 view .LVU55
 188 0010 0B79     		ldrb	r3, [r1, #4]	@ zero_extendqisi2
 189 0012 0371     		strb	r3, [r0, #4]
 518:Middlewares/ST/STM32_USB_Host_Library/Core/Src/usbh_ctlreq.c ****   if_descriptor->bInterfaceClass    = *(uint8_t *)(buf + 5);
 190              		.loc 1 518 3 is_stmt 1 view .LVU56
 191              		.loc 1 518 37 is_stmt 0 view .LVU57
 192 0014 4B79     		ldrb	r3, [r1, #5]	@ zero_extendqisi2
 193 0016 4371     		strb	r3, [r0, #5]
 519:Middlewares/ST/STM32_USB_Host_Library/Core/Src/usbh_ctlreq.c ****   if_descriptor->bInterfaceSubClass = *(uint8_t *)(buf + 6);
 194              		.loc 1 519 3 is_stmt 1 view .LVU58
 195              		.loc 1 519 37 is_stmt 0 view .LVU59
 196 0018 8B79     		ldrb	r3, [r1, #6]	@ zero_extendqisi2
 197 001a 8371     		strb	r3, [r0, #6]
 520:Middlewares/ST/STM32_USB_Host_Library/Core/Src/usbh_ctlreq.c ****   if_descriptor->bInterfaceProtocol = *(uint8_t *)(buf + 7);
 198              		.loc 1 520 3 is_stmt 1 view .LVU60
 199              		.loc 1 520 37 is_stmt 0 view .LVU61
 200 001c CB79     		ldrb	r3, [r1, #7]	@ zero_extendqisi2
 201 001e C371     		strb	r3, [r0, #7]
 521:Middlewares/ST/STM32_USB_Host_Library/Core/Src/usbh_ctlreq.c ****   if_descriptor->iInterface         = *(uint8_t *)(buf + 8);
 202              		.loc 1 521 3 is_stmt 1 view .LVU62
 203              		.loc 1 521 37 is_stmt 0 view .LVU63
 204 0020 0B7A     		ldrb	r3, [r1, #8]	@ zero_extendqisi2
 205 0022 0372     		strb	r3, [r0, #8]
 522:Middlewares/ST/STM32_USB_Host_Library/Core/Src/usbh_ctlreq.c **** }
 206              		.loc 1 522 1 view .LVU64
 207 0024 7047     		bx	lr
 208              		.cfi_endproc
 209              	.LFE155:
 211              		.section	.text.USBH_ParseEPDesc,"ax",%progbits
 212              		.align	1
 213              		.syntax unified
 214              		.thumb
 215              		.thumb_func
 217              	USBH_ParseEPDesc:
 218              	.LVL4:
 219              	.LFB156:
 523:Middlewares/ST/STM32_USB_Host_Library/Core/Src/usbh_ctlreq.c **** 
 524:Middlewares/ST/STM32_USB_Host_Library/Core/Src/usbh_ctlreq.c **** 
 525:Middlewares/ST/STM32_USB_Host_Library/Core/Src/usbh_ctlreq.c **** /**
 526:Middlewares/ST/STM32_USB_Host_Library/Core/Src/usbh_ctlreq.c ****   * @brief  USBH_ParseEPDesc
ARM GAS  /tmp/ccXc1b7R.s 			page 14


 527:Middlewares/ST/STM32_USB_Host_Library/Core/Src/usbh_ctlreq.c ****   *         This function Parses the endpoint descriptor
 528:Middlewares/ST/STM32_USB_Host_Library/Core/Src/usbh_ctlreq.c ****   * @param  phost: USB Host handler
 529:Middlewares/ST/STM32_USB_Host_Library/Core/Src/usbh_ctlreq.c ****   * @param  ep_descriptor: Endpoint descriptor destination address
 530:Middlewares/ST/STM32_USB_Host_Library/Core/Src/usbh_ctlreq.c ****   * @param  buf: Buffer where the parsed descriptor stored
 531:Middlewares/ST/STM32_USB_Host_Library/Core/Src/usbh_ctlreq.c ****   * @retval USBH Status
 532:Middlewares/ST/STM32_USB_Host_Library/Core/Src/usbh_ctlreq.c ****   */
 533:Middlewares/ST/STM32_USB_Host_Library/Core/Src/usbh_ctlreq.c **** static USBH_StatusTypeDef USBH_ParseEPDesc(USBH_HandleTypeDef *phost, USBH_EpDescTypeDef  *ep_descr
 534:Middlewares/ST/STM32_USB_Host_Library/Core/Src/usbh_ctlreq.c ****                                            uint8_t *buf)
 535:Middlewares/ST/STM32_USB_Host_Library/Core/Src/usbh_ctlreq.c **** {
 220              		.loc 1 535 1 is_stmt 1 view -0
 221              		.cfi_startproc
 222              		@ args = 0, pretend = 0, frame = 0
 223              		@ frame_needed = 0, uses_anonymous_args = 0
 224              		.loc 1 535 1 is_stmt 0 view .LVU66
 225 0000 00B5     		push	{lr}
 226              	.LCFI3:
 227              		.cfi_def_cfa_offset 4
 228              		.cfi_offset 14, -4
 229 0002 8646     		mov	lr, r0
 536:Middlewares/ST/STM32_USB_Host_Library/Core/Src/usbh_ctlreq.c ****   USBH_StatusTypeDef status = USBH_OK;
 230              		.loc 1 536 3 is_stmt 1 view .LVU67
 231              	.LVL5:
 537:Middlewares/ST/STM32_USB_Host_Library/Core/Src/usbh_ctlreq.c ****   ep_descriptor->bLength          = *(uint8_t *)(buf + 0);
 232              		.loc 1 537 3 view .LVU68
 233              		.loc 1 537 37 is_stmt 0 view .LVU69
 234 0004 1378     		ldrb	r3, [r2]	@ zero_extendqisi2
 235              		.loc 1 537 35 view .LVU70
 236 0006 0B70     		strb	r3, [r1]
 538:Middlewares/ST/STM32_USB_Host_Library/Core/Src/usbh_ctlreq.c ****   ep_descriptor->bDescriptorType  = *(uint8_t *)(buf + 1);
 237              		.loc 1 538 3 is_stmt 1 view .LVU71
 238              		.loc 1 538 35 is_stmt 0 view .LVU72
 239 0008 5378     		ldrb	r3, [r2, #1]	@ zero_extendqisi2
 240 000a 4B70     		strb	r3, [r1, #1]
 539:Middlewares/ST/STM32_USB_Host_Library/Core/Src/usbh_ctlreq.c ****   ep_descriptor->bEndpointAddress = *(uint8_t *)(buf + 2);
 241              		.loc 1 539 3 is_stmt 1 view .LVU73
 242              		.loc 1 539 35 is_stmt 0 view .LVU74
 243 000c 9378     		ldrb	r3, [r2, #2]	@ zero_extendqisi2
 244 000e 8B70     		strb	r3, [r1, #2]
 540:Middlewares/ST/STM32_USB_Host_Library/Core/Src/usbh_ctlreq.c ****   ep_descriptor->bmAttributes     = *(uint8_t *)(buf + 3);
 245              		.loc 1 540 3 is_stmt 1 view .LVU75
 246              		.loc 1 540 35 is_stmt 0 view .LVU76
 247 0010 92F803C0 		ldrb	ip, [r2, #3]	@ zero_extendqisi2
 248 0014 81F803C0 		strb	ip, [r1, #3]
 541:Middlewares/ST/STM32_USB_Host_Library/Core/Src/usbh_ctlreq.c ****   ep_descriptor->wMaxPacketSize   = LE16(buf + 4);
 249              		.loc 1 541 3 is_stmt 1 view .LVU77
 250              		.loc 1 541 37 is_stmt 0 view .LVU78
 251 0018 1379     		ldrb	r3, [r2, #4]	@ zero_extendqisi2
 252 001a 5079     		ldrb	r0, [r2, #5]	@ zero_extendqisi2
 253              	.LVL6:
 254              		.loc 1 541 37 view .LVU79
 255 001c 43EA0023 		orr	r3, r3, r0, lsl #8
 256              		.loc 1 541 35 view .LVU80
 257 0020 8B80     		strh	r3, [r1, #4]	@ movhi
 542:Middlewares/ST/STM32_USB_Host_Library/Core/Src/usbh_ctlreq.c ****   ep_descriptor->bInterval        = *(uint8_t *)(buf + 6);
 258              		.loc 1 542 3 is_stmt 1 view .LVU81
 259              		.loc 1 542 35 is_stmt 0 view .LVU82
 260 0022 9279     		ldrb	r2, [r2, #6]	@ zero_extendqisi2
ARM GAS  /tmp/ccXc1b7R.s 			page 15


 261              	.LVL7:
 262              		.loc 1 542 35 view .LVU83
 263 0024 8A71     		strb	r2, [r1, #6]
 543:Middlewares/ST/STM32_USB_Host_Library/Core/Src/usbh_ctlreq.c **** 
 544:Middlewares/ST/STM32_USB_Host_Library/Core/Src/usbh_ctlreq.c ****   /* Make sure that wMaxPacketSize is different from 0 */
 545:Middlewares/ST/STM32_USB_Host_Library/Core/Src/usbh_ctlreq.c ****   if (ep_descriptor->wMaxPacketSize == 0x00U)
 264              		.loc 1 545 3 is_stmt 1 view .LVU84
 265              		.loc 1 545 6 is_stmt 0 view .LVU85
 266 0026 3BB1     		cbz	r3, .L15
 546:Middlewares/ST/STM32_USB_Host_Library/Core/Src/usbh_ctlreq.c ****   {
 547:Middlewares/ST/STM32_USB_Host_Library/Core/Src/usbh_ctlreq.c ****     status = USBH_NOT_SUPPORTED;
 548:Middlewares/ST/STM32_USB_Host_Library/Core/Src/usbh_ctlreq.c ****   }
 549:Middlewares/ST/STM32_USB_Host_Library/Core/Src/usbh_ctlreq.c ****   else
 550:Middlewares/ST/STM32_USB_Host_Library/Core/Src/usbh_ctlreq.c ****   {
 551:Middlewares/ST/STM32_USB_Host_Library/Core/Src/usbh_ctlreq.c ****     if (USBH_MAX_EP_PACKET_SIZE < (uint16_t)USBH_MAX_DATA_BUFFER)
 267              		.loc 1 551 5 is_stmt 1 view .LVU86
 552:Middlewares/ST/STM32_USB_Host_Library/Core/Src/usbh_ctlreq.c ****     {
 553:Middlewares/ST/STM32_USB_Host_Library/Core/Src/usbh_ctlreq.c ****       /* Make sure that maximum packet size (bits 0..10) does not exceed the max endpoint packet si
 554:Middlewares/ST/STM32_USB_Host_Library/Core/Src/usbh_ctlreq.c ****       ep_descriptor->wMaxPacketSize &= ~0x7FFU;
 555:Middlewares/ST/STM32_USB_Host_Library/Core/Src/usbh_ctlreq.c ****       ep_descriptor->wMaxPacketSize |= MIN((uint16_t)(LE16(buf + 4) & 0x7FFU), (uint16_t)USBH_MAX_E
 556:Middlewares/ST/STM32_USB_Host_Library/Core/Src/usbh_ctlreq.c ****     }
 557:Middlewares/ST/STM32_USB_Host_Library/Core/Src/usbh_ctlreq.c ****     else
 558:Middlewares/ST/STM32_USB_Host_Library/Core/Src/usbh_ctlreq.c ****     {
 559:Middlewares/ST/STM32_USB_Host_Library/Core/Src/usbh_ctlreq.c ****       /* Make sure that maximum packet size (bits 0..10) does not exceed the total buffer length */
 560:Middlewares/ST/STM32_USB_Host_Library/Core/Src/usbh_ctlreq.c ****       ep_descriptor->wMaxPacketSize &= ~0x7FFU;
 268              		.loc 1 560 7 view .LVU87
 269              		.loc 1 560 37 is_stmt 0 view .LVU88
 270 0028 03F47843 		and	r3, r3, #63488
 271 002c 8B80     		strh	r3, [r1, #4]	@ movhi
 561:Middlewares/ST/STM32_USB_Host_Library/Core/Src/usbh_ctlreq.c ****       ep_descriptor->wMaxPacketSize |= USBH_MAX_EP_PACKET_SIZE;
 272              		.loc 1 561 7 is_stmt 1 view .LVU89
 273              		.loc 1 561 37 is_stmt 0 view .LVU90
 274 002e 43F48063 		orr	r3, r3, #1024
 275 0032 8B80     		strh	r3, [r1, #4]	@ movhi
 536:Middlewares/ST/STM32_USB_Host_Library/Core/Src/usbh_ctlreq.c ****   ep_descriptor->bLength          = *(uint8_t *)(buf + 0);
 276              		.loc 1 536 22 view .LVU91
 277 0034 0020     		movs	r0, #0
 278 0036 00E0     		b	.L11
 279              	.L15:
 547:Middlewares/ST/STM32_USB_Host_Library/Core/Src/usbh_ctlreq.c ****   }
 280              		.loc 1 547 12 view .LVU92
 281 0038 0320     		movs	r0, #3
 282              	.L11:
 283              	.LVL8:
 562:Middlewares/ST/STM32_USB_Host_Library/Core/Src/usbh_ctlreq.c ****     }
 563:Middlewares/ST/STM32_USB_Host_Library/Core/Src/usbh_ctlreq.c ****   }
 564:Middlewares/ST/STM32_USB_Host_Library/Core/Src/usbh_ctlreq.c ****   /* For high-speed interrupt/isochronous endpoints, bInterval can vary from 1 to 16 */
 565:Middlewares/ST/STM32_USB_Host_Library/Core/Src/usbh_ctlreq.c ****   if (phost->device.speed == (uint8_t)USBH_SPEED_HIGH)
 284              		.loc 1 565 3 is_stmt 1 view .LVU93
 285              		.loc 1 565 20 is_stmt 0 view .LVU94
 286 003a 9EF81D33 		ldrb	r3, [lr, #797]	@ zero_extendqisi2
 287              		.loc 1 565 6 view .LVU95
 288 003e 6BB9     		cbnz	r3, .L12
 566:Middlewares/ST/STM32_USB_Host_Library/Core/Src/usbh_ctlreq.c ****   {
 567:Middlewares/ST/STM32_USB_Host_Library/Core/Src/usbh_ctlreq.c ****     if (((ep_descriptor->bmAttributes & EP_TYPE_MSK) == EP_TYPE_ISOC) ||
 289              		.loc 1 567 5 is_stmt 1 view .LVU96
 290              		.loc 1 567 39 is_stmt 0 view .LVU97
ARM GAS  /tmp/ccXc1b7R.s 			page 16


 291 0040 0CF0030C 		and	ip, ip, #3
 292              		.loc 1 567 8 view .LVU98
 293 0044 BCF1030F 		cmp	ip, #3
 294 0048 18BF     		it	ne
 295 004a BCF1010F 		cmpne	ip, #1
 296 004e 0DD1     		bne	.L13
 568:Middlewares/ST/STM32_USB_Host_Library/Core/Src/usbh_ctlreq.c ****         ((ep_descriptor->bmAttributes & EP_TYPE_MSK) == EP_TYPE_INTR))
 569:Middlewares/ST/STM32_USB_Host_Library/Core/Src/usbh_ctlreq.c ****     {
 570:Middlewares/ST/STM32_USB_Host_Library/Core/Src/usbh_ctlreq.c ****       if ((ep_descriptor->bInterval == 0U) || (ep_descriptor->bInterval > 0x10U))
 297              		.loc 1 570 7 is_stmt 1 view .LVU99
 298              		.loc 1 570 44 is_stmt 0 view .LVU100
 299 0050 013A     		subs	r2, r2, #1
 300 0052 D2B2     		uxtb	r2, r2
 301              		.loc 1 570 10 view .LVU101
 302 0054 0F2A     		cmp	r2, #15
 303 0056 09D9     		bls	.L13
 571:Middlewares/ST/STM32_USB_Host_Library/Core/Src/usbh_ctlreq.c ****       {
 572:Middlewares/ST/STM32_USB_Host_Library/Core/Src/usbh_ctlreq.c ****         status = USBH_NOT_SUPPORTED;
 304              		.loc 1 572 16 view .LVU102
 305 0058 0320     		movs	r0, #3
 306              	.LVL9:
 307              		.loc 1 572 16 view .LVU103
 308 005a 07E0     		b	.L13
 309              	.LVL10:
 310              	.L12:
 573:Middlewares/ST/STM32_USB_Host_Library/Core/Src/usbh_ctlreq.c ****       }
 574:Middlewares/ST/STM32_USB_Host_Library/Core/Src/usbh_ctlreq.c ****     }
 575:Middlewares/ST/STM32_USB_Host_Library/Core/Src/usbh_ctlreq.c ****   }
 576:Middlewares/ST/STM32_USB_Host_Library/Core/Src/usbh_ctlreq.c ****   else
 577:Middlewares/ST/STM32_USB_Host_Library/Core/Src/usbh_ctlreq.c ****   {
 578:Middlewares/ST/STM32_USB_Host_Library/Core/Src/usbh_ctlreq.c ****     /* For full-speed isochronous endpoints, the value of bInterval must be in the range from 1 to 
 579:Middlewares/ST/STM32_USB_Host_Library/Core/Src/usbh_ctlreq.c ****     if ((ep_descriptor->bmAttributes & EP_TYPE_MSK) == EP_TYPE_ISOC)
 311              		.loc 1 579 5 is_stmt 1 view .LVU104
 312 005c 0CF0030C 		and	ip, ip, #3
 313              		.loc 1 579 8 is_stmt 0 view .LVU105
 314 0060 BCF1010F 		cmp	ip, #1
 315 0064 04D0     		beq	.L20
 580:Middlewares/ST/STM32_USB_Host_Library/Core/Src/usbh_ctlreq.c ****     {
 581:Middlewares/ST/STM32_USB_Host_Library/Core/Src/usbh_ctlreq.c ****       if ((ep_descriptor->bInterval == 0U) || (ep_descriptor->bInterval > 0x10U))
 582:Middlewares/ST/STM32_USB_Host_Library/Core/Src/usbh_ctlreq.c ****       {
 583:Middlewares/ST/STM32_USB_Host_Library/Core/Src/usbh_ctlreq.c ****         status = USBH_NOT_SUPPORTED;
 584:Middlewares/ST/STM32_USB_Host_Library/Core/Src/usbh_ctlreq.c ****       }
 585:Middlewares/ST/STM32_USB_Host_Library/Core/Src/usbh_ctlreq.c ****     }
 586:Middlewares/ST/STM32_USB_Host_Library/Core/Src/usbh_ctlreq.c ****     /* For full-/low-speed interrupt endpoints, the value of bInterval may be from 1 to 255.*/
 587:Middlewares/ST/STM32_USB_Host_Library/Core/Src/usbh_ctlreq.c ****     else if ((ep_descriptor->bmAttributes & EP_TYPE_MSK) == EP_TYPE_INTR)
 316              		.loc 1 587 10 is_stmt 1 view .LVU106
 317              		.loc 1 587 13 is_stmt 0 view .LVU107
 318 0066 BCF1030F 		cmp	ip, #3
 319 006a 07D0     		beq	.L21
 320              	.LVL11:
 321              	.L13:
 588:Middlewares/ST/STM32_USB_Host_Library/Core/Src/usbh_ctlreq.c ****     {
 589:Middlewares/ST/STM32_USB_Host_Library/Core/Src/usbh_ctlreq.c ****       if (ep_descriptor->bInterval == 0U)
 590:Middlewares/ST/STM32_USB_Host_Library/Core/Src/usbh_ctlreq.c ****       {
 591:Middlewares/ST/STM32_USB_Host_Library/Core/Src/usbh_ctlreq.c ****         status = USBH_NOT_SUPPORTED;
 592:Middlewares/ST/STM32_USB_Host_Library/Core/Src/usbh_ctlreq.c ****       }
 593:Middlewares/ST/STM32_USB_Host_Library/Core/Src/usbh_ctlreq.c ****     }
ARM GAS  /tmp/ccXc1b7R.s 			page 17


 594:Middlewares/ST/STM32_USB_Host_Library/Core/Src/usbh_ctlreq.c ****     else
 595:Middlewares/ST/STM32_USB_Host_Library/Core/Src/usbh_ctlreq.c ****     {
 596:Middlewares/ST/STM32_USB_Host_Library/Core/Src/usbh_ctlreq.c ****       /* ... */
 597:Middlewares/ST/STM32_USB_Host_Library/Core/Src/usbh_ctlreq.c ****     }
 322              		.loc 1 597 5 is_stmt 1 view .LVU108
 598:Middlewares/ST/STM32_USB_Host_Library/Core/Src/usbh_ctlreq.c ****   }
 599:Middlewares/ST/STM32_USB_Host_Library/Core/Src/usbh_ctlreq.c **** 
 600:Middlewares/ST/STM32_USB_Host_Library/Core/Src/usbh_ctlreq.c ****   return status;
 323              		.loc 1 600 3 view .LVU109
 601:Middlewares/ST/STM32_USB_Host_Library/Core/Src/usbh_ctlreq.c **** }
 324              		.loc 1 601 1 is_stmt 0 view .LVU110
 325 006c 5DF804FB 		ldr	pc, [sp], #4
 326              	.L20:
 581:Middlewares/ST/STM32_USB_Host_Library/Core/Src/usbh_ctlreq.c ****       {
 327              		.loc 1 581 7 is_stmt 1 view .LVU111
 581:Middlewares/ST/STM32_USB_Host_Library/Core/Src/usbh_ctlreq.c ****       {
 328              		.loc 1 581 44 is_stmt 0 view .LVU112
 329 0070 013A     		subs	r2, r2, #1
 330 0072 D2B2     		uxtb	r2, r2
 581:Middlewares/ST/STM32_USB_Host_Library/Core/Src/usbh_ctlreq.c ****       {
 331              		.loc 1 581 10 view .LVU113
 332 0074 0F2A     		cmp	r2, #15
 333 0076 F9D9     		bls	.L13
 583:Middlewares/ST/STM32_USB_Host_Library/Core/Src/usbh_ctlreq.c ****       }
 334              		.loc 1 583 16 view .LVU114
 335 0078 0320     		movs	r0, #3
 336              	.LVL12:
 583:Middlewares/ST/STM32_USB_Host_Library/Core/Src/usbh_ctlreq.c ****       }
 337              		.loc 1 583 16 view .LVU115
 338 007a F7E7     		b	.L13
 339              	.LVL13:
 340              	.L21:
 589:Middlewares/ST/STM32_USB_Host_Library/Core/Src/usbh_ctlreq.c ****       {
 341              		.loc 1 589 7 is_stmt 1 view .LVU116
 589:Middlewares/ST/STM32_USB_Host_Library/Core/Src/usbh_ctlreq.c ****       {
 342              		.loc 1 589 10 is_stmt 0 view .LVU117
 343 007c 002A     		cmp	r2, #0
 344 007e F5D1     		bne	.L13
 591:Middlewares/ST/STM32_USB_Host_Library/Core/Src/usbh_ctlreq.c ****       }
 345              		.loc 1 591 16 view .LVU118
 346 0080 6046     		mov	r0, ip
 347              	.LVL14:
 591:Middlewares/ST/STM32_USB_Host_Library/Core/Src/usbh_ctlreq.c ****       }
 348              		.loc 1 591 16 view .LVU119
 349 0082 F3E7     		b	.L13
 350              		.cfi_endproc
 351              	.LFE156:
 353              		.section	.text.USBH_ParseStringDesc,"ax",%progbits
 354              		.align	1
 355              		.syntax unified
 356              		.thumb
 357              		.thumb_func
 359              	USBH_ParseStringDesc:
 360              	.LVL15:
 361              	.LFB157:
 602:Middlewares/ST/STM32_USB_Host_Library/Core/Src/usbh_ctlreq.c **** 
 603:Middlewares/ST/STM32_USB_Host_Library/Core/Src/usbh_ctlreq.c **** 
ARM GAS  /tmp/ccXc1b7R.s 			page 18


 604:Middlewares/ST/STM32_USB_Host_Library/Core/Src/usbh_ctlreq.c **** /**
 605:Middlewares/ST/STM32_USB_Host_Library/Core/Src/usbh_ctlreq.c ****   * @brief  USBH_ParseStringDesc
 606:Middlewares/ST/STM32_USB_Host_Library/Core/Src/usbh_ctlreq.c ****   *         This function Parses the string descriptor
 607:Middlewares/ST/STM32_USB_Host_Library/Core/Src/usbh_ctlreq.c ****   * @param  psrc: Source pointer containing the descriptor data
 608:Middlewares/ST/STM32_USB_Host_Library/Core/Src/usbh_ctlreq.c ****   * @param  pdest: Destination address pointer
 609:Middlewares/ST/STM32_USB_Host_Library/Core/Src/usbh_ctlreq.c ****   * @param  length: Length of the descriptor
 610:Middlewares/ST/STM32_USB_Host_Library/Core/Src/usbh_ctlreq.c ****   * @retval None
 611:Middlewares/ST/STM32_USB_Host_Library/Core/Src/usbh_ctlreq.c ****   */
 612:Middlewares/ST/STM32_USB_Host_Library/Core/Src/usbh_ctlreq.c **** static void USBH_ParseStringDesc(uint8_t *psrc, uint8_t *pdest, uint16_t length)
 613:Middlewares/ST/STM32_USB_Host_Library/Core/Src/usbh_ctlreq.c **** {
 362              		.loc 1 613 1 is_stmt 1 view -0
 363              		.cfi_startproc
 364              		@ args = 0, pretend = 0, frame = 0
 365              		@ frame_needed = 0, uses_anonymous_args = 0
 366              		@ link register save eliminated.
 614:Middlewares/ST/STM32_USB_Host_Library/Core/Src/usbh_ctlreq.c ****   uint16_t strlength;
 367              		.loc 1 614 3 view .LVU121
 615:Middlewares/ST/STM32_USB_Host_Library/Core/Src/usbh_ctlreq.c ****   uint16_t idx;
 368              		.loc 1 615 3 view .LVU122
 616:Middlewares/ST/STM32_USB_Host_Library/Core/Src/usbh_ctlreq.c **** 
 617:Middlewares/ST/STM32_USB_Host_Library/Core/Src/usbh_ctlreq.c ****   /* The UNICODE string descriptor is not NULL-terminated. The string length is
 618:Middlewares/ST/STM32_USB_Host_Library/Core/Src/usbh_ctlreq.c ****   computed by subtracting two from the value of the first byte of the descriptor.
 619:Middlewares/ST/STM32_USB_Host_Library/Core/Src/usbh_ctlreq.c ****   */
 620:Middlewares/ST/STM32_USB_Host_Library/Core/Src/usbh_ctlreq.c **** 
 621:Middlewares/ST/STM32_USB_Host_Library/Core/Src/usbh_ctlreq.c ****   /* Check which is lower size, the Size of string or the length of bytes read
 622:Middlewares/ST/STM32_USB_Host_Library/Core/Src/usbh_ctlreq.c ****   from the device */
 623:Middlewares/ST/STM32_USB_Host_Library/Core/Src/usbh_ctlreq.c **** 
 624:Middlewares/ST/STM32_USB_Host_Library/Core/Src/usbh_ctlreq.c ****   if (psrc[1] == USB_DESC_TYPE_STRING)
 369              		.loc 1 624 3 view .LVU123
 370              		.loc 1 624 11 is_stmt 0 view .LVU124
 371 0000 4378     		ldrb	r3, [r0, #1]	@ zero_extendqisi2
 372              		.loc 1 624 6 view .LVU125
 373 0002 032B     		cmp	r3, #3
 374 0004 00D0     		beq	.L26
 375              	.LVL16:
 376              	.L22:
 625:Middlewares/ST/STM32_USB_Host_Library/Core/Src/usbh_ctlreq.c ****   {
 626:Middlewares/ST/STM32_USB_Host_Library/Core/Src/usbh_ctlreq.c ****     /* Make sure the Descriptor is String Type */
 627:Middlewares/ST/STM32_USB_Host_Library/Core/Src/usbh_ctlreq.c **** 
 628:Middlewares/ST/STM32_USB_Host_Library/Core/Src/usbh_ctlreq.c ****     /* psrc[0] contains Size of Descriptor, subtract 2 to get the length of string */
 629:Middlewares/ST/STM32_USB_Host_Library/Core/Src/usbh_ctlreq.c ****     strlength = ((((uint16_t)psrc[0] - 2U) <= length) ? ((uint16_t)psrc[0] - 2U) : length);
 630:Middlewares/ST/STM32_USB_Host_Library/Core/Src/usbh_ctlreq.c **** 
 631:Middlewares/ST/STM32_USB_Host_Library/Core/Src/usbh_ctlreq.c ****     /* Adjust the offset ignoring the String Len and Descriptor type */
 632:Middlewares/ST/STM32_USB_Host_Library/Core/Src/usbh_ctlreq.c ****     psrc += 2U;
 633:Middlewares/ST/STM32_USB_Host_Library/Core/Src/usbh_ctlreq.c **** 
 634:Middlewares/ST/STM32_USB_Host_Library/Core/Src/usbh_ctlreq.c ****     for (idx = 0U; idx < strlength; idx += 2U)
 635:Middlewares/ST/STM32_USB_Host_Library/Core/Src/usbh_ctlreq.c ****     {
 636:Middlewares/ST/STM32_USB_Host_Library/Core/Src/usbh_ctlreq.c ****       /* Copy Only the string and ignore the UNICODE ID, hence add the src */
 637:Middlewares/ST/STM32_USB_Host_Library/Core/Src/usbh_ctlreq.c ****       *pdest =  psrc[idx];
 638:Middlewares/ST/STM32_USB_Host_Library/Core/Src/usbh_ctlreq.c ****       pdest++;
 639:Middlewares/ST/STM32_USB_Host_Library/Core/Src/usbh_ctlreq.c ****     }
 640:Middlewares/ST/STM32_USB_Host_Library/Core/Src/usbh_ctlreq.c ****     *pdest = 0U; /* mark end of string */
 641:Middlewares/ST/STM32_USB_Host_Library/Core/Src/usbh_ctlreq.c ****   }
 642:Middlewares/ST/STM32_USB_Host_Library/Core/Src/usbh_ctlreq.c **** }
 377              		.loc 1 642 1 view .LVU126
 378 0006 7047     		bx	lr
 379              	.LVL17:
ARM GAS  /tmp/ccXc1b7R.s 			page 19


 380              	.L26:
 629:Middlewares/ST/STM32_USB_Host_Library/Core/Src/usbh_ctlreq.c **** 
 381              		.loc 1 629 5 is_stmt 1 view .LVU127
 629:Middlewares/ST/STM32_USB_Host_Library/Core/Src/usbh_ctlreq.c **** 
 382              		.loc 1 629 34 is_stmt 0 view .LVU128
 383 0008 0378     		ldrb	r3, [r0]	@ zero_extendqisi2
 629:Middlewares/ST/STM32_USB_Host_Library/Core/Src/usbh_ctlreq.c **** 
 384              		.loc 1 629 38 view .LVU129
 385 000a 023B     		subs	r3, r3, #2
 629:Middlewares/ST/STM32_USB_Host_Library/Core/Src/usbh_ctlreq.c **** 
 386              		.loc 1 629 82 view .LVU130
 387 000c 9A42     		cmp	r2, r3
 388 000e 28BF     		it	cs
 389 0010 1A46     		movcs	r2, r3
 390              	.LVL18:
 629:Middlewares/ST/STM32_USB_Host_Library/Core/Src/usbh_ctlreq.c **** 
 391              		.loc 1 629 15 view .LVU131
 392 0012 92B2     		uxth	r2, r2
 393              	.LVL19:
 632:Middlewares/ST/STM32_USB_Host_Library/Core/Src/usbh_ctlreq.c **** 
 394              		.loc 1 632 5 is_stmt 1 view .LVU132
 634:Middlewares/ST/STM32_USB_Host_Library/Core/Src/usbh_ctlreq.c ****     {
 395              		.loc 1 634 5 view .LVU133
 634:Middlewares/ST/STM32_USB_Host_Library/Core/Src/usbh_ctlreq.c ****     {
 396              		.loc 1 634 14 is_stmt 0 view .LVU134
 397 0014 0023     		movs	r3, #0
 634:Middlewares/ST/STM32_USB_Host_Library/Core/Src/usbh_ctlreq.c ****     {
 398              		.loc 1 634 5 view .LVU135
 399 0016 07E0     		b	.L24
 400              	.LVL20:
 401              	.L25:
 637:Middlewares/ST/STM32_USB_Host_Library/Core/Src/usbh_ctlreq.c ****       pdest++;
 402              		.loc 1 637 7 is_stmt 1 discriminator 3 view .LVU136
 637:Middlewares/ST/STM32_USB_Host_Library/Core/Src/usbh_ctlreq.c ****       pdest++;
 403              		.loc 1 637 21 is_stmt 0 discriminator 3 view .LVU137
 404 0018 00EB030C 		add	ip, r0, r3
 405 001c 9CF802C0 		ldrb	ip, [ip, #2]	@ zero_extendqisi2
 637:Middlewares/ST/STM32_USB_Host_Library/Core/Src/usbh_ctlreq.c ****       pdest++;
 406              		.loc 1 637 14 discriminator 3 view .LVU138
 407 0020 01F801CB 		strb	ip, [r1], #1
 408              	.LVL21:
 638:Middlewares/ST/STM32_USB_Host_Library/Core/Src/usbh_ctlreq.c ****     }
 409              		.loc 1 638 7 is_stmt 1 discriminator 3 view .LVU139
 634:Middlewares/ST/STM32_USB_Host_Library/Core/Src/usbh_ctlreq.c ****     {
 410              		.loc 1 634 41 discriminator 3 view .LVU140
 411 0024 0233     		adds	r3, r3, #2
 412              	.LVL22:
 634:Middlewares/ST/STM32_USB_Host_Library/Core/Src/usbh_ctlreq.c ****     {
 413              		.loc 1 634 41 is_stmt 0 discriminator 3 view .LVU141
 414 0026 9BB2     		uxth	r3, r3
 415              	.LVL23:
 416              	.L24:
 634:Middlewares/ST/STM32_USB_Host_Library/Core/Src/usbh_ctlreq.c ****     {
 417              		.loc 1 634 24 is_stmt 1 discriminator 1 view .LVU142
 418 0028 9342     		cmp	r3, r2
 419 002a F5D3     		bcc	.L25
 640:Middlewares/ST/STM32_USB_Host_Library/Core/Src/usbh_ctlreq.c ****   }
ARM GAS  /tmp/ccXc1b7R.s 			page 20


 420              		.loc 1 640 5 view .LVU143
 640:Middlewares/ST/STM32_USB_Host_Library/Core/Src/usbh_ctlreq.c ****   }
 421              		.loc 1 640 12 is_stmt 0 view .LVU144
 422 002c 0023     		movs	r3, #0
 423              	.LVL24:
 640:Middlewares/ST/STM32_USB_Host_Library/Core/Src/usbh_ctlreq.c ****   }
 424              		.loc 1 640 12 view .LVU145
 425 002e 0B70     		strb	r3, [r1]
 426              		.loc 1 642 1 view .LVU146
 427 0030 E9E7     		b	.L22
 428              		.cfi_endproc
 429              	.LFE157:
 431              		.section	.text.USBH_HandleControl,"ax",%progbits
 432              		.align	1
 433              		.syntax unified
 434              		.thumb
 435              		.thumb_func
 437              	USBH_HandleControl:
 438              	.LVL25:
 439              	.LFB160:
 643:Middlewares/ST/STM32_USB_Host_Library/Core/Src/usbh_ctlreq.c **** 
 644:Middlewares/ST/STM32_USB_Host_Library/Core/Src/usbh_ctlreq.c **** 
 645:Middlewares/ST/STM32_USB_Host_Library/Core/Src/usbh_ctlreq.c **** /**
 646:Middlewares/ST/STM32_USB_Host_Library/Core/Src/usbh_ctlreq.c ****   * @brief  USBH_GetNextDesc
 647:Middlewares/ST/STM32_USB_Host_Library/Core/Src/usbh_ctlreq.c ****   *         This function return the next descriptor header
 648:Middlewares/ST/STM32_USB_Host_Library/Core/Src/usbh_ctlreq.c ****   * @param  buf: Buffer where the cfg descriptor is available
 649:Middlewares/ST/STM32_USB_Host_Library/Core/Src/usbh_ctlreq.c ****   * @param  ptr: data pointer inside the cfg descriptor
 650:Middlewares/ST/STM32_USB_Host_Library/Core/Src/usbh_ctlreq.c ****   * @retval next header
 651:Middlewares/ST/STM32_USB_Host_Library/Core/Src/usbh_ctlreq.c ****   */
 652:Middlewares/ST/STM32_USB_Host_Library/Core/Src/usbh_ctlreq.c **** USBH_DescHeader_t *USBH_GetNextDesc(uint8_t *pbuf, uint16_t *ptr)
 653:Middlewares/ST/STM32_USB_Host_Library/Core/Src/usbh_ctlreq.c **** {
 654:Middlewares/ST/STM32_USB_Host_Library/Core/Src/usbh_ctlreq.c ****   USBH_DescHeader_t  *pnext;
 655:Middlewares/ST/STM32_USB_Host_Library/Core/Src/usbh_ctlreq.c **** 
 656:Middlewares/ST/STM32_USB_Host_Library/Core/Src/usbh_ctlreq.c ****   *ptr += ((USBH_DescHeader_t *)(void *)pbuf)->bLength;
 657:Middlewares/ST/STM32_USB_Host_Library/Core/Src/usbh_ctlreq.c ****   pnext = (USBH_DescHeader_t *)(void *)((uint8_t *)(void *)pbuf + \
 658:Middlewares/ST/STM32_USB_Host_Library/Core/Src/usbh_ctlreq.c ****                                         ((USBH_DescHeader_t *)(void *)pbuf)->bLength);
 659:Middlewares/ST/STM32_USB_Host_Library/Core/Src/usbh_ctlreq.c **** 
 660:Middlewares/ST/STM32_USB_Host_Library/Core/Src/usbh_ctlreq.c ****   return (pnext);
 661:Middlewares/ST/STM32_USB_Host_Library/Core/Src/usbh_ctlreq.c **** }
 662:Middlewares/ST/STM32_USB_Host_Library/Core/Src/usbh_ctlreq.c **** 
 663:Middlewares/ST/STM32_USB_Host_Library/Core/Src/usbh_ctlreq.c **** 
 664:Middlewares/ST/STM32_USB_Host_Library/Core/Src/usbh_ctlreq.c **** /**
 665:Middlewares/ST/STM32_USB_Host_Library/Core/Src/usbh_ctlreq.c ****   * @brief  USBH_CtlReq
 666:Middlewares/ST/STM32_USB_Host_Library/Core/Src/usbh_ctlreq.c ****   *         USBH_CtlReq sends a control request and provide the status after
 667:Middlewares/ST/STM32_USB_Host_Library/Core/Src/usbh_ctlreq.c ****   *            completion of the request
 668:Middlewares/ST/STM32_USB_Host_Library/Core/Src/usbh_ctlreq.c ****   * @param  phost: Host Handle
 669:Middlewares/ST/STM32_USB_Host_Library/Core/Src/usbh_ctlreq.c ****   * @param  req: Setup Request Structure
 670:Middlewares/ST/STM32_USB_Host_Library/Core/Src/usbh_ctlreq.c ****   * @param  buff: data buffer address to store the response
 671:Middlewares/ST/STM32_USB_Host_Library/Core/Src/usbh_ctlreq.c ****   * @param  length: length of the response
 672:Middlewares/ST/STM32_USB_Host_Library/Core/Src/usbh_ctlreq.c ****   * @retval USBH Status
 673:Middlewares/ST/STM32_USB_Host_Library/Core/Src/usbh_ctlreq.c ****   */
 674:Middlewares/ST/STM32_USB_Host_Library/Core/Src/usbh_ctlreq.c **** USBH_StatusTypeDef USBH_CtlReq(USBH_HandleTypeDef *phost, uint8_t *buff,
 675:Middlewares/ST/STM32_USB_Host_Library/Core/Src/usbh_ctlreq.c ****                                uint16_t length)
 676:Middlewares/ST/STM32_USB_Host_Library/Core/Src/usbh_ctlreq.c **** {
 677:Middlewares/ST/STM32_USB_Host_Library/Core/Src/usbh_ctlreq.c ****   USBH_StatusTypeDef status;
 678:Middlewares/ST/STM32_USB_Host_Library/Core/Src/usbh_ctlreq.c ****   status = USBH_BUSY;
 679:Middlewares/ST/STM32_USB_Host_Library/Core/Src/usbh_ctlreq.c **** 
ARM GAS  /tmp/ccXc1b7R.s 			page 21


 680:Middlewares/ST/STM32_USB_Host_Library/Core/Src/usbh_ctlreq.c ****   switch (phost->RequestState)
 681:Middlewares/ST/STM32_USB_Host_Library/Core/Src/usbh_ctlreq.c ****   {
 682:Middlewares/ST/STM32_USB_Host_Library/Core/Src/usbh_ctlreq.c ****     case CMD_SEND:
 683:Middlewares/ST/STM32_USB_Host_Library/Core/Src/usbh_ctlreq.c ****       /* Start a SETUP transfer */
 684:Middlewares/ST/STM32_USB_Host_Library/Core/Src/usbh_ctlreq.c ****       phost->Control.buff = buff;
 685:Middlewares/ST/STM32_USB_Host_Library/Core/Src/usbh_ctlreq.c ****       phost->Control.length = length;
 686:Middlewares/ST/STM32_USB_Host_Library/Core/Src/usbh_ctlreq.c ****       phost->Control.state = CTRL_SETUP;
 687:Middlewares/ST/STM32_USB_Host_Library/Core/Src/usbh_ctlreq.c ****       phost->RequestState = CMD_WAIT;
 688:Middlewares/ST/STM32_USB_Host_Library/Core/Src/usbh_ctlreq.c ****       status = USBH_BUSY;
 689:Middlewares/ST/STM32_USB_Host_Library/Core/Src/usbh_ctlreq.c **** 
 690:Middlewares/ST/STM32_USB_Host_Library/Core/Src/usbh_ctlreq.c **** #if (USBH_USE_OS == 1U)
 691:Middlewares/ST/STM32_USB_Host_Library/Core/Src/usbh_ctlreq.c ****       phost->os_msg = (uint32_t)USBH_CONTROL_EVENT;
 692:Middlewares/ST/STM32_USB_Host_Library/Core/Src/usbh_ctlreq.c **** #if (osCMSIS < 0x20000U)
 693:Middlewares/ST/STM32_USB_Host_Library/Core/Src/usbh_ctlreq.c ****       (void)osMessagePut(phost->os_event, phost->os_msg, 0U);
 694:Middlewares/ST/STM32_USB_Host_Library/Core/Src/usbh_ctlreq.c **** #else
 695:Middlewares/ST/STM32_USB_Host_Library/Core/Src/usbh_ctlreq.c ****       (void)osMessageQueuePut(phost->os_event, &phost->os_msg, 0U, 0U);
 696:Middlewares/ST/STM32_USB_Host_Library/Core/Src/usbh_ctlreq.c **** #endif
 697:Middlewares/ST/STM32_USB_Host_Library/Core/Src/usbh_ctlreq.c **** #endif
 698:Middlewares/ST/STM32_USB_Host_Library/Core/Src/usbh_ctlreq.c ****       break;
 699:Middlewares/ST/STM32_USB_Host_Library/Core/Src/usbh_ctlreq.c **** 
 700:Middlewares/ST/STM32_USB_Host_Library/Core/Src/usbh_ctlreq.c ****     case CMD_WAIT:
 701:Middlewares/ST/STM32_USB_Host_Library/Core/Src/usbh_ctlreq.c ****       status = USBH_HandleControl(phost);
 702:Middlewares/ST/STM32_USB_Host_Library/Core/Src/usbh_ctlreq.c ****       if ((status == USBH_OK) || (status == USBH_NOT_SUPPORTED))
 703:Middlewares/ST/STM32_USB_Host_Library/Core/Src/usbh_ctlreq.c ****       {
 704:Middlewares/ST/STM32_USB_Host_Library/Core/Src/usbh_ctlreq.c ****         /* Transaction completed, move control state to idle */
 705:Middlewares/ST/STM32_USB_Host_Library/Core/Src/usbh_ctlreq.c ****         phost->RequestState = CMD_SEND;
 706:Middlewares/ST/STM32_USB_Host_Library/Core/Src/usbh_ctlreq.c ****         phost->Control.state = CTRL_IDLE;
 707:Middlewares/ST/STM32_USB_Host_Library/Core/Src/usbh_ctlreq.c ****       }
 708:Middlewares/ST/STM32_USB_Host_Library/Core/Src/usbh_ctlreq.c ****       else if (status == USBH_FAIL)
 709:Middlewares/ST/STM32_USB_Host_Library/Core/Src/usbh_ctlreq.c ****       {
 710:Middlewares/ST/STM32_USB_Host_Library/Core/Src/usbh_ctlreq.c ****         /* Failure Mode */
 711:Middlewares/ST/STM32_USB_Host_Library/Core/Src/usbh_ctlreq.c ****         phost->RequestState = CMD_SEND;
 712:Middlewares/ST/STM32_USB_Host_Library/Core/Src/usbh_ctlreq.c ****       }
 713:Middlewares/ST/STM32_USB_Host_Library/Core/Src/usbh_ctlreq.c ****       else
 714:Middlewares/ST/STM32_USB_Host_Library/Core/Src/usbh_ctlreq.c ****       {
 715:Middlewares/ST/STM32_USB_Host_Library/Core/Src/usbh_ctlreq.c ****         /* .. */
 716:Middlewares/ST/STM32_USB_Host_Library/Core/Src/usbh_ctlreq.c ****       }
 717:Middlewares/ST/STM32_USB_Host_Library/Core/Src/usbh_ctlreq.c **** #if (USBH_USE_OS == 1U)
 718:Middlewares/ST/STM32_USB_Host_Library/Core/Src/usbh_ctlreq.c ****       phost->os_msg = (uint32_t)USBH_CONTROL_EVENT;
 719:Middlewares/ST/STM32_USB_Host_Library/Core/Src/usbh_ctlreq.c **** #if (osCMSIS < 0x20000U)
 720:Middlewares/ST/STM32_USB_Host_Library/Core/Src/usbh_ctlreq.c ****       (void)osMessagePut(phost->os_event, phost->os_msg, 0U);
 721:Middlewares/ST/STM32_USB_Host_Library/Core/Src/usbh_ctlreq.c **** #else
 722:Middlewares/ST/STM32_USB_Host_Library/Core/Src/usbh_ctlreq.c ****       (void)osMessageQueuePut(phost->os_event, &phost->os_msg, 0U, 0U);
 723:Middlewares/ST/STM32_USB_Host_Library/Core/Src/usbh_ctlreq.c **** #endif
 724:Middlewares/ST/STM32_USB_Host_Library/Core/Src/usbh_ctlreq.c **** #endif
 725:Middlewares/ST/STM32_USB_Host_Library/Core/Src/usbh_ctlreq.c ****       break;
 726:Middlewares/ST/STM32_USB_Host_Library/Core/Src/usbh_ctlreq.c **** 
 727:Middlewares/ST/STM32_USB_Host_Library/Core/Src/usbh_ctlreq.c ****     default:
 728:Middlewares/ST/STM32_USB_Host_Library/Core/Src/usbh_ctlreq.c ****       break;
 729:Middlewares/ST/STM32_USB_Host_Library/Core/Src/usbh_ctlreq.c ****   }
 730:Middlewares/ST/STM32_USB_Host_Library/Core/Src/usbh_ctlreq.c ****   return status;
 731:Middlewares/ST/STM32_USB_Host_Library/Core/Src/usbh_ctlreq.c **** }
 732:Middlewares/ST/STM32_USB_Host_Library/Core/Src/usbh_ctlreq.c **** 
 733:Middlewares/ST/STM32_USB_Host_Library/Core/Src/usbh_ctlreq.c **** 
 734:Middlewares/ST/STM32_USB_Host_Library/Core/Src/usbh_ctlreq.c **** /**
 735:Middlewares/ST/STM32_USB_Host_Library/Core/Src/usbh_ctlreq.c ****   * @brief  USBH_HandleControl
 736:Middlewares/ST/STM32_USB_Host_Library/Core/Src/usbh_ctlreq.c ****   *         Handles the USB control transfer state machine
ARM GAS  /tmp/ccXc1b7R.s 			page 22


 737:Middlewares/ST/STM32_USB_Host_Library/Core/Src/usbh_ctlreq.c ****   * @param  phost: Host Handle
 738:Middlewares/ST/STM32_USB_Host_Library/Core/Src/usbh_ctlreq.c ****   * @retval USBH Status
 739:Middlewares/ST/STM32_USB_Host_Library/Core/Src/usbh_ctlreq.c ****   */
 740:Middlewares/ST/STM32_USB_Host_Library/Core/Src/usbh_ctlreq.c **** static USBH_StatusTypeDef USBH_HandleControl(USBH_HandleTypeDef *phost)
 741:Middlewares/ST/STM32_USB_Host_Library/Core/Src/usbh_ctlreq.c **** {
 440              		.loc 1 741 1 is_stmt 1 view -0
 441              		.cfi_startproc
 442              		@ args = 0, pretend = 0, frame = 0
 443              		@ frame_needed = 0, uses_anonymous_args = 0
 444              		.loc 1 741 1 is_stmt 0 view .LVU148
 445 0000 30B5     		push	{r4, r5, lr}
 446              	.LCFI4:
 447              		.cfi_def_cfa_offset 12
 448              		.cfi_offset 4, -12
 449              		.cfi_offset 5, -8
 450              		.cfi_offset 14, -4
 451 0002 83B0     		sub	sp, sp, #12
 452              	.LCFI5:
 453              		.cfi_def_cfa_offset 24
 454 0004 0446     		mov	r4, r0
 742:Middlewares/ST/STM32_USB_Host_Library/Core/Src/usbh_ctlreq.c ****   uint8_t direction;
 455              		.loc 1 742 3 is_stmt 1 view .LVU149
 743:Middlewares/ST/STM32_USB_Host_Library/Core/Src/usbh_ctlreq.c ****   USBH_StatusTypeDef status = USBH_BUSY;
 456              		.loc 1 743 3 view .LVU150
 457              	.LVL26:
 744:Middlewares/ST/STM32_USB_Host_Library/Core/Src/usbh_ctlreq.c ****   USBH_URBStateTypeDef URB_Status = USBH_URB_IDLE;
 458              		.loc 1 744 3 view .LVU151
 745:Middlewares/ST/STM32_USB_Host_Library/Core/Src/usbh_ctlreq.c **** 
 746:Middlewares/ST/STM32_USB_Host_Library/Core/Src/usbh_ctlreq.c ****   switch (phost->Control.state)
 459              		.loc 1 746 3 view .LVU152
 460              		.loc 1 746 25 is_stmt 0 view .LVU153
 461 0006 057E     		ldrb	r5, [r0, #24]	@ zero_extendqisi2
 462              		.loc 1 746 3 view .LVU154
 463 0008 6B1E     		subs	r3, r5, #1
 464 000a 0A2B     		cmp	r3, #10
 465 000c 00F2DD80 		bhi	.L55
 466 0010 DFE803F0 		tbb	[pc, r3]
 467              	.L30:
 468 0014 06       		.byte	(.L40-.L30)/2
 469 0015 10       		.byte	(.L39-.L30)/2
 470 0016 34       		.byte	(.L38-.L30)/2
 471 0017 40       		.byte	(.L37-.L30)/2
 472 0018 53       		.byte	(.L36-.L30)/2
 473 0019 60       		.byte	(.L35-.L30)/2
 474 001a 7D       		.byte	(.L34-.L30)/2
 475 001b 89       		.byte	(.L33-.L30)/2
 476 001c 9C       		.byte	(.L32-.L30)/2
 477 001d A9       		.byte	(.L31-.L30)/2
 478 001e C0       		.byte	(.L29-.L30)/2
 479 001f 00       		.p2align 1
 480              	.L40:
 747:Middlewares/ST/STM32_USB_Host_Library/Core/Src/usbh_ctlreq.c ****   {
 748:Middlewares/ST/STM32_USB_Host_Library/Core/Src/usbh_ctlreq.c ****     case CTRL_SETUP:
 749:Middlewares/ST/STM32_USB_Host_Library/Core/Src/usbh_ctlreq.c ****       /* send a SETUP packet */
 750:Middlewares/ST/STM32_USB_Host_Library/Core/Src/usbh_ctlreq.c ****       (void)USBH_CtlSendSetup(phost, (uint8_t *)(void *)phost->Control.setup.d8,
 481              		.loc 1 750 7 is_stmt 1 view .LVU155
 482              		.loc 1 750 13 is_stmt 0 view .LVU156
ARM GAS  /tmp/ccXc1b7R.s 			page 23


 483 0020 4279     		ldrb	r2, [r0, #5]	@ zero_extendqisi2
 484 0022 00F11001 		add	r1, r0, #16
 485 0026 FFF7FEFF 		bl	USBH_CtlSendSetup
 486              	.LVL27:
 751:Middlewares/ST/STM32_USB_Host_Library/Core/Src/usbh_ctlreq.c ****                               phost->Control.pipe_out);
 752:Middlewares/ST/STM32_USB_Host_Library/Core/Src/usbh_ctlreq.c **** 
 753:Middlewares/ST/STM32_USB_Host_Library/Core/Src/usbh_ctlreq.c ****       phost->Control.state = CTRL_SETUP_WAIT;
 487              		.loc 1 753 7 is_stmt 1 view .LVU157
 488              		.loc 1 753 28 is_stmt 0 view .LVU158
 489 002a 0223     		movs	r3, #2
 490 002c 2376     		strb	r3, [r4, #24]
 754:Middlewares/ST/STM32_USB_Host_Library/Core/Src/usbh_ctlreq.c ****       break;
 491              		.loc 1 754 7 is_stmt 1 view .LVU159
 492              	.LVL28:
 493              	.L28:
 755:Middlewares/ST/STM32_USB_Host_Library/Core/Src/usbh_ctlreq.c **** 
 756:Middlewares/ST/STM32_USB_Host_Library/Core/Src/usbh_ctlreq.c ****     case CTRL_SETUP_WAIT:
 757:Middlewares/ST/STM32_USB_Host_Library/Core/Src/usbh_ctlreq.c **** 
 758:Middlewares/ST/STM32_USB_Host_Library/Core/Src/usbh_ctlreq.c ****       URB_Status = USBH_LL_GetURBState(phost, phost->Control.pipe_out);
 759:Middlewares/ST/STM32_USB_Host_Library/Core/Src/usbh_ctlreq.c ****       /* case SETUP packet sent successfully */
 760:Middlewares/ST/STM32_USB_Host_Library/Core/Src/usbh_ctlreq.c ****       if (URB_Status == USBH_URB_DONE)
 761:Middlewares/ST/STM32_USB_Host_Library/Core/Src/usbh_ctlreq.c ****       {
 762:Middlewares/ST/STM32_USB_Host_Library/Core/Src/usbh_ctlreq.c ****         direction = (phost->Control.setup.b.bmRequestType & USB_REQ_DIR_MASK);
 763:Middlewares/ST/STM32_USB_Host_Library/Core/Src/usbh_ctlreq.c **** 
 764:Middlewares/ST/STM32_USB_Host_Library/Core/Src/usbh_ctlreq.c ****         /* check if there is a data stage */
 765:Middlewares/ST/STM32_USB_Host_Library/Core/Src/usbh_ctlreq.c ****         if (phost->Control.setup.b.wLength.w != 0U)
 766:Middlewares/ST/STM32_USB_Host_Library/Core/Src/usbh_ctlreq.c ****         {
 767:Middlewares/ST/STM32_USB_Host_Library/Core/Src/usbh_ctlreq.c ****           if (direction == USB_D2H)
 768:Middlewares/ST/STM32_USB_Host_Library/Core/Src/usbh_ctlreq.c ****           {
 769:Middlewares/ST/STM32_USB_Host_Library/Core/Src/usbh_ctlreq.c ****             /* Data Direction is IN */
 770:Middlewares/ST/STM32_USB_Host_Library/Core/Src/usbh_ctlreq.c ****             phost->Control.state = CTRL_DATA_IN;
 771:Middlewares/ST/STM32_USB_Host_Library/Core/Src/usbh_ctlreq.c ****           }
 772:Middlewares/ST/STM32_USB_Host_Library/Core/Src/usbh_ctlreq.c ****           else
 773:Middlewares/ST/STM32_USB_Host_Library/Core/Src/usbh_ctlreq.c ****           {
 774:Middlewares/ST/STM32_USB_Host_Library/Core/Src/usbh_ctlreq.c ****             /* Data Direction is OUT */
 775:Middlewares/ST/STM32_USB_Host_Library/Core/Src/usbh_ctlreq.c ****             phost->Control.state = CTRL_DATA_OUT;
 776:Middlewares/ST/STM32_USB_Host_Library/Core/Src/usbh_ctlreq.c ****           }
 777:Middlewares/ST/STM32_USB_Host_Library/Core/Src/usbh_ctlreq.c ****         }
 778:Middlewares/ST/STM32_USB_Host_Library/Core/Src/usbh_ctlreq.c ****         /* No DATA stage */
 779:Middlewares/ST/STM32_USB_Host_Library/Core/Src/usbh_ctlreq.c ****         else
 780:Middlewares/ST/STM32_USB_Host_Library/Core/Src/usbh_ctlreq.c ****         {
 781:Middlewares/ST/STM32_USB_Host_Library/Core/Src/usbh_ctlreq.c ****           /* If there is No Data Transfer Stage */
 782:Middlewares/ST/STM32_USB_Host_Library/Core/Src/usbh_ctlreq.c ****           if (direction == USB_D2H)
 783:Middlewares/ST/STM32_USB_Host_Library/Core/Src/usbh_ctlreq.c ****           {
 784:Middlewares/ST/STM32_USB_Host_Library/Core/Src/usbh_ctlreq.c ****             /* Data Direction is IN */
 785:Middlewares/ST/STM32_USB_Host_Library/Core/Src/usbh_ctlreq.c ****             phost->Control.state = CTRL_STATUS_OUT;
 786:Middlewares/ST/STM32_USB_Host_Library/Core/Src/usbh_ctlreq.c ****           }
 787:Middlewares/ST/STM32_USB_Host_Library/Core/Src/usbh_ctlreq.c ****           else
 788:Middlewares/ST/STM32_USB_Host_Library/Core/Src/usbh_ctlreq.c ****           {
 789:Middlewares/ST/STM32_USB_Host_Library/Core/Src/usbh_ctlreq.c ****             /* Data Direction is OUT */
 790:Middlewares/ST/STM32_USB_Host_Library/Core/Src/usbh_ctlreq.c ****             phost->Control.state = CTRL_STATUS_IN;
 791:Middlewares/ST/STM32_USB_Host_Library/Core/Src/usbh_ctlreq.c ****           }
 792:Middlewares/ST/STM32_USB_Host_Library/Core/Src/usbh_ctlreq.c ****         }
 793:Middlewares/ST/STM32_USB_Host_Library/Core/Src/usbh_ctlreq.c **** 
 794:Middlewares/ST/STM32_USB_Host_Library/Core/Src/usbh_ctlreq.c **** #if (USBH_USE_OS == 1U)
 795:Middlewares/ST/STM32_USB_Host_Library/Core/Src/usbh_ctlreq.c ****         phost->os_msg = (uint32_t)USBH_CONTROL_EVENT;
 796:Middlewares/ST/STM32_USB_Host_Library/Core/Src/usbh_ctlreq.c **** #if (osCMSIS < 0x20000U)
ARM GAS  /tmp/ccXc1b7R.s 			page 24


 797:Middlewares/ST/STM32_USB_Host_Library/Core/Src/usbh_ctlreq.c ****         (void)osMessagePut(phost->os_event, phost->os_msg, 0U);
 798:Middlewares/ST/STM32_USB_Host_Library/Core/Src/usbh_ctlreq.c **** #else
 799:Middlewares/ST/STM32_USB_Host_Library/Core/Src/usbh_ctlreq.c ****         (void)osMessageQueuePut(phost->os_event, &phost->os_msg, 0U, 0U);
 800:Middlewares/ST/STM32_USB_Host_Library/Core/Src/usbh_ctlreq.c **** #endif
 801:Middlewares/ST/STM32_USB_Host_Library/Core/Src/usbh_ctlreq.c **** #endif
 802:Middlewares/ST/STM32_USB_Host_Library/Core/Src/usbh_ctlreq.c ****       }
 803:Middlewares/ST/STM32_USB_Host_Library/Core/Src/usbh_ctlreq.c ****       else
 804:Middlewares/ST/STM32_USB_Host_Library/Core/Src/usbh_ctlreq.c ****       {
 805:Middlewares/ST/STM32_USB_Host_Library/Core/Src/usbh_ctlreq.c ****         if ((URB_Status == USBH_URB_ERROR) || (URB_Status == USBH_URB_NOTREADY))
 806:Middlewares/ST/STM32_USB_Host_Library/Core/Src/usbh_ctlreq.c ****         {
 807:Middlewares/ST/STM32_USB_Host_Library/Core/Src/usbh_ctlreq.c ****           phost->Control.state = CTRL_ERROR;
 808:Middlewares/ST/STM32_USB_Host_Library/Core/Src/usbh_ctlreq.c **** 
 809:Middlewares/ST/STM32_USB_Host_Library/Core/Src/usbh_ctlreq.c **** #if (USBH_USE_OS == 1U)
 810:Middlewares/ST/STM32_USB_Host_Library/Core/Src/usbh_ctlreq.c ****           phost->os_msg = (uint32_t)USBH_CONTROL_EVENT;
 811:Middlewares/ST/STM32_USB_Host_Library/Core/Src/usbh_ctlreq.c **** #if (osCMSIS < 0x20000U)
 812:Middlewares/ST/STM32_USB_Host_Library/Core/Src/usbh_ctlreq.c ****           (void)osMessagePut(phost->os_event, phost->os_msg, 0U);
 813:Middlewares/ST/STM32_USB_Host_Library/Core/Src/usbh_ctlreq.c **** #else
 814:Middlewares/ST/STM32_USB_Host_Library/Core/Src/usbh_ctlreq.c ****           (void)osMessageQueuePut(phost->os_event, &phost->os_msg, 0U, 0U);
 815:Middlewares/ST/STM32_USB_Host_Library/Core/Src/usbh_ctlreq.c **** #endif
 816:Middlewares/ST/STM32_USB_Host_Library/Core/Src/usbh_ctlreq.c **** #endif
 817:Middlewares/ST/STM32_USB_Host_Library/Core/Src/usbh_ctlreq.c ****         }
 818:Middlewares/ST/STM32_USB_Host_Library/Core/Src/usbh_ctlreq.c ****       }
 819:Middlewares/ST/STM32_USB_Host_Library/Core/Src/usbh_ctlreq.c ****       break;
 820:Middlewares/ST/STM32_USB_Host_Library/Core/Src/usbh_ctlreq.c **** 
 821:Middlewares/ST/STM32_USB_Host_Library/Core/Src/usbh_ctlreq.c ****     case CTRL_DATA_IN:
 822:Middlewares/ST/STM32_USB_Host_Library/Core/Src/usbh_ctlreq.c ****       /* Issue an IN token */
 823:Middlewares/ST/STM32_USB_Host_Library/Core/Src/usbh_ctlreq.c ****       phost->Control.timer = (uint16_t)phost->Timer;
 824:Middlewares/ST/STM32_USB_Host_Library/Core/Src/usbh_ctlreq.c ****       (void)USBH_CtlReceiveData(phost, phost->Control.buff,
 825:Middlewares/ST/STM32_USB_Host_Library/Core/Src/usbh_ctlreq.c ****                                 phost->Control.length, phost->Control.pipe_in);
 826:Middlewares/ST/STM32_USB_Host_Library/Core/Src/usbh_ctlreq.c **** 
 827:Middlewares/ST/STM32_USB_Host_Library/Core/Src/usbh_ctlreq.c ****       phost->Control.state = CTRL_DATA_IN_WAIT;
 828:Middlewares/ST/STM32_USB_Host_Library/Core/Src/usbh_ctlreq.c ****       break;
 829:Middlewares/ST/STM32_USB_Host_Library/Core/Src/usbh_ctlreq.c **** 
 830:Middlewares/ST/STM32_USB_Host_Library/Core/Src/usbh_ctlreq.c ****     case CTRL_DATA_IN_WAIT:
 831:Middlewares/ST/STM32_USB_Host_Library/Core/Src/usbh_ctlreq.c **** 
 832:Middlewares/ST/STM32_USB_Host_Library/Core/Src/usbh_ctlreq.c ****       URB_Status = USBH_LL_GetURBState(phost, phost->Control.pipe_in);
 833:Middlewares/ST/STM32_USB_Host_Library/Core/Src/usbh_ctlreq.c **** 
 834:Middlewares/ST/STM32_USB_Host_Library/Core/Src/usbh_ctlreq.c ****       /* check is DATA packet transferred successfully */
 835:Middlewares/ST/STM32_USB_Host_Library/Core/Src/usbh_ctlreq.c ****       if (URB_Status == USBH_URB_DONE)
 836:Middlewares/ST/STM32_USB_Host_Library/Core/Src/usbh_ctlreq.c ****       {
 837:Middlewares/ST/STM32_USB_Host_Library/Core/Src/usbh_ctlreq.c ****         phost->Control.state = CTRL_STATUS_OUT;
 838:Middlewares/ST/STM32_USB_Host_Library/Core/Src/usbh_ctlreq.c **** 
 839:Middlewares/ST/STM32_USB_Host_Library/Core/Src/usbh_ctlreq.c **** #if (USBH_USE_OS == 1U)
 840:Middlewares/ST/STM32_USB_Host_Library/Core/Src/usbh_ctlreq.c ****         phost->os_msg = (uint32_t)USBH_CONTROL_EVENT;
 841:Middlewares/ST/STM32_USB_Host_Library/Core/Src/usbh_ctlreq.c **** #if (osCMSIS < 0x20000U)
 842:Middlewares/ST/STM32_USB_Host_Library/Core/Src/usbh_ctlreq.c ****         (void)osMessagePut(phost->os_event, phost->os_msg, 0U);
 843:Middlewares/ST/STM32_USB_Host_Library/Core/Src/usbh_ctlreq.c **** #else
 844:Middlewares/ST/STM32_USB_Host_Library/Core/Src/usbh_ctlreq.c ****         (void)osMessageQueuePut(phost->os_event, &phost->os_msg, 0U, 0U);
 845:Middlewares/ST/STM32_USB_Host_Library/Core/Src/usbh_ctlreq.c **** #endif
 846:Middlewares/ST/STM32_USB_Host_Library/Core/Src/usbh_ctlreq.c **** #endif
 847:Middlewares/ST/STM32_USB_Host_Library/Core/Src/usbh_ctlreq.c ****       }
 848:Middlewares/ST/STM32_USB_Host_Library/Core/Src/usbh_ctlreq.c **** 
 849:Middlewares/ST/STM32_USB_Host_Library/Core/Src/usbh_ctlreq.c ****       /* manage error cases*/
 850:Middlewares/ST/STM32_USB_Host_Library/Core/Src/usbh_ctlreq.c ****       if (URB_Status == USBH_URB_STALL)
 851:Middlewares/ST/STM32_USB_Host_Library/Core/Src/usbh_ctlreq.c ****       {
 852:Middlewares/ST/STM32_USB_Host_Library/Core/Src/usbh_ctlreq.c ****         /* In stall case, return to previous machine state*/
 853:Middlewares/ST/STM32_USB_Host_Library/Core/Src/usbh_ctlreq.c ****         status = USBH_NOT_SUPPORTED;
ARM GAS  /tmp/ccXc1b7R.s 			page 25


 854:Middlewares/ST/STM32_USB_Host_Library/Core/Src/usbh_ctlreq.c **** 
 855:Middlewares/ST/STM32_USB_Host_Library/Core/Src/usbh_ctlreq.c **** #if (USBH_USE_OS == 1U)
 856:Middlewares/ST/STM32_USB_Host_Library/Core/Src/usbh_ctlreq.c ****         phost->os_msg = (uint32_t)USBH_CONTROL_EVENT;
 857:Middlewares/ST/STM32_USB_Host_Library/Core/Src/usbh_ctlreq.c **** #if (osCMSIS < 0x20000U)
 858:Middlewares/ST/STM32_USB_Host_Library/Core/Src/usbh_ctlreq.c ****         (void)osMessagePut(phost->os_event, phost->os_msg, 0U);
 859:Middlewares/ST/STM32_USB_Host_Library/Core/Src/usbh_ctlreq.c **** #else
 860:Middlewares/ST/STM32_USB_Host_Library/Core/Src/usbh_ctlreq.c ****         (void)osMessageQueuePut(phost->os_event, &phost->os_msg, 0U, 0U);
 861:Middlewares/ST/STM32_USB_Host_Library/Core/Src/usbh_ctlreq.c **** #endif
 862:Middlewares/ST/STM32_USB_Host_Library/Core/Src/usbh_ctlreq.c **** #endif
 863:Middlewares/ST/STM32_USB_Host_Library/Core/Src/usbh_ctlreq.c ****       }
 864:Middlewares/ST/STM32_USB_Host_Library/Core/Src/usbh_ctlreq.c ****       else
 865:Middlewares/ST/STM32_USB_Host_Library/Core/Src/usbh_ctlreq.c ****       {
 866:Middlewares/ST/STM32_USB_Host_Library/Core/Src/usbh_ctlreq.c ****         if (URB_Status == USBH_URB_ERROR)
 867:Middlewares/ST/STM32_USB_Host_Library/Core/Src/usbh_ctlreq.c ****         {
 868:Middlewares/ST/STM32_USB_Host_Library/Core/Src/usbh_ctlreq.c ****           /* Device error */
 869:Middlewares/ST/STM32_USB_Host_Library/Core/Src/usbh_ctlreq.c ****           phost->Control.state = CTRL_ERROR;
 870:Middlewares/ST/STM32_USB_Host_Library/Core/Src/usbh_ctlreq.c **** 
 871:Middlewares/ST/STM32_USB_Host_Library/Core/Src/usbh_ctlreq.c **** #if (USBH_USE_OS == 1U)
 872:Middlewares/ST/STM32_USB_Host_Library/Core/Src/usbh_ctlreq.c ****           phost->os_msg = (uint32_t)USBH_CONTROL_EVENT;
 873:Middlewares/ST/STM32_USB_Host_Library/Core/Src/usbh_ctlreq.c **** #if (osCMSIS < 0x20000U)
 874:Middlewares/ST/STM32_USB_Host_Library/Core/Src/usbh_ctlreq.c ****           (void)osMessagePut(phost->os_event, phost->os_msg, 0U);
 875:Middlewares/ST/STM32_USB_Host_Library/Core/Src/usbh_ctlreq.c **** #else
 876:Middlewares/ST/STM32_USB_Host_Library/Core/Src/usbh_ctlreq.c ****           (void)osMessageQueuePut(phost->os_event, &phost->os_msg, 0U, 0U);
 877:Middlewares/ST/STM32_USB_Host_Library/Core/Src/usbh_ctlreq.c **** #endif
 878:Middlewares/ST/STM32_USB_Host_Library/Core/Src/usbh_ctlreq.c **** #endif
 879:Middlewares/ST/STM32_USB_Host_Library/Core/Src/usbh_ctlreq.c ****         }
 880:Middlewares/ST/STM32_USB_Host_Library/Core/Src/usbh_ctlreq.c ****       }
 881:Middlewares/ST/STM32_USB_Host_Library/Core/Src/usbh_ctlreq.c ****       break;
 882:Middlewares/ST/STM32_USB_Host_Library/Core/Src/usbh_ctlreq.c **** 
 883:Middlewares/ST/STM32_USB_Host_Library/Core/Src/usbh_ctlreq.c ****     case CTRL_DATA_OUT:
 884:Middlewares/ST/STM32_USB_Host_Library/Core/Src/usbh_ctlreq.c **** 
 885:Middlewares/ST/STM32_USB_Host_Library/Core/Src/usbh_ctlreq.c ****       (void)USBH_CtlSendData(phost, phost->Control.buff, phost->Control.length,
 886:Middlewares/ST/STM32_USB_Host_Library/Core/Src/usbh_ctlreq.c ****                              phost->Control.pipe_out, 1U);
 887:Middlewares/ST/STM32_USB_Host_Library/Core/Src/usbh_ctlreq.c **** 
 888:Middlewares/ST/STM32_USB_Host_Library/Core/Src/usbh_ctlreq.c ****       phost->Control.timer = (uint16_t)phost->Timer;
 889:Middlewares/ST/STM32_USB_Host_Library/Core/Src/usbh_ctlreq.c ****       phost->Control.state = CTRL_DATA_OUT_WAIT;
 890:Middlewares/ST/STM32_USB_Host_Library/Core/Src/usbh_ctlreq.c ****       break;
 891:Middlewares/ST/STM32_USB_Host_Library/Core/Src/usbh_ctlreq.c **** 
 892:Middlewares/ST/STM32_USB_Host_Library/Core/Src/usbh_ctlreq.c ****     case CTRL_DATA_OUT_WAIT:
 893:Middlewares/ST/STM32_USB_Host_Library/Core/Src/usbh_ctlreq.c **** 
 894:Middlewares/ST/STM32_USB_Host_Library/Core/Src/usbh_ctlreq.c ****       URB_Status = USBH_LL_GetURBState(phost, phost->Control.pipe_out);
 895:Middlewares/ST/STM32_USB_Host_Library/Core/Src/usbh_ctlreq.c **** 
 896:Middlewares/ST/STM32_USB_Host_Library/Core/Src/usbh_ctlreq.c ****       if (URB_Status == USBH_URB_DONE)
 897:Middlewares/ST/STM32_USB_Host_Library/Core/Src/usbh_ctlreq.c ****       {
 898:Middlewares/ST/STM32_USB_Host_Library/Core/Src/usbh_ctlreq.c ****         /* If the Setup Pkt is sent successful, then change the state */
 899:Middlewares/ST/STM32_USB_Host_Library/Core/Src/usbh_ctlreq.c ****         phost->Control.state = CTRL_STATUS_IN;
 900:Middlewares/ST/STM32_USB_Host_Library/Core/Src/usbh_ctlreq.c **** 
 901:Middlewares/ST/STM32_USB_Host_Library/Core/Src/usbh_ctlreq.c **** #if (USBH_USE_OS == 1U)
 902:Middlewares/ST/STM32_USB_Host_Library/Core/Src/usbh_ctlreq.c ****         phost->os_msg = (uint32_t)USBH_CONTROL_EVENT;
 903:Middlewares/ST/STM32_USB_Host_Library/Core/Src/usbh_ctlreq.c **** #if (osCMSIS < 0x20000U)
 904:Middlewares/ST/STM32_USB_Host_Library/Core/Src/usbh_ctlreq.c ****         (void)osMessagePut(phost->os_event, phost->os_msg, 0U);
 905:Middlewares/ST/STM32_USB_Host_Library/Core/Src/usbh_ctlreq.c **** #else
 906:Middlewares/ST/STM32_USB_Host_Library/Core/Src/usbh_ctlreq.c ****         (void)osMessageQueuePut(phost->os_event, &phost->os_msg, 0U, 0U);
 907:Middlewares/ST/STM32_USB_Host_Library/Core/Src/usbh_ctlreq.c **** #endif
 908:Middlewares/ST/STM32_USB_Host_Library/Core/Src/usbh_ctlreq.c **** #endif
 909:Middlewares/ST/STM32_USB_Host_Library/Core/Src/usbh_ctlreq.c ****       }
 910:Middlewares/ST/STM32_USB_Host_Library/Core/Src/usbh_ctlreq.c **** 
ARM GAS  /tmp/ccXc1b7R.s 			page 26


 911:Middlewares/ST/STM32_USB_Host_Library/Core/Src/usbh_ctlreq.c ****       /* handle error cases */
 912:Middlewares/ST/STM32_USB_Host_Library/Core/Src/usbh_ctlreq.c ****       else if (URB_Status == USBH_URB_STALL)
 913:Middlewares/ST/STM32_USB_Host_Library/Core/Src/usbh_ctlreq.c ****       {
 914:Middlewares/ST/STM32_USB_Host_Library/Core/Src/usbh_ctlreq.c ****         /* In stall case, return to previous machine state*/
 915:Middlewares/ST/STM32_USB_Host_Library/Core/Src/usbh_ctlreq.c ****         phost->Control.state = CTRL_STALLED;
 916:Middlewares/ST/STM32_USB_Host_Library/Core/Src/usbh_ctlreq.c ****         status = USBH_NOT_SUPPORTED;
 917:Middlewares/ST/STM32_USB_Host_Library/Core/Src/usbh_ctlreq.c **** 
 918:Middlewares/ST/STM32_USB_Host_Library/Core/Src/usbh_ctlreq.c **** #if (USBH_USE_OS == 1U)
 919:Middlewares/ST/STM32_USB_Host_Library/Core/Src/usbh_ctlreq.c ****         phost->os_msg = (uint32_t)USBH_CONTROL_EVENT;
 920:Middlewares/ST/STM32_USB_Host_Library/Core/Src/usbh_ctlreq.c **** #if (osCMSIS < 0x20000U)
 921:Middlewares/ST/STM32_USB_Host_Library/Core/Src/usbh_ctlreq.c ****         (void)osMessagePut(phost->os_event, phost->os_msg, 0U);
 922:Middlewares/ST/STM32_USB_Host_Library/Core/Src/usbh_ctlreq.c **** #else
 923:Middlewares/ST/STM32_USB_Host_Library/Core/Src/usbh_ctlreq.c ****         (void)osMessageQueuePut(phost->os_event, &phost->os_msg, 0U, 0U);
 924:Middlewares/ST/STM32_USB_Host_Library/Core/Src/usbh_ctlreq.c **** #endif
 925:Middlewares/ST/STM32_USB_Host_Library/Core/Src/usbh_ctlreq.c **** #endif
 926:Middlewares/ST/STM32_USB_Host_Library/Core/Src/usbh_ctlreq.c ****       }
 927:Middlewares/ST/STM32_USB_Host_Library/Core/Src/usbh_ctlreq.c ****       else if (URB_Status == USBH_URB_NOTREADY)
 928:Middlewares/ST/STM32_USB_Host_Library/Core/Src/usbh_ctlreq.c ****       {
 929:Middlewares/ST/STM32_USB_Host_Library/Core/Src/usbh_ctlreq.c ****         /* Nack received from device */
 930:Middlewares/ST/STM32_USB_Host_Library/Core/Src/usbh_ctlreq.c ****         phost->Control.state = CTRL_DATA_OUT;
 931:Middlewares/ST/STM32_USB_Host_Library/Core/Src/usbh_ctlreq.c **** 
 932:Middlewares/ST/STM32_USB_Host_Library/Core/Src/usbh_ctlreq.c **** #if (USBH_USE_OS == 1U)
 933:Middlewares/ST/STM32_USB_Host_Library/Core/Src/usbh_ctlreq.c ****         phost->os_msg = (uint32_t)USBH_CONTROL_EVENT;
 934:Middlewares/ST/STM32_USB_Host_Library/Core/Src/usbh_ctlreq.c **** #if (osCMSIS < 0x20000U)
 935:Middlewares/ST/STM32_USB_Host_Library/Core/Src/usbh_ctlreq.c ****         (void)osMessagePut(phost->os_event, phost->os_msg, 0U);
 936:Middlewares/ST/STM32_USB_Host_Library/Core/Src/usbh_ctlreq.c **** #else
 937:Middlewares/ST/STM32_USB_Host_Library/Core/Src/usbh_ctlreq.c ****         (void)osMessageQueuePut(phost->os_event, &phost->os_msg, 0U, 0U);
 938:Middlewares/ST/STM32_USB_Host_Library/Core/Src/usbh_ctlreq.c **** #endif
 939:Middlewares/ST/STM32_USB_Host_Library/Core/Src/usbh_ctlreq.c **** #endif
 940:Middlewares/ST/STM32_USB_Host_Library/Core/Src/usbh_ctlreq.c ****       }
 941:Middlewares/ST/STM32_USB_Host_Library/Core/Src/usbh_ctlreq.c ****       else
 942:Middlewares/ST/STM32_USB_Host_Library/Core/Src/usbh_ctlreq.c ****       {
 943:Middlewares/ST/STM32_USB_Host_Library/Core/Src/usbh_ctlreq.c ****         if (URB_Status == USBH_URB_ERROR)
 944:Middlewares/ST/STM32_USB_Host_Library/Core/Src/usbh_ctlreq.c ****         {
 945:Middlewares/ST/STM32_USB_Host_Library/Core/Src/usbh_ctlreq.c ****           /* device error */
 946:Middlewares/ST/STM32_USB_Host_Library/Core/Src/usbh_ctlreq.c ****           phost->Control.state = CTRL_ERROR;
 947:Middlewares/ST/STM32_USB_Host_Library/Core/Src/usbh_ctlreq.c ****           status = USBH_FAIL;
 948:Middlewares/ST/STM32_USB_Host_Library/Core/Src/usbh_ctlreq.c **** 
 949:Middlewares/ST/STM32_USB_Host_Library/Core/Src/usbh_ctlreq.c **** #if (USBH_USE_OS == 1U)
 950:Middlewares/ST/STM32_USB_Host_Library/Core/Src/usbh_ctlreq.c ****           phost->os_msg = (uint32_t)USBH_CONTROL_EVENT;
 951:Middlewares/ST/STM32_USB_Host_Library/Core/Src/usbh_ctlreq.c **** #if (osCMSIS < 0x20000U)
 952:Middlewares/ST/STM32_USB_Host_Library/Core/Src/usbh_ctlreq.c ****           (void)osMessagePut(phost->os_event, phost->os_msg, 0U);
 953:Middlewares/ST/STM32_USB_Host_Library/Core/Src/usbh_ctlreq.c **** #else
 954:Middlewares/ST/STM32_USB_Host_Library/Core/Src/usbh_ctlreq.c ****           (void)osMessageQueuePut(phost->os_event, &phost->os_msg, 0U, 0U);
 955:Middlewares/ST/STM32_USB_Host_Library/Core/Src/usbh_ctlreq.c **** #endif
 956:Middlewares/ST/STM32_USB_Host_Library/Core/Src/usbh_ctlreq.c **** #endif
 957:Middlewares/ST/STM32_USB_Host_Library/Core/Src/usbh_ctlreq.c ****         }
 958:Middlewares/ST/STM32_USB_Host_Library/Core/Src/usbh_ctlreq.c ****       }
 959:Middlewares/ST/STM32_USB_Host_Library/Core/Src/usbh_ctlreq.c ****       break;
 960:Middlewares/ST/STM32_USB_Host_Library/Core/Src/usbh_ctlreq.c **** 
 961:Middlewares/ST/STM32_USB_Host_Library/Core/Src/usbh_ctlreq.c ****     case CTRL_STATUS_IN:
 962:Middlewares/ST/STM32_USB_Host_Library/Core/Src/usbh_ctlreq.c ****       /* Send 0 bytes out packet */
 963:Middlewares/ST/STM32_USB_Host_Library/Core/Src/usbh_ctlreq.c ****       (void)USBH_CtlReceiveData(phost, NULL, 0U, phost->Control.pipe_in);
 964:Middlewares/ST/STM32_USB_Host_Library/Core/Src/usbh_ctlreq.c **** 
 965:Middlewares/ST/STM32_USB_Host_Library/Core/Src/usbh_ctlreq.c ****       phost->Control.timer = (uint16_t)phost->Timer;
 966:Middlewares/ST/STM32_USB_Host_Library/Core/Src/usbh_ctlreq.c ****       phost->Control.state = CTRL_STATUS_IN_WAIT;
 967:Middlewares/ST/STM32_USB_Host_Library/Core/Src/usbh_ctlreq.c **** 
ARM GAS  /tmp/ccXc1b7R.s 			page 27


 968:Middlewares/ST/STM32_USB_Host_Library/Core/Src/usbh_ctlreq.c ****       break;
 969:Middlewares/ST/STM32_USB_Host_Library/Core/Src/usbh_ctlreq.c **** 
 970:Middlewares/ST/STM32_USB_Host_Library/Core/Src/usbh_ctlreq.c ****     case CTRL_STATUS_IN_WAIT:
 971:Middlewares/ST/STM32_USB_Host_Library/Core/Src/usbh_ctlreq.c **** 
 972:Middlewares/ST/STM32_USB_Host_Library/Core/Src/usbh_ctlreq.c ****       URB_Status = USBH_LL_GetURBState(phost, phost->Control.pipe_in);
 973:Middlewares/ST/STM32_USB_Host_Library/Core/Src/usbh_ctlreq.c **** 
 974:Middlewares/ST/STM32_USB_Host_Library/Core/Src/usbh_ctlreq.c ****       if (URB_Status == USBH_URB_DONE)
 975:Middlewares/ST/STM32_USB_Host_Library/Core/Src/usbh_ctlreq.c ****       {
 976:Middlewares/ST/STM32_USB_Host_Library/Core/Src/usbh_ctlreq.c ****         /* Control transfers completed, Exit the State Machine */
 977:Middlewares/ST/STM32_USB_Host_Library/Core/Src/usbh_ctlreq.c ****         phost->Control.state = CTRL_COMPLETE;
 978:Middlewares/ST/STM32_USB_Host_Library/Core/Src/usbh_ctlreq.c ****         status = USBH_OK;
 979:Middlewares/ST/STM32_USB_Host_Library/Core/Src/usbh_ctlreq.c **** 
 980:Middlewares/ST/STM32_USB_Host_Library/Core/Src/usbh_ctlreq.c **** #if (USBH_USE_OS == 1U)
 981:Middlewares/ST/STM32_USB_Host_Library/Core/Src/usbh_ctlreq.c ****         phost->os_msg = (uint32_t)USBH_CONTROL_EVENT;
 982:Middlewares/ST/STM32_USB_Host_Library/Core/Src/usbh_ctlreq.c **** #if (osCMSIS < 0x20000U)
 983:Middlewares/ST/STM32_USB_Host_Library/Core/Src/usbh_ctlreq.c ****         (void)osMessagePut(phost->os_event, phost->os_msg, 0U);
 984:Middlewares/ST/STM32_USB_Host_Library/Core/Src/usbh_ctlreq.c **** #else
 985:Middlewares/ST/STM32_USB_Host_Library/Core/Src/usbh_ctlreq.c ****         (void)osMessageQueuePut(phost->os_event, &phost->os_msg, 0U, 0U);
 986:Middlewares/ST/STM32_USB_Host_Library/Core/Src/usbh_ctlreq.c **** #endif
 987:Middlewares/ST/STM32_USB_Host_Library/Core/Src/usbh_ctlreq.c **** #endif
 988:Middlewares/ST/STM32_USB_Host_Library/Core/Src/usbh_ctlreq.c ****       }
 989:Middlewares/ST/STM32_USB_Host_Library/Core/Src/usbh_ctlreq.c ****       else if (URB_Status == USBH_URB_ERROR)
 990:Middlewares/ST/STM32_USB_Host_Library/Core/Src/usbh_ctlreq.c ****       {
 991:Middlewares/ST/STM32_USB_Host_Library/Core/Src/usbh_ctlreq.c ****         phost->Control.state = CTRL_ERROR;
 992:Middlewares/ST/STM32_USB_Host_Library/Core/Src/usbh_ctlreq.c **** 
 993:Middlewares/ST/STM32_USB_Host_Library/Core/Src/usbh_ctlreq.c **** #if (USBH_USE_OS == 1U)
 994:Middlewares/ST/STM32_USB_Host_Library/Core/Src/usbh_ctlreq.c ****         phost->os_msg = (uint32_t)USBH_CONTROL_EVENT;
 995:Middlewares/ST/STM32_USB_Host_Library/Core/Src/usbh_ctlreq.c **** #if (osCMSIS < 0x20000U)
 996:Middlewares/ST/STM32_USB_Host_Library/Core/Src/usbh_ctlreq.c ****         (void)osMessagePut(phost->os_event, phost->os_msg, 0U);
 997:Middlewares/ST/STM32_USB_Host_Library/Core/Src/usbh_ctlreq.c **** #else
 998:Middlewares/ST/STM32_USB_Host_Library/Core/Src/usbh_ctlreq.c ****         (void)osMessageQueuePut(phost->os_event, &phost->os_msg, 0U, 0U);
 999:Middlewares/ST/STM32_USB_Host_Library/Core/Src/usbh_ctlreq.c **** #endif
1000:Middlewares/ST/STM32_USB_Host_Library/Core/Src/usbh_ctlreq.c **** #endif
1001:Middlewares/ST/STM32_USB_Host_Library/Core/Src/usbh_ctlreq.c ****       }
1002:Middlewares/ST/STM32_USB_Host_Library/Core/Src/usbh_ctlreq.c ****       else
1003:Middlewares/ST/STM32_USB_Host_Library/Core/Src/usbh_ctlreq.c ****       {
1004:Middlewares/ST/STM32_USB_Host_Library/Core/Src/usbh_ctlreq.c ****         if (URB_Status == USBH_URB_STALL)
1005:Middlewares/ST/STM32_USB_Host_Library/Core/Src/usbh_ctlreq.c ****         {
1006:Middlewares/ST/STM32_USB_Host_Library/Core/Src/usbh_ctlreq.c ****           /* Control transfers completed, Exit the State Machine */
1007:Middlewares/ST/STM32_USB_Host_Library/Core/Src/usbh_ctlreq.c ****           status = USBH_NOT_SUPPORTED;
1008:Middlewares/ST/STM32_USB_Host_Library/Core/Src/usbh_ctlreq.c **** 
1009:Middlewares/ST/STM32_USB_Host_Library/Core/Src/usbh_ctlreq.c **** #if (USBH_USE_OS == 1U)
1010:Middlewares/ST/STM32_USB_Host_Library/Core/Src/usbh_ctlreq.c ****           phost->os_msg = (uint32_t)USBH_CONTROL_EVENT;
1011:Middlewares/ST/STM32_USB_Host_Library/Core/Src/usbh_ctlreq.c **** #if (osCMSIS < 0x20000U)
1012:Middlewares/ST/STM32_USB_Host_Library/Core/Src/usbh_ctlreq.c ****           (void)osMessagePut(phost->os_event, phost->os_msg, 0U);
1013:Middlewares/ST/STM32_USB_Host_Library/Core/Src/usbh_ctlreq.c **** #else
1014:Middlewares/ST/STM32_USB_Host_Library/Core/Src/usbh_ctlreq.c ****           (void)osMessageQueuePut(phost->os_event, &phost->os_msg, 0U, 0U);
1015:Middlewares/ST/STM32_USB_Host_Library/Core/Src/usbh_ctlreq.c **** #endif
1016:Middlewares/ST/STM32_USB_Host_Library/Core/Src/usbh_ctlreq.c **** #endif
1017:Middlewares/ST/STM32_USB_Host_Library/Core/Src/usbh_ctlreq.c ****         }
1018:Middlewares/ST/STM32_USB_Host_Library/Core/Src/usbh_ctlreq.c ****       }
1019:Middlewares/ST/STM32_USB_Host_Library/Core/Src/usbh_ctlreq.c ****       break;
1020:Middlewares/ST/STM32_USB_Host_Library/Core/Src/usbh_ctlreq.c **** 
1021:Middlewares/ST/STM32_USB_Host_Library/Core/Src/usbh_ctlreq.c ****     case CTRL_STATUS_OUT:
1022:Middlewares/ST/STM32_USB_Host_Library/Core/Src/usbh_ctlreq.c ****       (void)USBH_CtlSendData(phost, NULL, 0U, phost->Control.pipe_out, 1U);
1023:Middlewares/ST/STM32_USB_Host_Library/Core/Src/usbh_ctlreq.c **** 
1024:Middlewares/ST/STM32_USB_Host_Library/Core/Src/usbh_ctlreq.c ****       phost->Control.timer = (uint16_t)phost->Timer;
ARM GAS  /tmp/ccXc1b7R.s 			page 28


1025:Middlewares/ST/STM32_USB_Host_Library/Core/Src/usbh_ctlreq.c ****       phost->Control.state = CTRL_STATUS_OUT_WAIT;
1026:Middlewares/ST/STM32_USB_Host_Library/Core/Src/usbh_ctlreq.c ****       break;
1027:Middlewares/ST/STM32_USB_Host_Library/Core/Src/usbh_ctlreq.c **** 
1028:Middlewares/ST/STM32_USB_Host_Library/Core/Src/usbh_ctlreq.c ****     case CTRL_STATUS_OUT_WAIT:
1029:Middlewares/ST/STM32_USB_Host_Library/Core/Src/usbh_ctlreq.c ****       URB_Status = USBH_LL_GetURBState(phost, phost->Control.pipe_out);
1030:Middlewares/ST/STM32_USB_Host_Library/Core/Src/usbh_ctlreq.c ****       if (URB_Status == USBH_URB_DONE)
1031:Middlewares/ST/STM32_USB_Host_Library/Core/Src/usbh_ctlreq.c ****       {
1032:Middlewares/ST/STM32_USB_Host_Library/Core/Src/usbh_ctlreq.c ****         status = USBH_OK;
1033:Middlewares/ST/STM32_USB_Host_Library/Core/Src/usbh_ctlreq.c ****         phost->Control.state = CTRL_COMPLETE;
1034:Middlewares/ST/STM32_USB_Host_Library/Core/Src/usbh_ctlreq.c **** 
1035:Middlewares/ST/STM32_USB_Host_Library/Core/Src/usbh_ctlreq.c **** #if (USBH_USE_OS == 1U)
1036:Middlewares/ST/STM32_USB_Host_Library/Core/Src/usbh_ctlreq.c ****         phost->os_msg = (uint32_t)USBH_CONTROL_EVENT;
1037:Middlewares/ST/STM32_USB_Host_Library/Core/Src/usbh_ctlreq.c **** #if (osCMSIS < 0x20000U)
1038:Middlewares/ST/STM32_USB_Host_Library/Core/Src/usbh_ctlreq.c ****         (void)osMessagePut(phost->os_event, phost->os_msg, 0U);
1039:Middlewares/ST/STM32_USB_Host_Library/Core/Src/usbh_ctlreq.c **** #else
1040:Middlewares/ST/STM32_USB_Host_Library/Core/Src/usbh_ctlreq.c ****         (void)osMessageQueuePut(phost->os_event, &phost->os_msg, 0U, 0U);
1041:Middlewares/ST/STM32_USB_Host_Library/Core/Src/usbh_ctlreq.c **** #endif
1042:Middlewares/ST/STM32_USB_Host_Library/Core/Src/usbh_ctlreq.c **** #endif
1043:Middlewares/ST/STM32_USB_Host_Library/Core/Src/usbh_ctlreq.c ****       }
1044:Middlewares/ST/STM32_USB_Host_Library/Core/Src/usbh_ctlreq.c ****       else if (URB_Status == USBH_URB_NOTREADY)
1045:Middlewares/ST/STM32_USB_Host_Library/Core/Src/usbh_ctlreq.c ****       {
1046:Middlewares/ST/STM32_USB_Host_Library/Core/Src/usbh_ctlreq.c ****         phost->Control.state = CTRL_STATUS_OUT;
1047:Middlewares/ST/STM32_USB_Host_Library/Core/Src/usbh_ctlreq.c **** 
1048:Middlewares/ST/STM32_USB_Host_Library/Core/Src/usbh_ctlreq.c **** #if (USBH_USE_OS == 1U)
1049:Middlewares/ST/STM32_USB_Host_Library/Core/Src/usbh_ctlreq.c ****         phost->os_msg = (uint32_t)USBH_CONTROL_EVENT;
1050:Middlewares/ST/STM32_USB_Host_Library/Core/Src/usbh_ctlreq.c **** #if (osCMSIS < 0x20000U)
1051:Middlewares/ST/STM32_USB_Host_Library/Core/Src/usbh_ctlreq.c ****         (void)osMessagePut(phost->os_event, phost->os_msg, 0U);
1052:Middlewares/ST/STM32_USB_Host_Library/Core/Src/usbh_ctlreq.c **** #else
1053:Middlewares/ST/STM32_USB_Host_Library/Core/Src/usbh_ctlreq.c ****         (void)osMessageQueuePut(phost->os_event, &phost->os_msg, 0U, 0U);
1054:Middlewares/ST/STM32_USB_Host_Library/Core/Src/usbh_ctlreq.c **** #endif
1055:Middlewares/ST/STM32_USB_Host_Library/Core/Src/usbh_ctlreq.c **** #endif
1056:Middlewares/ST/STM32_USB_Host_Library/Core/Src/usbh_ctlreq.c ****       }
1057:Middlewares/ST/STM32_USB_Host_Library/Core/Src/usbh_ctlreq.c ****       else
1058:Middlewares/ST/STM32_USB_Host_Library/Core/Src/usbh_ctlreq.c ****       {
1059:Middlewares/ST/STM32_USB_Host_Library/Core/Src/usbh_ctlreq.c ****         if (URB_Status == USBH_URB_ERROR)
1060:Middlewares/ST/STM32_USB_Host_Library/Core/Src/usbh_ctlreq.c ****         {
1061:Middlewares/ST/STM32_USB_Host_Library/Core/Src/usbh_ctlreq.c ****           phost->Control.state = CTRL_ERROR;
1062:Middlewares/ST/STM32_USB_Host_Library/Core/Src/usbh_ctlreq.c **** 
1063:Middlewares/ST/STM32_USB_Host_Library/Core/Src/usbh_ctlreq.c **** #if (USBH_USE_OS == 1U)
1064:Middlewares/ST/STM32_USB_Host_Library/Core/Src/usbh_ctlreq.c ****           phost->os_msg = (uint32_t)USBH_CONTROL_EVENT;
1065:Middlewares/ST/STM32_USB_Host_Library/Core/Src/usbh_ctlreq.c **** #if (osCMSIS < 0x20000U)
1066:Middlewares/ST/STM32_USB_Host_Library/Core/Src/usbh_ctlreq.c ****           (void)osMessagePut(phost->os_event, phost->os_msg, 0U);
1067:Middlewares/ST/STM32_USB_Host_Library/Core/Src/usbh_ctlreq.c **** #else
1068:Middlewares/ST/STM32_USB_Host_Library/Core/Src/usbh_ctlreq.c ****           (void)osMessageQueuePut(phost->os_event, &phost->os_msg, 0U, 0U);
1069:Middlewares/ST/STM32_USB_Host_Library/Core/Src/usbh_ctlreq.c **** #endif
1070:Middlewares/ST/STM32_USB_Host_Library/Core/Src/usbh_ctlreq.c **** #endif
1071:Middlewares/ST/STM32_USB_Host_Library/Core/Src/usbh_ctlreq.c ****         }
1072:Middlewares/ST/STM32_USB_Host_Library/Core/Src/usbh_ctlreq.c ****       }
1073:Middlewares/ST/STM32_USB_Host_Library/Core/Src/usbh_ctlreq.c ****       break;
1074:Middlewares/ST/STM32_USB_Host_Library/Core/Src/usbh_ctlreq.c **** 
1075:Middlewares/ST/STM32_USB_Host_Library/Core/Src/usbh_ctlreq.c ****     case CTRL_ERROR:
1076:Middlewares/ST/STM32_USB_Host_Library/Core/Src/usbh_ctlreq.c ****       /*
1077:Middlewares/ST/STM32_USB_Host_Library/Core/Src/usbh_ctlreq.c ****       After a halt condition is encountered or an error is detected by the
1078:Middlewares/ST/STM32_USB_Host_Library/Core/Src/usbh_ctlreq.c ****       host, a control endpoint is allowed to recover by accepting the next Setup
1079:Middlewares/ST/STM32_USB_Host_Library/Core/Src/usbh_ctlreq.c ****       PID; i.e., recovery actions via some other pipe are not required for control
1080:Middlewares/ST/STM32_USB_Host_Library/Core/Src/usbh_ctlreq.c ****       endpoints. For the Default Control Pipe, a device reset will ultimately be
1081:Middlewares/ST/STM32_USB_Host_Library/Core/Src/usbh_ctlreq.c ****       required to clear the halt or error condition if the next Setup PID is not
ARM GAS  /tmp/ccXc1b7R.s 			page 29


1082:Middlewares/ST/STM32_USB_Host_Library/Core/Src/usbh_ctlreq.c ****       accepted.
1083:Middlewares/ST/STM32_USB_Host_Library/Core/Src/usbh_ctlreq.c ****       */
1084:Middlewares/ST/STM32_USB_Host_Library/Core/Src/usbh_ctlreq.c ****       if (++phost->Control.errorcount <= USBH_MAX_ERROR_COUNT)
1085:Middlewares/ST/STM32_USB_Host_Library/Core/Src/usbh_ctlreq.c ****       {
1086:Middlewares/ST/STM32_USB_Host_Library/Core/Src/usbh_ctlreq.c ****         /* Do the transmission again, starting from SETUP Packet */
1087:Middlewares/ST/STM32_USB_Host_Library/Core/Src/usbh_ctlreq.c ****         phost->Control.state = CTRL_SETUP;
1088:Middlewares/ST/STM32_USB_Host_Library/Core/Src/usbh_ctlreq.c ****         phost->RequestState = CMD_SEND;
1089:Middlewares/ST/STM32_USB_Host_Library/Core/Src/usbh_ctlreq.c ****       }
1090:Middlewares/ST/STM32_USB_Host_Library/Core/Src/usbh_ctlreq.c ****       else
1091:Middlewares/ST/STM32_USB_Host_Library/Core/Src/usbh_ctlreq.c ****       {
1092:Middlewares/ST/STM32_USB_Host_Library/Core/Src/usbh_ctlreq.c ****         phost->pUser(phost, HOST_USER_UNRECOVERED_ERROR);
1093:Middlewares/ST/STM32_USB_Host_Library/Core/Src/usbh_ctlreq.c ****         phost->Control.errorcount = 0U;
1094:Middlewares/ST/STM32_USB_Host_Library/Core/Src/usbh_ctlreq.c ****         USBH_ErrLog("Control error: Device not responding");
1095:Middlewares/ST/STM32_USB_Host_Library/Core/Src/usbh_ctlreq.c **** 
1096:Middlewares/ST/STM32_USB_Host_Library/Core/Src/usbh_ctlreq.c ****         /* Free control pipes */
1097:Middlewares/ST/STM32_USB_Host_Library/Core/Src/usbh_ctlreq.c ****         (void)USBH_FreePipe(phost, phost->Control.pipe_out);
1098:Middlewares/ST/STM32_USB_Host_Library/Core/Src/usbh_ctlreq.c ****         (void)USBH_FreePipe(phost, phost->Control.pipe_in);
1099:Middlewares/ST/STM32_USB_Host_Library/Core/Src/usbh_ctlreq.c **** 
1100:Middlewares/ST/STM32_USB_Host_Library/Core/Src/usbh_ctlreq.c ****         phost->gState = HOST_IDLE;
1101:Middlewares/ST/STM32_USB_Host_Library/Core/Src/usbh_ctlreq.c ****         status = USBH_FAIL;
1102:Middlewares/ST/STM32_USB_Host_Library/Core/Src/usbh_ctlreq.c ****       }
1103:Middlewares/ST/STM32_USB_Host_Library/Core/Src/usbh_ctlreq.c ****       break;
1104:Middlewares/ST/STM32_USB_Host_Library/Core/Src/usbh_ctlreq.c **** 
1105:Middlewares/ST/STM32_USB_Host_Library/Core/Src/usbh_ctlreq.c ****     default:
1106:Middlewares/ST/STM32_USB_Host_Library/Core/Src/usbh_ctlreq.c ****       break;
1107:Middlewares/ST/STM32_USB_Host_Library/Core/Src/usbh_ctlreq.c ****   }
1108:Middlewares/ST/STM32_USB_Host_Library/Core/Src/usbh_ctlreq.c **** 
1109:Middlewares/ST/STM32_USB_Host_Library/Core/Src/usbh_ctlreq.c ****   return status;
 494              		.loc 1 1109 3 view .LVU160
1110:Middlewares/ST/STM32_USB_Host_Library/Core/Src/usbh_ctlreq.c **** }
 495              		.loc 1 1110 1 is_stmt 0 view .LVU161
 496 002e 2846     		mov	r0, r5
 497 0030 03B0     		add	sp, sp, #12
 498              	.LCFI6:
 499              		.cfi_remember_state
 500              		.cfi_def_cfa_offset 12
 501              		@ sp needed
 502 0032 30BD     		pop	{r4, r5, pc}
 503              	.LVL29:
 504              	.L39:
 505              	.LCFI7:
 506              		.cfi_restore_state
 758:Middlewares/ST/STM32_USB_Host_Library/Core/Src/usbh_ctlreq.c ****       /* case SETUP packet sent successfully */
 507              		.loc 1 758 7 is_stmt 1 view .LVU162
 758:Middlewares/ST/STM32_USB_Host_Library/Core/Src/usbh_ctlreq.c ****       /* case SETUP packet sent successfully */
 508              		.loc 1 758 20 is_stmt 0 view .LVU163
 509 0034 4179     		ldrb	r1, [r0, #5]	@ zero_extendqisi2
 510 0036 FFF7FEFF 		bl	USBH_LL_GetURBState
 511              	.LVL30:
 758:Middlewares/ST/STM32_USB_Host_Library/Core/Src/usbh_ctlreq.c ****       /* case SETUP packet sent successfully */
 512              		.loc 1 758 20 view .LVU164
 513 003a 0546     		mov	r5, r0
 514              	.LVL31:
 760:Middlewares/ST/STM32_USB_Host_Library/Core/Src/usbh_ctlreq.c ****       {
 515              		.loc 1 760 7 is_stmt 1 view .LVU165
 760:Middlewares/ST/STM32_USB_Host_Library/Core/Src/usbh_ctlreq.c ****       {
 516              		.loc 1 760 10 is_stmt 0 view .LVU166
ARM GAS  /tmp/ccXc1b7R.s 			page 30


 517 003c 0128     		cmp	r0, #1
 518 003e 08D0     		beq	.L63
 805:Middlewares/ST/STM32_USB_Host_Library/Core/Src/usbh_ctlreq.c ****         {
 519              		.loc 1 805 9 is_stmt 1 view .LVU167
 805:Middlewares/ST/STM32_USB_Host_Library/Core/Src/usbh_ctlreq.c ****         {
 520              		.loc 1 805 12 is_stmt 0 view .LVU168
 521 0040 0228     		cmp	r0, #2
 522 0042 18BF     		it	ne
 523 0044 0428     		cmpne	r0, #4
 524 0046 40F0C280 		bne	.L56
 807:Middlewares/ST/STM32_USB_Host_Library/Core/Src/usbh_ctlreq.c **** 
 525              		.loc 1 807 11 is_stmt 1 view .LVU169
 807:Middlewares/ST/STM32_USB_Host_Library/Core/Src/usbh_ctlreq.c **** 
 526              		.loc 1 807 32 is_stmt 0 view .LVU170
 527 004a 0B23     		movs	r3, #11
 528 004c 2376     		strb	r3, [r4, #24]
 743:Middlewares/ST/STM32_USB_Host_Library/Core/Src/usbh_ctlreq.c ****   USBH_URBStateTypeDef URB_Status = USBH_URB_IDLE;
 529              		.loc 1 743 22 view .LVU171
 530 004e 0125     		movs	r5, #1
 531 0050 EDE7     		b	.L28
 532              	.L63:
 762:Middlewares/ST/STM32_USB_Host_Library/Core/Src/usbh_ctlreq.c **** 
 533              		.loc 1 762 9 is_stmt 1 view .LVU172
 762:Middlewares/ST/STM32_USB_Host_Library/Core/Src/usbh_ctlreq.c **** 
 534              		.loc 1 762 44 is_stmt 0 view .LVU173
 535 0052 237C     		ldrb	r3, [r4, #16]	@ zero_extendqisi2
 536              	.LVL32:
 765:Middlewares/ST/STM32_USB_Host_Library/Core/Src/usbh_ctlreq.c ****         {
 537              		.loc 1 765 9 is_stmt 1 view .LVU174
 765:Middlewares/ST/STM32_USB_Host_Library/Core/Src/usbh_ctlreq.c ****         {
 538              		.loc 1 765 43 is_stmt 0 view .LVU175
 539 0054 E28A     		ldrh	r2, [r4, #22]
 765:Middlewares/ST/STM32_USB_Host_Library/Core/Src/usbh_ctlreq.c ****         {
 540              		.loc 1 765 12 view .LVU176
 541 0056 42B1     		cbz	r2, .L42
 767:Middlewares/ST/STM32_USB_Host_Library/Core/Src/usbh_ctlreq.c ****           {
 542              		.loc 1 767 11 is_stmt 1 view .LVU177
 767:Middlewares/ST/STM32_USB_Host_Library/Core/Src/usbh_ctlreq.c ****           {
 543              		.loc 1 767 14 is_stmt 0 view .LVU178
 544 0058 13F0800F 		tst	r3, #128
 545 005c 02D1     		bne	.L64
 775:Middlewares/ST/STM32_USB_Host_Library/Core/Src/usbh_ctlreq.c ****           }
 546              		.loc 1 775 13 is_stmt 1 view .LVU179
 775:Middlewares/ST/STM32_USB_Host_Library/Core/Src/usbh_ctlreq.c ****           }
 547              		.loc 1 775 34 is_stmt 0 view .LVU180
 548 005e 0523     		movs	r3, #5
 549              	.LVL33:
 775:Middlewares/ST/STM32_USB_Host_Library/Core/Src/usbh_ctlreq.c ****           }
 550              		.loc 1 775 34 view .LVU181
 551 0060 2376     		strb	r3, [r4, #24]
 552 0062 E4E7     		b	.L28
 553              	.LVL34:
 554              	.L64:
 770:Middlewares/ST/STM32_USB_Host_Library/Core/Src/usbh_ctlreq.c ****           }
 555              		.loc 1 770 13 is_stmt 1 view .LVU182
 770:Middlewares/ST/STM32_USB_Host_Library/Core/Src/usbh_ctlreq.c ****           }
 556              		.loc 1 770 34 is_stmt 0 view .LVU183
ARM GAS  /tmp/ccXc1b7R.s 			page 31


 557 0064 0323     		movs	r3, #3
 558              	.LVL35:
 770:Middlewares/ST/STM32_USB_Host_Library/Core/Src/usbh_ctlreq.c ****           }
 559              		.loc 1 770 34 view .LVU184
 560 0066 2376     		strb	r3, [r4, #24]
 561 0068 E1E7     		b	.L28
 562              	.LVL36:
 563              	.L42:
 782:Middlewares/ST/STM32_USB_Host_Library/Core/Src/usbh_ctlreq.c ****           {
 564              		.loc 1 782 11 is_stmt 1 view .LVU185
 782:Middlewares/ST/STM32_USB_Host_Library/Core/Src/usbh_ctlreq.c ****           {
 565              		.loc 1 782 14 is_stmt 0 view .LVU186
 566 006a 13F0800F 		tst	r3, #128
 567 006e 02D1     		bne	.L65
 790:Middlewares/ST/STM32_USB_Host_Library/Core/Src/usbh_ctlreq.c ****           }
 568              		.loc 1 790 13 is_stmt 1 view .LVU187
 790:Middlewares/ST/STM32_USB_Host_Library/Core/Src/usbh_ctlreq.c ****           }
 569              		.loc 1 790 34 is_stmt 0 view .LVU188
 570 0070 0723     		movs	r3, #7
 571              	.LVL37:
 790:Middlewares/ST/STM32_USB_Host_Library/Core/Src/usbh_ctlreq.c ****           }
 572              		.loc 1 790 34 view .LVU189
 573 0072 2376     		strb	r3, [r4, #24]
 574 0074 DBE7     		b	.L28
 575              	.LVL38:
 576              	.L65:
 785:Middlewares/ST/STM32_USB_Host_Library/Core/Src/usbh_ctlreq.c ****           }
 577              		.loc 1 785 13 is_stmt 1 view .LVU190
 785:Middlewares/ST/STM32_USB_Host_Library/Core/Src/usbh_ctlreq.c ****           }
 578              		.loc 1 785 34 is_stmt 0 view .LVU191
 579 0076 0923     		movs	r3, #9
 580              	.LVL39:
 785:Middlewares/ST/STM32_USB_Host_Library/Core/Src/usbh_ctlreq.c ****           }
 581              		.loc 1 785 34 view .LVU192
 582 0078 2376     		strb	r3, [r4, #24]
 583 007a D8E7     		b	.L28
 584              	.LVL40:
 585              	.L38:
 823:Middlewares/ST/STM32_USB_Host_Library/Core/Src/usbh_ctlreq.c ****       (void)USBH_CtlReceiveData(phost, phost->Control.buff,
 586              		.loc 1 823 7 is_stmt 1 view .LVU193
 823:Middlewares/ST/STM32_USB_Host_Library/Core/Src/usbh_ctlreq.c ****       (void)USBH_CtlReceiveData(phost, phost->Control.buff,
 587              		.loc 1 823 45 is_stmt 0 view .LVU194
 588 007c D0F8C433 		ldr	r3, [r0, #964]
 823:Middlewares/ST/STM32_USB_Host_Library/Core/Src/usbh_ctlreq.c ****       (void)USBH_CtlReceiveData(phost, phost->Control.buff,
 589              		.loc 1 823 28 view .LVU195
 590 0080 C381     		strh	r3, [r0, #14]	@ movhi
 824:Middlewares/ST/STM32_USB_Host_Library/Core/Src/usbh_ctlreq.c ****                                 phost->Control.length, phost->Control.pipe_in);
 591              		.loc 1 824 7 is_stmt 1 view .LVU196
 824:Middlewares/ST/STM32_USB_Host_Library/Core/Src/usbh_ctlreq.c ****                                 phost->Control.length, phost->Control.pipe_in);
 592              		.loc 1 824 13 is_stmt 0 view .LVU197
 593 0082 0379     		ldrb	r3, [r0, #4]	@ zero_extendqisi2
 594 0084 8289     		ldrh	r2, [r0, #12]
 595 0086 8168     		ldr	r1, [r0, #8]
 596 0088 FFF7FEFF 		bl	USBH_CtlReceiveData
 597              	.LVL41:
 827:Middlewares/ST/STM32_USB_Host_Library/Core/Src/usbh_ctlreq.c ****       break;
 598              		.loc 1 827 7 is_stmt 1 view .LVU198
ARM GAS  /tmp/ccXc1b7R.s 			page 32


 827:Middlewares/ST/STM32_USB_Host_Library/Core/Src/usbh_ctlreq.c ****       break;
 599              		.loc 1 827 28 is_stmt 0 view .LVU199
 600 008c 0423     		movs	r3, #4
 601 008e 2376     		strb	r3, [r4, #24]
 828:Middlewares/ST/STM32_USB_Host_Library/Core/Src/usbh_ctlreq.c **** 
 602              		.loc 1 828 7 is_stmt 1 view .LVU200
 743:Middlewares/ST/STM32_USB_Host_Library/Core/Src/usbh_ctlreq.c ****   USBH_URBStateTypeDef URB_Status = USBH_URB_IDLE;
 603              		.loc 1 743 22 is_stmt 0 view .LVU201
 604 0090 0125     		movs	r5, #1
 828:Middlewares/ST/STM32_USB_Host_Library/Core/Src/usbh_ctlreq.c **** 
 605              		.loc 1 828 7 view .LVU202
 606 0092 CCE7     		b	.L28
 607              	.LVL42:
 608              	.L37:
 832:Middlewares/ST/STM32_USB_Host_Library/Core/Src/usbh_ctlreq.c **** 
 609              		.loc 1 832 7 is_stmt 1 view .LVU203
 832:Middlewares/ST/STM32_USB_Host_Library/Core/Src/usbh_ctlreq.c **** 
 610              		.loc 1 832 20 is_stmt 0 view .LVU204
 611 0094 0179     		ldrb	r1, [r0, #4]	@ zero_extendqisi2
 612 0096 FFF7FEFF 		bl	USBH_LL_GetURBState
 613              	.LVL43:
 835:Middlewares/ST/STM32_USB_Host_Library/Core/Src/usbh_ctlreq.c ****       {
 614              		.loc 1 835 7 is_stmt 1 view .LVU205
 835:Middlewares/ST/STM32_USB_Host_Library/Core/Src/usbh_ctlreq.c ****       {
 615              		.loc 1 835 10 is_stmt 0 view .LVU206
 616 009a 0128     		cmp	r0, #1
 617 009c 06D0     		beq	.L66
 850:Middlewares/ST/STM32_USB_Host_Library/Core/Src/usbh_ctlreq.c ****       {
 618              		.loc 1 850 7 is_stmt 1 view .LVU207
 850:Middlewares/ST/STM32_USB_Host_Library/Core/Src/usbh_ctlreq.c ****       {
 619              		.loc 1 850 10 is_stmt 0 view .LVU208
 620 009e 0528     		cmp	r0, #5
 621 00a0 00F09780 		beq	.L57
 622              	.L46:
 866:Middlewares/ST/STM32_USB_Host_Library/Core/Src/usbh_ctlreq.c ****         {
 623              		.loc 1 866 9 is_stmt 1 view .LVU209
 866:Middlewares/ST/STM32_USB_Host_Library/Core/Src/usbh_ctlreq.c ****         {
 624              		.loc 1 866 12 is_stmt 0 view .LVU210
 625 00a4 0428     		cmp	r0, #4
 626 00a6 04D0     		beq	.L67
 743:Middlewares/ST/STM32_USB_Host_Library/Core/Src/usbh_ctlreq.c ****   USBH_URBStateTypeDef URB_Status = USBH_URB_IDLE;
 627              		.loc 1 743 22 view .LVU211
 628 00a8 0125     		movs	r5, #1
 629 00aa C0E7     		b	.L28
 630              	.L66:
 837:Middlewares/ST/STM32_USB_Host_Library/Core/Src/usbh_ctlreq.c **** 
 631              		.loc 1 837 9 is_stmt 1 view .LVU212
 837:Middlewares/ST/STM32_USB_Host_Library/Core/Src/usbh_ctlreq.c **** 
 632              		.loc 1 837 30 is_stmt 0 view .LVU213
 633 00ac 0923     		movs	r3, #9
 634 00ae 2376     		strb	r3, [r4, #24]
 850:Middlewares/ST/STM32_USB_Host_Library/Core/Src/usbh_ctlreq.c ****       {
 635              		.loc 1 850 7 is_stmt 1 view .LVU214
 636 00b0 F8E7     		b	.L46
 637              	.L67:
 869:Middlewares/ST/STM32_USB_Host_Library/Core/Src/usbh_ctlreq.c **** 
 638              		.loc 1 869 11 view .LVU215
ARM GAS  /tmp/ccXc1b7R.s 			page 33


 869:Middlewares/ST/STM32_USB_Host_Library/Core/Src/usbh_ctlreq.c **** 
 639              		.loc 1 869 32 is_stmt 0 view .LVU216
 640 00b2 0B23     		movs	r3, #11
 641 00b4 2376     		strb	r3, [r4, #24]
 743:Middlewares/ST/STM32_USB_Host_Library/Core/Src/usbh_ctlreq.c ****   USBH_URBStateTypeDef URB_Status = USBH_URB_IDLE;
 642              		.loc 1 743 22 view .LVU217
 643 00b6 0125     		movs	r5, #1
 644 00b8 B9E7     		b	.L28
 645              	.LVL44:
 646              	.L36:
 885:Middlewares/ST/STM32_USB_Host_Library/Core/Src/usbh_ctlreq.c ****                              phost->Control.pipe_out, 1U);
 647              		.loc 1 885 7 is_stmt 1 view .LVU218
 885:Middlewares/ST/STM32_USB_Host_Library/Core/Src/usbh_ctlreq.c ****                              phost->Control.pipe_out, 1U);
 648              		.loc 1 885 13 is_stmt 0 view .LVU219
 649 00ba 0125     		movs	r5, #1
 650 00bc 0095     		str	r5, [sp]
 651 00be 4379     		ldrb	r3, [r0, #5]	@ zero_extendqisi2
 652 00c0 8289     		ldrh	r2, [r0, #12]
 653 00c2 8168     		ldr	r1, [r0, #8]
 654 00c4 FFF7FEFF 		bl	USBH_CtlSendData
 655              	.LVL45:
 888:Middlewares/ST/STM32_USB_Host_Library/Core/Src/usbh_ctlreq.c ****       phost->Control.state = CTRL_DATA_OUT_WAIT;
 656              		.loc 1 888 7 is_stmt 1 view .LVU220
 888:Middlewares/ST/STM32_USB_Host_Library/Core/Src/usbh_ctlreq.c ****       phost->Control.state = CTRL_DATA_OUT_WAIT;
 657              		.loc 1 888 45 is_stmt 0 view .LVU221
 658 00c8 D4F8C433 		ldr	r3, [r4, #964]
 888:Middlewares/ST/STM32_USB_Host_Library/Core/Src/usbh_ctlreq.c ****       phost->Control.state = CTRL_DATA_OUT_WAIT;
 659              		.loc 1 888 28 view .LVU222
 660 00cc E381     		strh	r3, [r4, #14]	@ movhi
 889:Middlewares/ST/STM32_USB_Host_Library/Core/Src/usbh_ctlreq.c ****       break;
 661              		.loc 1 889 7 is_stmt 1 view .LVU223
 889:Middlewares/ST/STM32_USB_Host_Library/Core/Src/usbh_ctlreq.c ****       break;
 662              		.loc 1 889 28 is_stmt 0 view .LVU224
 663 00ce 0623     		movs	r3, #6
 664 00d0 2376     		strb	r3, [r4, #24]
 890:Middlewares/ST/STM32_USB_Host_Library/Core/Src/usbh_ctlreq.c **** 
 665              		.loc 1 890 7 is_stmt 1 view .LVU225
 666 00d2 ACE7     		b	.L28
 667              	.LVL46:
 668              	.L35:
 894:Middlewares/ST/STM32_USB_Host_Library/Core/Src/usbh_ctlreq.c **** 
 669              		.loc 1 894 7 view .LVU226
 894:Middlewares/ST/STM32_USB_Host_Library/Core/Src/usbh_ctlreq.c **** 
 670              		.loc 1 894 20 is_stmt 0 view .LVU227
 671 00d4 4179     		ldrb	r1, [r0, #5]	@ zero_extendqisi2
 672 00d6 FFF7FEFF 		bl	USBH_LL_GetURBState
 673              	.LVL47:
 894:Middlewares/ST/STM32_USB_Host_Library/Core/Src/usbh_ctlreq.c **** 
 674              		.loc 1 894 20 view .LVU228
 675 00da 0546     		mov	r5, r0
 676              	.LVL48:
 896:Middlewares/ST/STM32_USB_Host_Library/Core/Src/usbh_ctlreq.c ****       {
 677              		.loc 1 896 7 is_stmt 1 view .LVU229
 896:Middlewares/ST/STM32_USB_Host_Library/Core/Src/usbh_ctlreq.c ****       {
 678              		.loc 1 896 10 is_stmt 0 view .LVU230
 679 00dc 0128     		cmp	r0, #1
 680 00de 07D0     		beq	.L68
ARM GAS  /tmp/ccXc1b7R.s 			page 34


 912:Middlewares/ST/STM32_USB_Host_Library/Core/Src/usbh_ctlreq.c ****       {
 681              		.loc 1 912 12 is_stmt 1 view .LVU231
 912:Middlewares/ST/STM32_USB_Host_Library/Core/Src/usbh_ctlreq.c ****       {
 682              		.loc 1 912 15 is_stmt 0 view .LVU232
 683 00e0 0528     		cmp	r0, #5
 684 00e2 08D0     		beq	.L69
 927:Middlewares/ST/STM32_USB_Host_Library/Core/Src/usbh_ctlreq.c ****       {
 685              		.loc 1 927 12 is_stmt 1 view .LVU233
 927:Middlewares/ST/STM32_USB_Host_Library/Core/Src/usbh_ctlreq.c ****       {
 686              		.loc 1 927 15 is_stmt 0 view .LVU234
 687 00e4 0228     		cmp	r0, #2
 688 00e6 0AD0     		beq	.L70
 943:Middlewares/ST/STM32_USB_Host_Library/Core/Src/usbh_ctlreq.c ****         {
 689              		.loc 1 943 9 is_stmt 1 view .LVU235
 943:Middlewares/ST/STM32_USB_Host_Library/Core/Src/usbh_ctlreq.c ****         {
 690              		.loc 1 943 12 is_stmt 0 view .LVU236
 691 00e8 0428     		cmp	r0, #4
 692 00ea 0CD0     		beq	.L71
 743:Middlewares/ST/STM32_USB_Host_Library/Core/Src/usbh_ctlreq.c ****   USBH_URBStateTypeDef URB_Status = USBH_URB_IDLE;
 693              		.loc 1 743 22 view .LVU237
 694 00ec 0125     		movs	r5, #1
 695 00ee 9EE7     		b	.L28
 696              	.L68:
 899:Middlewares/ST/STM32_USB_Host_Library/Core/Src/usbh_ctlreq.c **** 
 697              		.loc 1 899 9 is_stmt 1 view .LVU238
 899:Middlewares/ST/STM32_USB_Host_Library/Core/Src/usbh_ctlreq.c **** 
 698              		.loc 1 899 30 is_stmt 0 view .LVU239
 699 00f0 0723     		movs	r3, #7
 700 00f2 2376     		strb	r3, [r4, #24]
 701 00f4 9BE7     		b	.L28
 702              	.L69:
 915:Middlewares/ST/STM32_USB_Host_Library/Core/Src/usbh_ctlreq.c ****         status = USBH_NOT_SUPPORTED;
 703              		.loc 1 915 9 is_stmt 1 view .LVU240
 915:Middlewares/ST/STM32_USB_Host_Library/Core/Src/usbh_ctlreq.c ****         status = USBH_NOT_SUPPORTED;
 704              		.loc 1 915 30 is_stmt 0 view .LVU241
 705 00f6 0C23     		movs	r3, #12
 706 00f8 2376     		strb	r3, [r4, #24]
 916:Middlewares/ST/STM32_USB_Host_Library/Core/Src/usbh_ctlreq.c **** 
 707              		.loc 1 916 9 is_stmt 1 view .LVU242
 708              	.LVL49:
 916:Middlewares/ST/STM32_USB_Host_Library/Core/Src/usbh_ctlreq.c **** 
 709              		.loc 1 916 16 is_stmt 0 view .LVU243
 710 00fa 0325     		movs	r5, #3
 711 00fc 97E7     		b	.L28
 712              	.LVL50:
 713              	.L70:
 930:Middlewares/ST/STM32_USB_Host_Library/Core/Src/usbh_ctlreq.c **** 
 714              		.loc 1 930 9 is_stmt 1 view .LVU244
 930:Middlewares/ST/STM32_USB_Host_Library/Core/Src/usbh_ctlreq.c **** 
 715              		.loc 1 930 30 is_stmt 0 view .LVU245
 716 00fe 0523     		movs	r3, #5
 717 0100 2376     		strb	r3, [r4, #24]
 743:Middlewares/ST/STM32_USB_Host_Library/Core/Src/usbh_ctlreq.c ****   USBH_URBStateTypeDef URB_Status = USBH_URB_IDLE;
 718              		.loc 1 743 22 view .LVU246
 719 0102 0125     		movs	r5, #1
 720 0104 93E7     		b	.L28
 721              	.L71:
ARM GAS  /tmp/ccXc1b7R.s 			page 35


 946:Middlewares/ST/STM32_USB_Host_Library/Core/Src/usbh_ctlreq.c ****           status = USBH_FAIL;
 722              		.loc 1 946 11 is_stmt 1 view .LVU247
 946:Middlewares/ST/STM32_USB_Host_Library/Core/Src/usbh_ctlreq.c ****           status = USBH_FAIL;
 723              		.loc 1 946 32 is_stmt 0 view .LVU248
 724 0106 0B23     		movs	r3, #11
 725 0108 2376     		strb	r3, [r4, #24]
 947:Middlewares/ST/STM32_USB_Host_Library/Core/Src/usbh_ctlreq.c **** 
 726              		.loc 1 947 11 is_stmt 1 view .LVU249
 727              	.LVL51:
 947:Middlewares/ST/STM32_USB_Host_Library/Core/Src/usbh_ctlreq.c **** 
 728              		.loc 1 947 18 is_stmt 0 view .LVU250
 729 010a 0225     		movs	r5, #2
 730 010c 8FE7     		b	.L28
 731              	.LVL52:
 732              	.L34:
 963:Middlewares/ST/STM32_USB_Host_Library/Core/Src/usbh_ctlreq.c **** 
 733              		.loc 1 963 7 is_stmt 1 view .LVU251
 963:Middlewares/ST/STM32_USB_Host_Library/Core/Src/usbh_ctlreq.c **** 
 734              		.loc 1 963 13 is_stmt 0 view .LVU252
 735 010e 0379     		ldrb	r3, [r0, #4]	@ zero_extendqisi2
 736 0110 0022     		movs	r2, #0
 737 0112 1146     		mov	r1, r2
 738 0114 FFF7FEFF 		bl	USBH_CtlReceiveData
 739              	.LVL53:
 965:Middlewares/ST/STM32_USB_Host_Library/Core/Src/usbh_ctlreq.c ****       phost->Control.state = CTRL_STATUS_IN_WAIT;
 740              		.loc 1 965 7 is_stmt 1 view .LVU253
 965:Middlewares/ST/STM32_USB_Host_Library/Core/Src/usbh_ctlreq.c ****       phost->Control.state = CTRL_STATUS_IN_WAIT;
 741              		.loc 1 965 45 is_stmt 0 view .LVU254
 742 0118 D4F8C433 		ldr	r3, [r4, #964]
 965:Middlewares/ST/STM32_USB_Host_Library/Core/Src/usbh_ctlreq.c ****       phost->Control.state = CTRL_STATUS_IN_WAIT;
 743              		.loc 1 965 28 view .LVU255
 744 011c E381     		strh	r3, [r4, #14]	@ movhi
 966:Middlewares/ST/STM32_USB_Host_Library/Core/Src/usbh_ctlreq.c **** 
 745              		.loc 1 966 7 is_stmt 1 view .LVU256
 966:Middlewares/ST/STM32_USB_Host_Library/Core/Src/usbh_ctlreq.c **** 
 746              		.loc 1 966 28 is_stmt 0 view .LVU257
 747 011e 0823     		movs	r3, #8
 748 0120 2376     		strb	r3, [r4, #24]
 968:Middlewares/ST/STM32_USB_Host_Library/Core/Src/usbh_ctlreq.c **** 
 749              		.loc 1 968 7 is_stmt 1 view .LVU258
 743:Middlewares/ST/STM32_USB_Host_Library/Core/Src/usbh_ctlreq.c ****   USBH_URBStateTypeDef URB_Status = USBH_URB_IDLE;
 750              		.loc 1 743 22 is_stmt 0 view .LVU259
 751 0122 0125     		movs	r5, #1
 968:Middlewares/ST/STM32_USB_Host_Library/Core/Src/usbh_ctlreq.c **** 
 752              		.loc 1 968 7 view .LVU260
 753 0124 83E7     		b	.L28
 754              	.LVL54:
 755              	.L33:
 972:Middlewares/ST/STM32_USB_Host_Library/Core/Src/usbh_ctlreq.c **** 
 756              		.loc 1 972 7 is_stmt 1 view .LVU261
 972:Middlewares/ST/STM32_USB_Host_Library/Core/Src/usbh_ctlreq.c **** 
 757              		.loc 1 972 20 is_stmt 0 view .LVU262
 758 0126 0179     		ldrb	r1, [r0, #4]	@ zero_extendqisi2
 759 0128 FFF7FEFF 		bl	USBH_LL_GetURBState
 760              	.LVL55:
 974:Middlewares/ST/STM32_USB_Host_Library/Core/Src/usbh_ctlreq.c ****       {
 761              		.loc 1 974 7 is_stmt 1 view .LVU263
ARM GAS  /tmp/ccXc1b7R.s 			page 36


 974:Middlewares/ST/STM32_USB_Host_Library/Core/Src/usbh_ctlreq.c ****       {
 762              		.loc 1 974 10 is_stmt 0 view .LVU264
 763 012c 0128     		cmp	r0, #1
 764 012e 05D0     		beq	.L72
 989:Middlewares/ST/STM32_USB_Host_Library/Core/Src/usbh_ctlreq.c ****       {
 765              		.loc 1 989 12 is_stmt 1 view .LVU265
 989:Middlewares/ST/STM32_USB_Host_Library/Core/Src/usbh_ctlreq.c ****       {
 766              		.loc 1 989 15 is_stmt 0 view .LVU266
 767 0130 0428     		cmp	r0, #4
 768 0132 07D0     		beq	.L73
1004:Middlewares/ST/STM32_USB_Host_Library/Core/Src/usbh_ctlreq.c ****         {
 769              		.loc 1 1004 9 is_stmt 1 view .LVU267
1004:Middlewares/ST/STM32_USB_Host_Library/Core/Src/usbh_ctlreq.c ****         {
 770              		.loc 1 1004 12 is_stmt 0 view .LVU268
 771 0134 0528     		cmp	r0, #5
 772 0136 4ED0     		beq	.L60
 743:Middlewares/ST/STM32_USB_Host_Library/Core/Src/usbh_ctlreq.c ****   USBH_URBStateTypeDef URB_Status = USBH_URB_IDLE;
 773              		.loc 1 743 22 view .LVU269
 774 0138 0125     		movs	r5, #1
 775 013a 78E7     		b	.L28
 776              	.L72:
 977:Middlewares/ST/STM32_USB_Host_Library/Core/Src/usbh_ctlreq.c ****         status = USBH_OK;
 777              		.loc 1 977 9 is_stmt 1 view .LVU270
 977:Middlewares/ST/STM32_USB_Host_Library/Core/Src/usbh_ctlreq.c ****         status = USBH_OK;
 778              		.loc 1 977 30 is_stmt 0 view .LVU271
 779 013c 0D23     		movs	r3, #13
 780 013e 2376     		strb	r3, [r4, #24]
 978:Middlewares/ST/STM32_USB_Host_Library/Core/Src/usbh_ctlreq.c **** 
 781              		.loc 1 978 9 is_stmt 1 view .LVU272
 782              	.LVL56:
 978:Middlewares/ST/STM32_USB_Host_Library/Core/Src/usbh_ctlreq.c **** 
 783              		.loc 1 978 16 is_stmt 0 view .LVU273
 784 0140 0025     		movs	r5, #0
 785 0142 74E7     		b	.L28
 786              	.LVL57:
 787              	.L73:
 991:Middlewares/ST/STM32_USB_Host_Library/Core/Src/usbh_ctlreq.c **** 
 788              		.loc 1 991 9 is_stmt 1 view .LVU274
 991:Middlewares/ST/STM32_USB_Host_Library/Core/Src/usbh_ctlreq.c **** 
 789              		.loc 1 991 30 is_stmt 0 view .LVU275
 790 0144 0B23     		movs	r3, #11
 791 0146 2376     		strb	r3, [r4, #24]
 743:Middlewares/ST/STM32_USB_Host_Library/Core/Src/usbh_ctlreq.c ****   USBH_URBStateTypeDef URB_Status = USBH_URB_IDLE;
 792              		.loc 1 743 22 view .LVU276
 793 0148 0125     		movs	r5, #1
 794 014a 70E7     		b	.L28
 795              	.LVL58:
 796              	.L32:
1022:Middlewares/ST/STM32_USB_Host_Library/Core/Src/usbh_ctlreq.c **** 
 797              		.loc 1 1022 7 is_stmt 1 view .LVU277
1022:Middlewares/ST/STM32_USB_Host_Library/Core/Src/usbh_ctlreq.c **** 
 798              		.loc 1 1022 13 is_stmt 0 view .LVU278
 799 014c 0125     		movs	r5, #1
 800 014e 0095     		str	r5, [sp]
 801 0150 4379     		ldrb	r3, [r0, #5]	@ zero_extendqisi2
 802 0152 0022     		movs	r2, #0
 803 0154 1146     		mov	r1, r2
ARM GAS  /tmp/ccXc1b7R.s 			page 37


 804 0156 FFF7FEFF 		bl	USBH_CtlSendData
 805              	.LVL59:
1024:Middlewares/ST/STM32_USB_Host_Library/Core/Src/usbh_ctlreq.c ****       phost->Control.state = CTRL_STATUS_OUT_WAIT;
 806              		.loc 1 1024 7 is_stmt 1 view .LVU279
1024:Middlewares/ST/STM32_USB_Host_Library/Core/Src/usbh_ctlreq.c ****       phost->Control.state = CTRL_STATUS_OUT_WAIT;
 807              		.loc 1 1024 45 is_stmt 0 view .LVU280
 808 015a D4F8C433 		ldr	r3, [r4, #964]
1024:Middlewares/ST/STM32_USB_Host_Library/Core/Src/usbh_ctlreq.c ****       phost->Control.state = CTRL_STATUS_OUT_WAIT;
 809              		.loc 1 1024 28 view .LVU281
 810 015e E381     		strh	r3, [r4, #14]	@ movhi
1025:Middlewares/ST/STM32_USB_Host_Library/Core/Src/usbh_ctlreq.c ****       break;
 811              		.loc 1 1025 7 is_stmt 1 view .LVU282
1025:Middlewares/ST/STM32_USB_Host_Library/Core/Src/usbh_ctlreq.c ****       break;
 812              		.loc 1 1025 28 is_stmt 0 view .LVU283
 813 0160 0A23     		movs	r3, #10
 814 0162 2376     		strb	r3, [r4, #24]
1026:Middlewares/ST/STM32_USB_Host_Library/Core/Src/usbh_ctlreq.c **** 
 815              		.loc 1 1026 7 is_stmt 1 view .LVU284
 816 0164 63E7     		b	.L28
 817              	.LVL60:
 818              	.L31:
1029:Middlewares/ST/STM32_USB_Host_Library/Core/Src/usbh_ctlreq.c ****       if (URB_Status == USBH_URB_DONE)
 819              		.loc 1 1029 7 view .LVU285
1029:Middlewares/ST/STM32_USB_Host_Library/Core/Src/usbh_ctlreq.c ****       if (URB_Status == USBH_URB_DONE)
 820              		.loc 1 1029 20 is_stmt 0 view .LVU286
 821 0166 4179     		ldrb	r1, [r0, #5]	@ zero_extendqisi2
 822 0168 FFF7FEFF 		bl	USBH_LL_GetURBState
 823              	.LVL61:
1030:Middlewares/ST/STM32_USB_Host_Library/Core/Src/usbh_ctlreq.c ****       {
 824              		.loc 1 1030 7 is_stmt 1 view .LVU287
1030:Middlewares/ST/STM32_USB_Host_Library/Core/Src/usbh_ctlreq.c ****       {
 825              		.loc 1 1030 10 is_stmt 0 view .LVU288
 826 016c 0128     		cmp	r0, #1
 827 016e 05D0     		beq	.L74
1044:Middlewares/ST/STM32_USB_Host_Library/Core/Src/usbh_ctlreq.c ****       {
 828              		.loc 1 1044 12 is_stmt 1 view .LVU289
1044:Middlewares/ST/STM32_USB_Host_Library/Core/Src/usbh_ctlreq.c ****       {
 829              		.loc 1 1044 15 is_stmt 0 view .LVU290
 830 0170 0228     		cmp	r0, #2
 831 0172 07D0     		beq	.L75
1059:Middlewares/ST/STM32_USB_Host_Library/Core/Src/usbh_ctlreq.c ****         {
 832              		.loc 1 1059 9 is_stmt 1 view .LVU291
1059:Middlewares/ST/STM32_USB_Host_Library/Core/Src/usbh_ctlreq.c ****         {
 833              		.loc 1 1059 12 is_stmt 0 view .LVU292
 834 0174 0428     		cmp	r0, #4
 835 0176 09D0     		beq	.L76
 743:Middlewares/ST/STM32_USB_Host_Library/Core/Src/usbh_ctlreq.c ****   USBH_URBStateTypeDef URB_Status = USBH_URB_IDLE;
 836              		.loc 1 743 22 view .LVU293
 837 0178 0125     		movs	r5, #1
 838 017a 58E7     		b	.L28
 839              	.L74:
1032:Middlewares/ST/STM32_USB_Host_Library/Core/Src/usbh_ctlreq.c ****         phost->Control.state = CTRL_COMPLETE;
 840              		.loc 1 1032 9 is_stmt 1 view .LVU294
 841              	.LVL62:
1033:Middlewares/ST/STM32_USB_Host_Library/Core/Src/usbh_ctlreq.c **** 
 842              		.loc 1 1033 9 view .LVU295
1033:Middlewares/ST/STM32_USB_Host_Library/Core/Src/usbh_ctlreq.c **** 
ARM GAS  /tmp/ccXc1b7R.s 			page 38


 843              		.loc 1 1033 30 is_stmt 0 view .LVU296
 844 017c 0D23     		movs	r3, #13
 845 017e 2376     		strb	r3, [r4, #24]
1032:Middlewares/ST/STM32_USB_Host_Library/Core/Src/usbh_ctlreq.c ****         phost->Control.state = CTRL_COMPLETE;
 846              		.loc 1 1032 16 view .LVU297
 847 0180 0025     		movs	r5, #0
 848 0182 54E7     		b	.L28
 849              	.LVL63:
 850              	.L75:
1046:Middlewares/ST/STM32_USB_Host_Library/Core/Src/usbh_ctlreq.c **** 
 851              		.loc 1 1046 9 is_stmt 1 view .LVU298
1046:Middlewares/ST/STM32_USB_Host_Library/Core/Src/usbh_ctlreq.c **** 
 852              		.loc 1 1046 30 is_stmt 0 view .LVU299
 853 0184 0923     		movs	r3, #9
 854 0186 2376     		strb	r3, [r4, #24]
 743:Middlewares/ST/STM32_USB_Host_Library/Core/Src/usbh_ctlreq.c ****   USBH_URBStateTypeDef URB_Status = USBH_URB_IDLE;
 855              		.loc 1 743 22 view .LVU300
 856 0188 0125     		movs	r5, #1
 857 018a 50E7     		b	.L28
 858              	.L76:
1061:Middlewares/ST/STM32_USB_Host_Library/Core/Src/usbh_ctlreq.c **** 
 859              		.loc 1 1061 11 is_stmt 1 view .LVU301
1061:Middlewares/ST/STM32_USB_Host_Library/Core/Src/usbh_ctlreq.c **** 
 860              		.loc 1 1061 32 is_stmt 0 view .LVU302
 861 018c 0B23     		movs	r3, #11
 862 018e 2376     		strb	r3, [r4, #24]
 743:Middlewares/ST/STM32_USB_Host_Library/Core/Src/usbh_ctlreq.c ****   USBH_URBStateTypeDef URB_Status = USBH_URB_IDLE;
 863              		.loc 1 743 22 view .LVU303
 864 0190 0125     		movs	r5, #1
 865 0192 4CE7     		b	.L28
 866              	.LVL64:
 867              	.L29:
1084:Middlewares/ST/STM32_USB_Host_Library/Core/Src/usbh_ctlreq.c ****       {
 868              		.loc 1 1084 7 is_stmt 1 view .LVU304
1084:Middlewares/ST/STM32_USB_Host_Library/Core/Src/usbh_ctlreq.c ****       {
 869              		.loc 1 1084 27 is_stmt 0 view .LVU305
 870 0194 437E     		ldrb	r3, [r0, #25]	@ zero_extendqisi2
1084:Middlewares/ST/STM32_USB_Host_Library/Core/Src/usbh_ctlreq.c ****       {
 871              		.loc 1 1084 11 view .LVU306
 872 0196 0133     		adds	r3, r3, #1
 873 0198 DBB2     		uxtb	r3, r3
1084:Middlewares/ST/STM32_USB_Host_Library/Core/Src/usbh_ctlreq.c ****       {
 874              		.loc 1 1084 10 view .LVU307
 875 019a 4376     		strb	r3, [r0, #25]
 876 019c 022B     		cmp	r3, #2
 877 019e 03D8     		bhi	.L54
1087:Middlewares/ST/STM32_USB_Host_Library/Core/Src/usbh_ctlreq.c ****         phost->RequestState = CMD_SEND;
 878              		.loc 1 1087 9 is_stmt 1 view .LVU308
1087:Middlewares/ST/STM32_USB_Host_Library/Core/Src/usbh_ctlreq.c ****         phost->RequestState = CMD_SEND;
 879              		.loc 1 1087 30 is_stmt 0 view .LVU309
 880 01a0 0125     		movs	r5, #1
 881 01a2 0576     		strb	r5, [r0, #24]
1088:Middlewares/ST/STM32_USB_Host_Library/Core/Src/usbh_ctlreq.c ****       }
 882              		.loc 1 1088 9 is_stmt 1 view .LVU310
1088:Middlewares/ST/STM32_USB_Host_Library/Core/Src/usbh_ctlreq.c ****       }
 883              		.loc 1 1088 29 is_stmt 0 view .LVU311
 884 01a4 8570     		strb	r5, [r0, #2]
ARM GAS  /tmp/ccXc1b7R.s 			page 39


 885 01a6 42E7     		b	.L28
 886              	.L54:
1092:Middlewares/ST/STM32_USB_Host_Library/Core/Src/usbh_ctlreq.c ****         phost->Control.errorcount = 0U;
 887              		.loc 1 1092 9 is_stmt 1 view .LVU312
1092:Middlewares/ST/STM32_USB_Host_Library/Core/Src/usbh_ctlreq.c ****         phost->Control.errorcount = 0U;
 888              		.loc 1 1092 14 is_stmt 0 view .LVU313
 889 01a8 D0F8D433 		ldr	r3, [r0, #980]
1092:Middlewares/ST/STM32_USB_Host_Library/Core/Src/usbh_ctlreq.c ****         phost->Control.errorcount = 0U;
 890              		.loc 1 1092 9 view .LVU314
 891 01ac 0621     		movs	r1, #6
 892 01ae 9847     		blx	r3
 893              	.LVL65:
1093:Middlewares/ST/STM32_USB_Host_Library/Core/Src/usbh_ctlreq.c ****         USBH_ErrLog("Control error: Device not responding");
 894              		.loc 1 1093 9 is_stmt 1 view .LVU315
1093:Middlewares/ST/STM32_USB_Host_Library/Core/Src/usbh_ctlreq.c ****         USBH_ErrLog("Control error: Device not responding");
 895              		.loc 1 1093 35 is_stmt 0 view .LVU316
 896 01b0 0025     		movs	r5, #0
 897 01b2 6576     		strb	r5, [r4, #25]
1094:Middlewares/ST/STM32_USB_Host_Library/Core/Src/usbh_ctlreq.c **** 
 898              		.loc 1 1094 9 is_stmt 1 view .LVU317
1094:Middlewares/ST/STM32_USB_Host_Library/Core/Src/usbh_ctlreq.c **** 
 899              		.loc 1 1094 9 view .LVU318
1094:Middlewares/ST/STM32_USB_Host_Library/Core/Src/usbh_ctlreq.c **** 
 900              		.loc 1 1094 9 view .LVU319
1097:Middlewares/ST/STM32_USB_Host_Library/Core/Src/usbh_ctlreq.c ****         (void)USBH_FreePipe(phost, phost->Control.pipe_in);
 901              		.loc 1 1097 9 view .LVU320
1097:Middlewares/ST/STM32_USB_Host_Library/Core/Src/usbh_ctlreq.c ****         (void)USBH_FreePipe(phost, phost->Control.pipe_in);
 902              		.loc 1 1097 15 is_stmt 0 view .LVU321
 903 01b4 6179     		ldrb	r1, [r4, #5]	@ zero_extendqisi2
 904 01b6 2046     		mov	r0, r4
 905 01b8 FFF7FEFF 		bl	USBH_FreePipe
 906              	.LVL66:
1098:Middlewares/ST/STM32_USB_Host_Library/Core/Src/usbh_ctlreq.c **** 
 907              		.loc 1 1098 9 is_stmt 1 view .LVU322
1098:Middlewares/ST/STM32_USB_Host_Library/Core/Src/usbh_ctlreq.c **** 
 908              		.loc 1 1098 15 is_stmt 0 view .LVU323
 909 01bc 2179     		ldrb	r1, [r4, #4]	@ zero_extendqisi2
 910 01be 2046     		mov	r0, r4
 911 01c0 FFF7FEFF 		bl	USBH_FreePipe
 912              	.LVL67:
1100:Middlewares/ST/STM32_USB_Host_Library/Core/Src/usbh_ctlreq.c ****         status = USBH_FAIL;
 913              		.loc 1 1100 9 is_stmt 1 view .LVU324
1100:Middlewares/ST/STM32_USB_Host_Library/Core/Src/usbh_ctlreq.c ****         status = USBH_FAIL;
 914              		.loc 1 1100 23 is_stmt 0 view .LVU325
 915 01c4 2570     		strb	r5, [r4]
1101:Middlewares/ST/STM32_USB_Host_Library/Core/Src/usbh_ctlreq.c ****       }
 916              		.loc 1 1101 9 is_stmt 1 view .LVU326
 917              	.LVL68:
1101:Middlewares/ST/STM32_USB_Host_Library/Core/Src/usbh_ctlreq.c ****       }
 918              		.loc 1 1101 16 is_stmt 0 view .LVU327
 919 01c6 0225     		movs	r5, #2
 920 01c8 31E7     		b	.L28
 921              	.LVL69:
 922              	.L55:
 746:Middlewares/ST/STM32_USB_Host_Library/Core/Src/usbh_ctlreq.c ****   {
 923              		.loc 1 746 3 view .LVU328
 924 01ca 0125     		movs	r5, #1
ARM GAS  /tmp/ccXc1b7R.s 			page 40


 925 01cc 2FE7     		b	.L28
 926              	.LVL70:
 927              	.L56:
 743:Middlewares/ST/STM32_USB_Host_Library/Core/Src/usbh_ctlreq.c ****   USBH_URBStateTypeDef URB_Status = USBH_URB_IDLE;
 928              		.loc 1 743 22 view .LVU329
 929 01ce 0125     		movs	r5, #1
 930 01d0 2DE7     		b	.L28
 931              	.L57:
 853:Middlewares/ST/STM32_USB_Host_Library/Core/Src/usbh_ctlreq.c **** 
 932              		.loc 1 853 16 view .LVU330
 933 01d2 0325     		movs	r5, #3
 934 01d4 2BE7     		b	.L28
 935              	.L60:
1007:Middlewares/ST/STM32_USB_Host_Library/Core/Src/usbh_ctlreq.c **** 
 936              		.loc 1 1007 18 view .LVU331
 937 01d6 0325     		movs	r5, #3
 938 01d8 29E7     		b	.L28
 939              		.cfi_endproc
 940              	.LFE160:
 942              		.section	.text.USBH_GetNextDesc,"ax",%progbits
 943              		.align	1
 944              		.global	USBH_GetNextDesc
 945              		.syntax unified
 946              		.thumb
 947              		.thumb_func
 949              	USBH_GetNextDesc:
 950              	.LVL71:
 951              	.LFB158:
 653:Middlewares/ST/STM32_USB_Host_Library/Core/Src/usbh_ctlreq.c ****   USBH_DescHeader_t  *pnext;
 952              		.loc 1 653 1 is_stmt 1 view -0
 953              		.cfi_startproc
 954              		@ args = 0, pretend = 0, frame = 0
 955              		@ frame_needed = 0, uses_anonymous_args = 0
 956              		@ link register save eliminated.
 654:Middlewares/ST/STM32_USB_Host_Library/Core/Src/usbh_ctlreq.c **** 
 957              		.loc 1 654 3 view .LVU333
 656:Middlewares/ST/STM32_USB_Host_Library/Core/Src/usbh_ctlreq.c ****   pnext = (USBH_DescHeader_t *)(void *)((uint8_t *)(void *)pbuf + \
 958              		.loc 1 656 3 view .LVU334
 959 0000 0B88     		ldrh	r3, [r1]
 656:Middlewares/ST/STM32_USB_Host_Library/Core/Src/usbh_ctlreq.c ****   pnext = (USBH_DescHeader_t *)(void *)((uint8_t *)(void *)pbuf + \
 960              		.loc 1 656 46 is_stmt 0 view .LVU335
 961 0002 0278     		ldrb	r2, [r0]	@ zero_extendqisi2
 656:Middlewares/ST/STM32_USB_Host_Library/Core/Src/usbh_ctlreq.c ****   pnext = (USBH_DescHeader_t *)(void *)((uint8_t *)(void *)pbuf + \
 962              		.loc 1 656 8 view .LVU336
 963 0004 1344     		add	r3, r3, r2
 964 0006 0B80     		strh	r3, [r1]	@ movhi
 657:Middlewares/ST/STM32_USB_Host_Library/Core/Src/usbh_ctlreq.c ****                                         ((USBH_DescHeader_t *)(void *)pbuf)->bLength);
 965              		.loc 1 657 3 is_stmt 1 view .LVU337
 658:Middlewares/ST/STM32_USB_Host_Library/Core/Src/usbh_ctlreq.c **** 
 966              		.loc 1 658 76 is_stmt 0 view .LVU338
 967 0008 0378     		ldrb	r3, [r0]	@ zero_extendqisi2
 968              	.LVL72:
 660:Middlewares/ST/STM32_USB_Host_Library/Core/Src/usbh_ctlreq.c **** }
 969              		.loc 1 660 3 is_stmt 1 view .LVU339
 661:Middlewares/ST/STM32_USB_Host_Library/Core/Src/usbh_ctlreq.c **** 
 970              		.loc 1 661 1 is_stmt 0 view .LVU340
 971 000a 1844     		add	r0, r0, r3
ARM GAS  /tmp/ccXc1b7R.s 			page 41


 972              	.LVL73:
 661:Middlewares/ST/STM32_USB_Host_Library/Core/Src/usbh_ctlreq.c **** 
 973              		.loc 1 661 1 view .LVU341
 974 000c 7047     		bx	lr
 975              		.cfi_endproc
 976              	.LFE158:
 978              		.section	.text.USBH_ParseCfgDesc,"ax",%progbits
 979              		.align	1
 980              		.syntax unified
 981              		.thumb
 982              		.thumb_func
 984              	USBH_ParseCfgDesc:
 985              	.LVL74:
 986              	.LFB154:
 402:Middlewares/ST/STM32_USB_Host_Library/Core/Src/usbh_ctlreq.c ****   USBH_CfgDescTypeDef *cfg_desc = &phost->device.CfgDesc;
 987              		.loc 1 402 1 is_stmt 1 view -0
 988              		.cfi_startproc
 989              		@ args = 0, pretend = 0, frame = 8
 990              		@ frame_needed = 0, uses_anonymous_args = 0
 402:Middlewares/ST/STM32_USB_Host_Library/Core/Src/usbh_ctlreq.c ****   USBH_CfgDescTypeDef *cfg_desc = &phost->device.CfgDesc;
 991              		.loc 1 402 1 is_stmt 0 view .LVU343
 992 0000 2DE9F043 		push	{r4, r5, r6, r7, r8, r9, lr}
 993              	.LCFI8:
 994              		.cfi_def_cfa_offset 28
 995              		.cfi_offset 4, -28
 996              		.cfi_offset 5, -24
 997              		.cfi_offset 6, -20
 998              		.cfi_offset 7, -16
 999              		.cfi_offset 8, -12
 1000              		.cfi_offset 9, -8
 1001              		.cfi_offset 14, -4
 1002 0004 83B0     		sub	sp, sp, #12
 1003              	.LCFI9:
 1004              		.cfi_def_cfa_offset 40
 1005 0006 0546     		mov	r5, r0
 1006 0008 0C46     		mov	r4, r1
 403:Middlewares/ST/STM32_USB_Host_Library/Core/Src/usbh_ctlreq.c ****   USBH_StatusTypeDef           status = USBH_OK;
 1007              		.loc 1 403 3 is_stmt 1 view .LVU344
 1008              	.LVL75:
 404:Middlewares/ST/STM32_USB_Host_Library/Core/Src/usbh_ctlreq.c ****   USBH_InterfaceDescTypeDef    *pif;
 1009              		.loc 1 404 3 view .LVU345
 405:Middlewares/ST/STM32_USB_Host_Library/Core/Src/usbh_ctlreq.c ****   USBH_EpDescTypeDef           *pep;
 1010              		.loc 1 405 3 view .LVU346
 406:Middlewares/ST/STM32_USB_Host_Library/Core/Src/usbh_ctlreq.c ****   USBH_DescHeader_t            *pdesc = (USBH_DescHeader_t *)(void *)buf;
 1011              		.loc 1 406 3 view .LVU347
 407:Middlewares/ST/STM32_USB_Host_Library/Core/Src/usbh_ctlreq.c ****   uint16_t                     ptr;
 1012              		.loc 1 407 3 view .LVU348
 408:Middlewares/ST/STM32_USB_Host_Library/Core/Src/usbh_ctlreq.c ****   uint8_t                      if_ix = 0U;
 1013              		.loc 1 408 3 view .LVU349
 409:Middlewares/ST/STM32_USB_Host_Library/Core/Src/usbh_ctlreq.c ****   uint8_t                      ep_ix = 0U;
 1014              		.loc 1 409 3 view .LVU350
 410:Middlewares/ST/STM32_USB_Host_Library/Core/Src/usbh_ctlreq.c **** 
 1015              		.loc 1 410 3 view .LVU351
 412:Middlewares/ST/STM32_USB_Host_Library/Core/Src/usbh_ctlreq.c **** 
 1016              		.loc 1 412 3 view .LVU352
 415:Middlewares/ST/STM32_USB_Host_Library/Core/Src/usbh_ctlreq.c ****   cfg_desc->bDescriptorType     = *(uint8_t *)(buf + 1);
 1017              		.loc 1 415 3 view .LVU353
ARM GAS  /tmp/ccXc1b7R.s 			page 42


 415:Middlewares/ST/STM32_USB_Host_Library/Core/Src/usbh_ctlreq.c ****   cfg_desc->bDescriptorType     = *(uint8_t *)(buf + 1);
 1018              		.loc 1 415 35 is_stmt 0 view .LVU354
 1019 000a 0978     		ldrb	r1, [r1]	@ zero_extendqisi2
 1020              	.LVL76:
 415:Middlewares/ST/STM32_USB_Host_Library/Core/Src/usbh_ctlreq.c ****   cfg_desc->bDescriptorType     = *(uint8_t *)(buf + 1);
 1021              		.loc 1 415 33 view .LVU355
 1022 000c 80F83813 		strb	r1, [r0, #824]
 416:Middlewares/ST/STM32_USB_Host_Library/Core/Src/usbh_ctlreq.c ****   cfg_desc->wTotalLength        = MIN(((uint16_t) LE16(buf + 2)), ((uint16_t)USBH_MAX_SIZE_CONFIGUR
 1023              		.loc 1 416 3 is_stmt 1 view .LVU356
 416:Middlewares/ST/STM32_USB_Host_Library/Core/Src/usbh_ctlreq.c ****   cfg_desc->wTotalLength        = MIN(((uint16_t) LE16(buf + 2)), ((uint16_t)USBH_MAX_SIZE_CONFIGUR
 1024              		.loc 1 416 33 is_stmt 0 view .LVU357
 1025 0010 6378     		ldrb	r3, [r4, #1]	@ zero_extendqisi2
 1026 0012 80F83933 		strb	r3, [r0, #825]
 417:Middlewares/ST/STM32_USB_Host_Library/Core/Src/usbh_ctlreq.c ****   cfg_desc->bNumInterfaces      = *(uint8_t *)(buf + 4);
 1027              		.loc 1 417 3 is_stmt 1 view .LVU358
 417:Middlewares/ST/STM32_USB_Host_Library/Core/Src/usbh_ctlreq.c ****   cfg_desc->bNumInterfaces      = *(uint8_t *)(buf + 4);
 1028              		.loc 1 417 35 is_stmt 0 view .LVU359
 1029 0016 A378     		ldrb	r3, [r4, #2]	@ zero_extendqisi2
 1030 0018 E078     		ldrb	r0, [r4, #3]	@ zero_extendqisi2
 1031              	.LVL77:
 417:Middlewares/ST/STM32_USB_Host_Library/Core/Src/usbh_ctlreq.c ****   cfg_desc->bNumInterfaces      = *(uint8_t *)(buf + 4);
 1032              		.loc 1 417 35 view .LVU360
 1033 001a 43EA0023 		orr	r3, r3, r0, lsl #8
 1034 001e B3F5807F 		cmp	r3, #256
 1035 0022 28BF     		it	cs
 1036 0024 4FF48073 		movcs	r3, #256
 417:Middlewares/ST/STM32_USB_Host_Library/Core/Src/usbh_ctlreq.c ****   cfg_desc->bNumInterfaces      = *(uint8_t *)(buf + 4);
 1037              		.loc 1 417 33 view .LVU361
 1038 0028 A5F83A33 		strh	r3, [r5, #826]	@ movhi
 418:Middlewares/ST/STM32_USB_Host_Library/Core/Src/usbh_ctlreq.c ****   cfg_desc->bConfigurationValue = *(uint8_t *)(buf + 5);
 1039              		.loc 1 418 3 is_stmt 1 view .LVU362
 418:Middlewares/ST/STM32_USB_Host_Library/Core/Src/usbh_ctlreq.c ****   cfg_desc->bConfigurationValue = *(uint8_t *)(buf + 5);
 1040              		.loc 1 418 33 is_stmt 0 view .LVU363
 1041 002c 2379     		ldrb	r3, [r4, #4]	@ zero_extendqisi2
 1042 002e 85F83C33 		strb	r3, [r5, #828]
 419:Middlewares/ST/STM32_USB_Host_Library/Core/Src/usbh_ctlreq.c ****   cfg_desc->iConfiguration      = *(uint8_t *)(buf + 6);
 1043              		.loc 1 419 3 is_stmt 1 view .LVU364
 419:Middlewares/ST/STM32_USB_Host_Library/Core/Src/usbh_ctlreq.c ****   cfg_desc->iConfiguration      = *(uint8_t *)(buf + 6);
 1044              		.loc 1 419 33 is_stmt 0 view .LVU365
 1045 0032 6379     		ldrb	r3, [r4, #5]	@ zero_extendqisi2
 1046 0034 85F83D33 		strb	r3, [r5, #829]
 420:Middlewares/ST/STM32_USB_Host_Library/Core/Src/usbh_ctlreq.c ****   cfg_desc->bmAttributes        = *(uint8_t *)(buf + 7);
 1047              		.loc 1 420 3 is_stmt 1 view .LVU366
 420:Middlewares/ST/STM32_USB_Host_Library/Core/Src/usbh_ctlreq.c ****   cfg_desc->bmAttributes        = *(uint8_t *)(buf + 7);
 1048              		.loc 1 420 33 is_stmt 0 view .LVU367
 1049 0038 A379     		ldrb	r3, [r4, #6]	@ zero_extendqisi2
 1050 003a 85F83E33 		strb	r3, [r5, #830]
 421:Middlewares/ST/STM32_USB_Host_Library/Core/Src/usbh_ctlreq.c ****   cfg_desc->bMaxPower           = *(uint8_t *)(buf + 8);
 1051              		.loc 1 421 3 is_stmt 1 view .LVU368
 421:Middlewares/ST/STM32_USB_Host_Library/Core/Src/usbh_ctlreq.c ****   cfg_desc->bMaxPower           = *(uint8_t *)(buf + 8);
 1052              		.loc 1 421 33 is_stmt 0 view .LVU369
 1053 003e E379     		ldrb	r3, [r4, #7]	@ zero_extendqisi2
 1054 0040 85F83F33 		strb	r3, [r5, #831]
 422:Middlewares/ST/STM32_USB_Host_Library/Core/Src/usbh_ctlreq.c **** 
 1055              		.loc 1 422 3 is_stmt 1 view .LVU370
 422:Middlewares/ST/STM32_USB_Host_Library/Core/Src/usbh_ctlreq.c **** 
 1056              		.loc 1 422 33 is_stmt 0 view .LVU371
ARM GAS  /tmp/ccXc1b7R.s 			page 43


 1057 0044 237A     		ldrb	r3, [r4, #8]	@ zero_extendqisi2
 1058 0046 85F84033 		strb	r3, [r5, #832]
 425:Middlewares/ST/STM32_USB_Host_Library/Core/Src/usbh_ctlreq.c ****   {
 1059              		.loc 1 425 3 is_stmt 1 view .LVU372
 425:Middlewares/ST/STM32_USB_Host_Library/Core/Src/usbh_ctlreq.c ****   {
 1060              		.loc 1 425 6 is_stmt 0 view .LVU373
 1061 004a 0929     		cmp	r1, #9
 1062 004c 02D0     		beq	.L79
 427:Middlewares/ST/STM32_USB_Host_Library/Core/Src/usbh_ctlreq.c ****   }
 1063              		.loc 1 427 5 is_stmt 1 view .LVU374
 427:Middlewares/ST/STM32_USB_Host_Library/Core/Src/usbh_ctlreq.c ****   }
 1064              		.loc 1 427 23 is_stmt 0 view .LVU375
 1065 004e 0923     		movs	r3, #9
 1066 0050 85F83833 		strb	r3, [r5, #824]
 1067              	.L79:
 430:Middlewares/ST/STM32_USB_Host_Library/Core/Src/usbh_ctlreq.c ****   {
 1068              		.loc 1 430 3 is_stmt 1 view .LVU376
 430:Middlewares/ST/STM32_USB_Host_Library/Core/Src/usbh_ctlreq.c ****   {
 1069              		.loc 1 430 6 is_stmt 0 view .LVU377
 1070 0054 092A     		cmp	r2, #9
 1071 0056 7DD9     		bls	.L92
 432:Middlewares/ST/STM32_USB_Host_Library/Core/Src/usbh_ctlreq.c ****     pif = (USBH_InterfaceDescTypeDef *)NULL;
 1072              		.loc 1 432 5 is_stmt 1 view .LVU378
 432:Middlewares/ST/STM32_USB_Host_Library/Core/Src/usbh_ctlreq.c ****     pif = (USBH_InterfaceDescTypeDef *)NULL;
 1073              		.loc 1 432 9 is_stmt 0 view .LVU379
 1074 0058 0923     		movs	r3, #9
 1075 005a ADF80630 		strh	r3, [sp, #6]	@ movhi
 433:Middlewares/ST/STM32_USB_Host_Library/Core/Src/usbh_ctlreq.c **** 
 1076              		.loc 1 433 5 is_stmt 1 view .LVU380
 1077              	.LVL78:
 435:Middlewares/ST/STM32_USB_Host_Library/Core/Src/usbh_ctlreq.c ****     {
 1078              		.loc 1 435 5 view .LVU381
 409:Middlewares/ST/STM32_USB_Host_Library/Core/Src/usbh_ctlreq.c ****   uint8_t                      ep_ix = 0U;
 1079              		.loc 1 409 32 is_stmt 0 view .LVU382
 1080 005e 0026     		movs	r6, #0
 404:Middlewares/ST/STM32_USB_Host_Library/Core/Src/usbh_ctlreq.c ****   USBH_InterfaceDescTypeDef    *pif;
 1081              		.loc 1 404 32 view .LVU383
 1082 0060 3746     		mov	r7, r6
 1083              	.LVL79:
 1084              	.L82:
 435:Middlewares/ST/STM32_USB_Host_Library/Core/Src/usbh_ctlreq.c ****     {
 1085              		.loc 1 435 46 is_stmt 1 view .LVU384
 1086 0062 012E     		cmp	r6, #1
 1087 0064 6DD8     		bhi	.L90
 435:Middlewares/ST/STM32_USB_Host_Library/Core/Src/usbh_ctlreq.c ****     {
 1088              		.loc 1 435 64 is_stmt 0 discriminator 1 view .LVU385
 1089 0066 B5F83A23 		ldrh	r2, [r5, #826]
 435:Middlewares/ST/STM32_USB_Host_Library/Core/Src/usbh_ctlreq.c ****     {
 1090              		.loc 1 435 54 discriminator 1 view .LVU386
 1091 006a BDF80630 		ldrh	r3, [sp, #6]
 435:Middlewares/ST/STM32_USB_Host_Library/Core/Src/usbh_ctlreq.c ****     {
 1092              		.loc 1 435 46 discriminator 1 view .LVU387
 1093 006e 9A42     		cmp	r2, r3
 1094 0070 67D9     		bls	.L90
 437:Middlewares/ST/STM32_USB_Host_Library/Core/Src/usbh_ctlreq.c ****       if (pdesc->bDescriptorType == USB_DESC_TYPE_INTERFACE)
 1095              		.loc 1 437 7 is_stmt 1 view .LVU388
 437:Middlewares/ST/STM32_USB_Host_Library/Core/Src/usbh_ctlreq.c ****       if (pdesc->bDescriptorType == USB_DESC_TYPE_INTERFACE)
ARM GAS  /tmp/ccXc1b7R.s 			page 44


 1096              		.loc 1 437 15 is_stmt 0 view .LVU389
 1097 0072 0DF10601 		add	r1, sp, #6
 1098 0076 2046     		mov	r0, r4
 1099 0078 FFF7FEFF 		bl	USBH_GetNextDesc
 1100              	.LVL80:
 1101 007c 0446     		mov	r4, r0
 1102              	.LVL81:
 438:Middlewares/ST/STM32_USB_Host_Library/Core/Src/usbh_ctlreq.c ****       {
 1103              		.loc 1 438 7 is_stmt 1 view .LVU390
 438:Middlewares/ST/STM32_USB_Host_Library/Core/Src/usbh_ctlreq.c ****       {
 1104              		.loc 1 438 16 is_stmt 0 view .LVU391
 1105 007e 4378     		ldrb	r3, [r0, #1]	@ zero_extendqisi2
 438:Middlewares/ST/STM32_USB_Host_Library/Core/Src/usbh_ctlreq.c ****       {
 1106              		.loc 1 438 10 view .LVU392
 1107 0080 042B     		cmp	r3, #4
 1108 0082 EED1     		bne	.L82
 441:Middlewares/ST/STM32_USB_Host_Library/Core/Src/usbh_ctlreq.c ****         {
 1109              		.loc 1 441 9 is_stmt 1 view .LVU393
 441:Middlewares/ST/STM32_USB_Host_Library/Core/Src/usbh_ctlreq.c ****         {
 1110              		.loc 1 441 18 is_stmt 0 view .LVU394
 1111 0084 0378     		ldrb	r3, [r0]	@ zero_extendqisi2
 441:Middlewares/ST/STM32_USB_Host_Library/Core/Src/usbh_ctlreq.c ****         {
 1112              		.loc 1 441 12 view .LVU395
 1113 0086 092B     		cmp	r3, #9
 1114 0088 01D0     		beq	.L83
 443:Middlewares/ST/STM32_USB_Host_Library/Core/Src/usbh_ctlreq.c ****         }
 1115              		.loc 1 443 11 is_stmt 1 view .LVU396
 443:Middlewares/ST/STM32_USB_Host_Library/Core/Src/usbh_ctlreq.c ****         }
 1116              		.loc 1 443 26 is_stmt 0 view .LVU397
 1117 008a 0923     		movs	r3, #9
 1118 008c 0370     		strb	r3, [r0]
 1119              	.L83:
 446:Middlewares/ST/STM32_USB_Host_Library/Core/Src/usbh_ctlreq.c ****         USBH_ParseInterfaceDesc(pif, (uint8_t *)(void *)pdesc);
 1120              		.loc 1 446 9 is_stmt 1 view .LVU398
 446:Middlewares/ST/STM32_USB_Host_Library/Core/Src/usbh_ctlreq.c ****         USBH_ParseInterfaceDesc(pif, (uint8_t *)(void *)pdesc);
 1121              		.loc 1 446 34 is_stmt 0 view .LVU399
 1122 008e B146     		mov	r9, r6
 446:Middlewares/ST/STM32_USB_Host_Library/Core/Src/usbh_ctlreq.c ****         USBH_ParseInterfaceDesc(pif, (uint8_t *)(void *)pdesc);
 1123              		.loc 1 446 13 view .LVU400
 1124 0090 05F54E70 		add	r0, r5, #824
 1125              	.LVL82:
 446:Middlewares/ST/STM32_USB_Host_Library/Core/Src/usbh_ctlreq.c ****         USBH_ParseInterfaceDesc(pif, (uint8_t *)(void *)pdesc);
 1126              		.loc 1 446 13 view .LVU401
 1127 0094 1A23     		movs	r3, #26
 1128 0096 06FB03F3 		mul	r3, r6, r3
 1129 009a 0833     		adds	r3, r3, #8
 1130 009c 1844     		add	r0, r0, r3
 1131              	.LVL83:
 447:Middlewares/ST/STM32_USB_Host_Library/Core/Src/usbh_ctlreq.c **** 
 1132              		.loc 1 447 9 is_stmt 1 view .LVU402
 1133 009e 2146     		mov	r1, r4
 1134 00a0 0230     		adds	r0, r0, #2
 1135              	.LVL84:
 447:Middlewares/ST/STM32_USB_Host_Library/Core/Src/usbh_ctlreq.c **** 
 1136              		.loc 1 447 9 is_stmt 0 view .LVU403
 1137 00a2 FFF7FEFF 		bl	USBH_ParseInterfaceDesc
 1138              	.LVL85:
ARM GAS  /tmp/ccXc1b7R.s 			page 45


 449:Middlewares/ST/STM32_USB_Host_Library/Core/Src/usbh_ctlreq.c ****         pep = (USBH_EpDescTypeDef *)NULL;
 1139              		.loc 1 449 9 is_stmt 1 view .LVU404
 450:Middlewares/ST/STM32_USB_Host_Library/Core/Src/usbh_ctlreq.c **** 
 1140              		.loc 1 450 9 view .LVU405
 452:Middlewares/ST/STM32_USB_Host_Library/Core/Src/usbh_ctlreq.c ****         {
 1141              		.loc 1 452 9 view .LVU406
 449:Middlewares/ST/STM32_USB_Host_Library/Core/Src/usbh_ctlreq.c ****         pep = (USBH_EpDescTypeDef *)NULL;
 1142              		.loc 1 449 15 is_stmt 0 view .LVU407
 1143 00a6 4FF00008 		mov	r8, #0
 452:Middlewares/ST/STM32_USB_Host_Library/Core/Src/usbh_ctlreq.c ****         {
 1144              		.loc 1 452 15 view .LVU408
 1145 00aa 14E0     		b	.L84
 1146              	.LVL86:
 1147              	.L86:
 471:Middlewares/ST/STM32_USB_Host_Library/Core/Src/usbh_ctlreq.c ****             }
 1148              		.loc 1 471 15 is_stmt 1 view .LVU409
 471:Middlewares/ST/STM32_USB_Host_Library/Core/Src/usbh_ctlreq.c ****             }
 1149              		.loc 1 471 30 is_stmt 0 view .LVU410
 1150 00ac 0723     		movs	r3, #7
 1151 00ae 2370     		strb	r3, [r4]
 1152              	.L87:
 474:Middlewares/ST/STM32_USB_Host_Library/Core/Src/usbh_ctlreq.c **** 
 1153              		.loc 1 474 13 is_stmt 1 view .LVU411
 474:Middlewares/ST/STM32_USB_Host_Library/Core/Src/usbh_ctlreq.c **** 
 1154              		.loc 1 474 17 is_stmt 0 view .LVU412
 1155 00b0 05F54E71 		add	r1, r5, #824
 1156 00b4 08F10108 		add	r8, r8, #1
 1157              	.LVL87:
 474:Middlewares/ST/STM32_USB_Host_Library/Core/Src/usbh_ctlreq.c **** 
 1158              		.loc 1 474 17 view .LVU413
 1159 00b8 1A23     		movs	r3, #26
 1160              	.LVL88:
 474:Middlewares/ST/STM32_USB_Host_Library/Core/Src/usbh_ctlreq.c **** 
 1161              		.loc 1 474 17 view .LVU414
 1162 00ba 03FB09F3 		mul	r3, r3, r9
 1163              	.LVL89:
 474:Middlewares/ST/STM32_USB_Host_Library/Core/Src/usbh_ctlreq.c **** 
 1164              		.loc 1 474 17 view .LVU415
 1165 00be 03EBC803 		add	r3, r3, r8, lsl #3
 1166 00c2 0833     		adds	r3, r3, #8
 1167 00c4 1944     		add	r1, r1, r3
 1168              	.LVL90:
 476:Middlewares/ST/STM32_USB_Host_Library/Core/Src/usbh_ctlreq.c **** 
 1169              		.loc 1 476 13 is_stmt 1 view .LVU416
 476:Middlewares/ST/STM32_USB_Host_Library/Core/Src/usbh_ctlreq.c **** 
 1170              		.loc 1 476 22 is_stmt 0 view .LVU417
 1171 00c6 2246     		mov	r2, r4
 1172 00c8 0431     		adds	r1, r1, #4
 1173              	.LVL91:
 476:Middlewares/ST/STM32_USB_Host_Library/Core/Src/usbh_ctlreq.c **** 
 1174              		.loc 1 476 22 view .LVU418
 1175 00ca 2846     		mov	r0, r5
 1176              	.LVL92:
 476:Middlewares/ST/STM32_USB_Host_Library/Core/Src/usbh_ctlreq.c **** 
 1177              		.loc 1 476 22 view .LVU419
 1178 00cc FFF7FEFF 		bl	USBH_ParseEPDesc
 1179              	.LVL93:
ARM GAS  /tmp/ccXc1b7R.s 			page 46


 476:Middlewares/ST/STM32_USB_Host_Library/Core/Src/usbh_ctlreq.c **** 
 1180              		.loc 1 476 22 view .LVU420
 1181 00d0 0746     		mov	r7, r0
 1182              	.LVL94:
 478:Middlewares/ST/STM32_USB_Host_Library/Core/Src/usbh_ctlreq.c ****           }
 1183              		.loc 1 478 13 is_stmt 1 view .LVU421
 478:Middlewares/ST/STM32_USB_Host_Library/Core/Src/usbh_ctlreq.c ****           }
 1184              		.loc 1 478 18 is_stmt 0 view .LVU422
 1185 00d2 5FFA88F8 		uxtb	r8, r8
 1186              	.LVL95:
 1187              	.L84:
 452:Middlewares/ST/STM32_USB_Host_Library/Core/Src/usbh_ctlreq.c ****         {
 1188              		.loc 1 452 45 is_stmt 1 view .LVU423
 452:Middlewares/ST/STM32_USB_Host_Library/Core/Src/usbh_ctlreq.c ****         {
 1189              		.loc 1 452 28 is_stmt 0 view .LVU424
 1190 00d6 1A23     		movs	r3, #26
 1191              	.LVL96:
 452:Middlewares/ST/STM32_USB_Host_Library/Core/Src/usbh_ctlreq.c ****         {
 1192              		.loc 1 452 28 view .LVU425
 1193 00d8 03FB0953 		mla	r3, r3, r9, r5
 1194              	.LVL97:
 452:Middlewares/ST/STM32_USB_Host_Library/Core/Src/usbh_ctlreq.c ****         {
 1195              		.loc 1 452 28 view .LVU426
 1196 00dc 93F84633 		ldrb	r3, [r3, #838]	@ zero_extendqisi2
 452:Middlewares/ST/STM32_USB_Host_Library/Core/Src/usbh_ctlreq.c ****         {
 1197              		.loc 1 452 45 view .LVU427
 1198 00e0 4345     		cmp	r3, r8
 1199 00e2 29D9     		bls	.L88
 452:Middlewares/ST/STM32_USB_Host_Library/Core/Src/usbh_ctlreq.c ****         {
 1200              		.loc 1 452 63 discriminator 1 view .LVU428
 1201 00e4 B5F83A13 		ldrh	r1, [r5, #826]
 452:Middlewares/ST/STM32_USB_Host_Library/Core/Src/usbh_ctlreq.c ****         {
 1202              		.loc 1 452 53 discriminator 1 view .LVU429
 1203 00e8 BDF80620 		ldrh	r2, [sp, #6]
 452:Middlewares/ST/STM32_USB_Host_Library/Core/Src/usbh_ctlreq.c ****         {
 1204              		.loc 1 452 45 discriminator 1 view .LVU430
 1205 00ec 9142     		cmp	r1, r2
 1206 00ee 23D9     		bls	.L88
 454:Middlewares/ST/STM32_USB_Host_Library/Core/Src/usbh_ctlreq.c **** 
 1207              		.loc 1 454 11 is_stmt 1 view .LVU431
 454:Middlewares/ST/STM32_USB_Host_Library/Core/Src/usbh_ctlreq.c **** 
 1208              		.loc 1 454 19 is_stmt 0 view .LVU432
 1209 00f0 0DF10601 		add	r1, sp, #6
 1210 00f4 2046     		mov	r0, r4
 1211 00f6 FFF7FEFF 		bl	USBH_GetNextDesc
 1212              	.LVL98:
 1213 00fa 0446     		mov	r4, r0
 1214              	.LVL99:
 456:Middlewares/ST/STM32_USB_Host_Library/Core/Src/usbh_ctlreq.c ****           {
 1215              		.loc 1 456 11 is_stmt 1 view .LVU433
 456:Middlewares/ST/STM32_USB_Host_Library/Core/Src/usbh_ctlreq.c ****           {
 1216              		.loc 1 456 20 is_stmt 0 view .LVU434
 1217 00fc 4378     		ldrb	r3, [r0, #1]	@ zero_extendqisi2
 456:Middlewares/ST/STM32_USB_Host_Library/Core/Src/usbh_ctlreq.c ****           {
 1218              		.loc 1 456 14 view .LVU435
 1219 00fe 052B     		cmp	r3, #5
 1220 0100 E9D1     		bne	.L84
ARM GAS  /tmp/ccXc1b7R.s 			page 47


 459:Middlewares/ST/STM32_USB_Host_Library/Core/Src/usbh_ctlreq.c ****             {
 1221              		.loc 1 459 13 is_stmt 1 view .LVU436
 459:Middlewares/ST/STM32_USB_Host_Library/Core/Src/usbh_ctlreq.c ****             {
 1222              		.loc 1 459 21 is_stmt 0 view .LVU437
 1223 0102 1A23     		movs	r3, #26
 1224              	.LVL100:
 459:Middlewares/ST/STM32_USB_Host_Library/Core/Src/usbh_ctlreq.c ****             {
 1225              		.loc 1 459 21 view .LVU438
 1226 0104 03FB0953 		mla	r3, r3, r9, r5
 1227              	.LVL101:
 459:Middlewares/ST/STM32_USB_Host_Library/Core/Src/usbh_ctlreq.c ****             {
 1228              		.loc 1 459 21 view .LVU439
 1229 0108 93F84733 		ldrb	r3, [r3, #839]	@ zero_extendqisi2
 459:Middlewares/ST/STM32_USB_Host_Library/Core/Src/usbh_ctlreq.c ****             {
 1230              		.loc 1 459 16 view .LVU440
 1231 010c 012B     		cmp	r3, #1
 1232 010e CDD1     		bne	.L86
 459:Middlewares/ST/STM32_USB_Host_Library/Core/Src/usbh_ctlreq.c ****             {
 1233              		.loc 1 459 56 discriminator 1 view .LVU441
 1234 0110 1A23     		movs	r3, #26
 1235              	.LVL102:
 459:Middlewares/ST/STM32_USB_Host_Library/Core/Src/usbh_ctlreq.c ****             {
 1236              		.loc 1 459 56 discriminator 1 view .LVU442
 1237 0112 03FB0953 		mla	r3, r3, r9, r5
 1238              	.LVL103:
 459:Middlewares/ST/STM32_USB_Host_Library/Core/Src/usbh_ctlreq.c ****             {
 1239              		.loc 1 459 56 discriminator 1 view .LVU443
 1240 0116 93F84833 		ldrb	r3, [r3, #840]	@ zero_extendqisi2
 459:Middlewares/ST/STM32_USB_Host_Library/Core/Src/usbh_ctlreq.c ****             {
 1241              		.loc 1 459 49 discriminator 1 view .LVU444
 1242 011a 022B     		cmp	r3, #2
 1243 011c C6D1     		bne	.L86
 462:Middlewares/ST/STM32_USB_Host_Library/Core/Src/usbh_ctlreq.c ****               {
 1244              		.loc 1 462 15 is_stmt 1 view .LVU445
 462:Middlewares/ST/STM32_USB_Host_Library/Core/Src/usbh_ctlreq.c ****               {
 1245              		.loc 1 462 23 is_stmt 0 view .LVU446
 1246 011e 1A23     		movs	r3, #26
 1247              	.LVL104:
 462:Middlewares/ST/STM32_USB_Host_Library/Core/Src/usbh_ctlreq.c ****               {
 1248              		.loc 1 462 23 view .LVU447
 1249 0120 03FB0953 		mla	r3, r3, r9, r5
 1250              	.LVL105:
 462:Middlewares/ST/STM32_USB_Host_Library/Core/Src/usbh_ctlreq.c ****               {
 1251              		.loc 1 462 23 view .LVU448
 1252 0124 93F84933 		ldrb	r3, [r3, #841]	@ zero_extendqisi2
 462:Middlewares/ST/STM32_USB_Host_Library/Core/Src/usbh_ctlreq.c ****               {
 1253              		.loc 1 462 18 view .LVU449
 1254 0128 002B     		cmp	r3, #0
 1255 012a C1D1     		bne	.L87
 462:Middlewares/ST/STM32_USB_Host_Library/Core/Src/usbh_ctlreq.c ****               {
 1256              		.loc 1 462 63 discriminator 1 view .LVU450
 1257 012c 0378     		ldrb	r3, [r0]	@ zero_extendqisi2
 462:Middlewares/ST/STM32_USB_Host_Library/Core/Src/usbh_ctlreq.c ****               {
 1258              		.loc 1 462 54 discriminator 1 view .LVU451
 1259 012e 092B     		cmp	r3, #9
 1260 0130 BED0     		beq	.L87
 464:Middlewares/ST/STM32_USB_Host_Library/Core/Src/usbh_ctlreq.c ****               }
ARM GAS  /tmp/ccXc1b7R.s 			page 48


 1261              		.loc 1 464 17 is_stmt 1 view .LVU452
 464:Middlewares/ST/STM32_USB_Host_Library/Core/Src/usbh_ctlreq.c ****               }
 1262              		.loc 1 464 32 is_stmt 0 view .LVU453
 1263 0132 0923     		movs	r3, #9
 1264 0134 0370     		strb	r3, [r0]
 1265 0136 BBE7     		b	.L87
 1266              	.LVL106:
 1267              	.L88:
 483:Middlewares/ST/STM32_USB_Host_Library/Core/Src/usbh_ctlreq.c ****         {
 1268              		.loc 1 483 9 is_stmt 1 view .LVU454
 483:Middlewares/ST/STM32_USB_Host_Library/Core/Src/usbh_ctlreq.c ****         {
 1269              		.loc 1 483 12 is_stmt 0 view .LVU455
 1270 0138 4345     		cmp	r3, r8
 1271 013a 10D8     		bhi	.L93
 488:Middlewares/ST/STM32_USB_Host_Library/Core/Src/usbh_ctlreq.c ****       }
 1272              		.loc 1 488 9 is_stmt 1 view .LVU456
 488:Middlewares/ST/STM32_USB_Host_Library/Core/Src/usbh_ctlreq.c ****       }
 1273              		.loc 1 488 14 is_stmt 0 view .LVU457
 1274 013c 0136     		adds	r6, r6, #1
 1275              	.LVL107:
 488:Middlewares/ST/STM32_USB_Host_Library/Core/Src/usbh_ctlreq.c ****       }
 1276              		.loc 1 488 14 view .LVU458
 1277 013e F6B2     		uxtb	r6, r6
 1278              	.LVL108:
 488:Middlewares/ST/STM32_USB_Host_Library/Core/Src/usbh_ctlreq.c ****       }
 1279              		.loc 1 488 14 view .LVU459
 1280 0140 8FE7     		b	.L82
 1281              	.LVL109:
 1282              	.L90:
 493:Middlewares/ST/STM32_USB_Host_Library/Core/Src/usbh_ctlreq.c ****     {
 1283              		.loc 1 493 5 is_stmt 1 view .LVU460
 493:Middlewares/ST/STM32_USB_Host_Library/Core/Src/usbh_ctlreq.c ****     {
 1284              		.loc 1 493 17 is_stmt 0 view .LVU461
 1285 0142 95F83C33 		ldrb	r3, [r5, #828]	@ zero_extendqisi2
 1286 0146 022B     		cmp	r3, #2
 1287 0148 28BF     		it	cs
 1288 014a 0223     		movcs	r3, #2
 493:Middlewares/ST/STM32_USB_Host_Library/Core/Src/usbh_ctlreq.c ****     {
 1289              		.loc 1 493 8 view .LVU462
 1290 014c B342     		cmp	r3, r6
 1291 014e 02D9     		bls	.L80
 495:Middlewares/ST/STM32_USB_Host_Library/Core/Src/usbh_ctlreq.c ****     }
 1292              		.loc 1 495 14 view .LVU463
 1293 0150 0327     		movs	r7, #3
 1294              	.LVL110:
 495:Middlewares/ST/STM32_USB_Host_Library/Core/Src/usbh_ctlreq.c ****     }
 1295              		.loc 1 495 14 view .LVU464
 1296 0152 00E0     		b	.L80
 1297              	.LVL111:
 1298              	.L92:
 404:Middlewares/ST/STM32_USB_Host_Library/Core/Src/usbh_ctlreq.c ****   USBH_InterfaceDescTypeDef    *pif;
 1299              		.loc 1 404 32 view .LVU465
 1300 0154 0027     		movs	r7, #0
 1301              	.LVL112:
 1302              	.L80:
 500:Middlewares/ST/STM32_USB_Host_Library/Core/Src/usbh_ctlreq.c **** 
 1303              		.loc 1 500 1 view .LVU466
ARM GAS  /tmp/ccXc1b7R.s 			page 49


 1304 0156 3846     		mov	r0, r7
 1305 0158 03B0     		add	sp, sp, #12
 1306              	.LCFI10:
 1307              		.cfi_remember_state
 1308              		.cfi_def_cfa_offset 28
 1309              		@ sp needed
 1310 015a BDE8F083 		pop	{r4, r5, r6, r7, r8, r9, pc}
 1311              	.LVL113:
 1312              	.L93:
 1313              	.LCFI11:
 1314              		.cfi_restore_state
 485:Middlewares/ST/STM32_USB_Host_Library/Core/Src/usbh_ctlreq.c ****         }
 1315              		.loc 1 485 18 view .LVU467
 1316 015e 0327     		movs	r7, #3
 1317              	.LVL114:
 485:Middlewares/ST/STM32_USB_Host_Library/Core/Src/usbh_ctlreq.c ****         }
 1318              		.loc 1 485 18 view .LVU468
 1319 0160 F9E7     		b	.L80
 1320              		.cfi_endproc
 1321              	.LFE154:
 1323              		.section	.text.USBH_CtlReq,"ax",%progbits
 1324              		.align	1
 1325              		.global	USBH_CtlReq
 1326              		.syntax unified
 1327              		.thumb
 1328              		.thumb_func
 1330              	USBH_CtlReq:
 1331              	.LVL115:
 1332              	.LFB159:
 676:Middlewares/ST/STM32_USB_Host_Library/Core/Src/usbh_ctlreq.c ****   USBH_StatusTypeDef status;
 1333              		.loc 1 676 1 is_stmt 1 view -0
 1334              		.cfi_startproc
 1335              		@ args = 0, pretend = 0, frame = 0
 1336              		@ frame_needed = 0, uses_anonymous_args = 0
 676:Middlewares/ST/STM32_USB_Host_Library/Core/Src/usbh_ctlreq.c ****   USBH_StatusTypeDef status;
 1337              		.loc 1 676 1 is_stmt 0 view .LVU470
 1338 0000 10B5     		push	{r4, lr}
 1339              	.LCFI12:
 1340              		.cfi_def_cfa_offset 8
 1341              		.cfi_offset 4, -8
 1342              		.cfi_offset 14, -4
 1343 0002 0446     		mov	r4, r0
 677:Middlewares/ST/STM32_USB_Host_Library/Core/Src/usbh_ctlreq.c ****   status = USBH_BUSY;
 1344              		.loc 1 677 3 is_stmt 1 view .LVU471
 678:Middlewares/ST/STM32_USB_Host_Library/Core/Src/usbh_ctlreq.c **** 
 1345              		.loc 1 678 3 view .LVU472
 1346              	.LVL116:
 680:Middlewares/ST/STM32_USB_Host_Library/Core/Src/usbh_ctlreq.c ****   {
 1347              		.loc 1 680 3 view .LVU473
 680:Middlewares/ST/STM32_USB_Host_Library/Core/Src/usbh_ctlreq.c ****   {
 1348              		.loc 1 680 16 is_stmt 0 view .LVU474
 1349 0004 8078     		ldrb	r0, [r0, #2]	@ zero_extendqisi2
 1350              	.LVL117:
 680:Middlewares/ST/STM32_USB_Host_Library/Core/Src/usbh_ctlreq.c ****   {
 1351              		.loc 1 680 3 view .LVU475
 1352 0006 0128     		cmp	r0, #1
 1353 0008 03D0     		beq	.L97
ARM GAS  /tmp/ccXc1b7R.s 			page 50


 1354 000a 0228     		cmp	r0, #2
 1355 000c 08D0     		beq	.L98
 1356 000e 0120     		movs	r0, #1
 1357              	.LVL118:
 1358              	.L99:
 730:Middlewares/ST/STM32_USB_Host_Library/Core/Src/usbh_ctlreq.c **** }
 1359              		.loc 1 730 3 is_stmt 1 view .LVU476
 731:Middlewares/ST/STM32_USB_Host_Library/Core/Src/usbh_ctlreq.c **** 
 1360              		.loc 1 731 1 is_stmt 0 view .LVU477
 1361 0010 10BD     		pop	{r4, pc}
 1362              	.LVL119:
 1363              	.L97:
 684:Middlewares/ST/STM32_USB_Host_Library/Core/Src/usbh_ctlreq.c ****       phost->Control.length = length;
 1364              		.loc 1 684 7 is_stmt 1 view .LVU478
 684:Middlewares/ST/STM32_USB_Host_Library/Core/Src/usbh_ctlreq.c ****       phost->Control.length = length;
 1365              		.loc 1 684 27 is_stmt 0 view .LVU479
 1366 0012 A160     		str	r1, [r4, #8]
 685:Middlewares/ST/STM32_USB_Host_Library/Core/Src/usbh_ctlreq.c ****       phost->Control.state = CTRL_SETUP;
 1367              		.loc 1 685 7 is_stmt 1 view .LVU480
 685:Middlewares/ST/STM32_USB_Host_Library/Core/Src/usbh_ctlreq.c ****       phost->Control.state = CTRL_SETUP;
 1368              		.loc 1 685 29 is_stmt 0 view .LVU481
 1369 0014 A281     		strh	r2, [r4, #12]	@ movhi
 686:Middlewares/ST/STM32_USB_Host_Library/Core/Src/usbh_ctlreq.c ****       phost->RequestState = CMD_WAIT;
 1370              		.loc 1 686 7 is_stmt 1 view .LVU482
 686:Middlewares/ST/STM32_USB_Host_Library/Core/Src/usbh_ctlreq.c ****       phost->RequestState = CMD_WAIT;
 1371              		.loc 1 686 28 is_stmt 0 view .LVU483
 1372 0016 0123     		movs	r3, #1
 1373 0018 2376     		strb	r3, [r4, #24]
 687:Middlewares/ST/STM32_USB_Host_Library/Core/Src/usbh_ctlreq.c ****       status = USBH_BUSY;
 1374              		.loc 1 687 7 is_stmt 1 view .LVU484
 687:Middlewares/ST/STM32_USB_Host_Library/Core/Src/usbh_ctlreq.c ****       status = USBH_BUSY;
 1375              		.loc 1 687 27 is_stmt 0 view .LVU485
 1376 001a 0223     		movs	r3, #2
 1377 001c A370     		strb	r3, [r4, #2]
 688:Middlewares/ST/STM32_USB_Host_Library/Core/Src/usbh_ctlreq.c **** 
 1378              		.loc 1 688 7 is_stmt 1 view .LVU486
 698:Middlewares/ST/STM32_USB_Host_Library/Core/Src/usbh_ctlreq.c **** 
 1379              		.loc 1 698 7 view .LVU487
 1380 001e F7E7     		b	.L99
 1381              	.L98:
 701:Middlewares/ST/STM32_USB_Host_Library/Core/Src/usbh_ctlreq.c ****       if ((status == USBH_OK) || (status == USBH_NOT_SUPPORTED))
 1382              		.loc 1 701 7 view .LVU488
 701:Middlewares/ST/STM32_USB_Host_Library/Core/Src/usbh_ctlreq.c ****       if ((status == USBH_OK) || (status == USBH_NOT_SUPPORTED))
 1383              		.loc 1 701 16 is_stmt 0 view .LVU489
 1384 0020 2046     		mov	r0, r4
 1385 0022 FFF7FEFF 		bl	USBH_HandleControl
 1386              	.LVL120:
 702:Middlewares/ST/STM32_USB_Host_Library/Core/Src/usbh_ctlreq.c ****       {
 1387              		.loc 1 702 7 is_stmt 1 view .LVU490
 702:Middlewares/ST/STM32_USB_Host_Library/Core/Src/usbh_ctlreq.c ****       {
 1388              		.loc 1 702 10 is_stmt 0 view .LVU491
 1389 0026 0328     		cmp	r0, #3
 1390 0028 18BF     		it	ne
 1391 002a 0028     		cmpne	r0, #0
 1392 002c 04D1     		bne	.L100
 705:Middlewares/ST/STM32_USB_Host_Library/Core/Src/usbh_ctlreq.c ****         phost->Control.state = CTRL_IDLE;
 1393              		.loc 1 705 9 is_stmt 1 view .LVU492
ARM GAS  /tmp/ccXc1b7R.s 			page 51


 705:Middlewares/ST/STM32_USB_Host_Library/Core/Src/usbh_ctlreq.c ****         phost->Control.state = CTRL_IDLE;
 1394              		.loc 1 705 29 is_stmt 0 view .LVU493
 1395 002e 0123     		movs	r3, #1
 1396 0030 A370     		strb	r3, [r4, #2]
 706:Middlewares/ST/STM32_USB_Host_Library/Core/Src/usbh_ctlreq.c ****       }
 1397              		.loc 1 706 9 is_stmt 1 view .LVU494
 706:Middlewares/ST/STM32_USB_Host_Library/Core/Src/usbh_ctlreq.c ****       }
 1398              		.loc 1 706 30 is_stmt 0 view .LVU495
 1399 0032 0023     		movs	r3, #0
 1400 0034 2376     		strb	r3, [r4, #24]
 1401 0036 EBE7     		b	.L99
 1402              	.L100:
 708:Middlewares/ST/STM32_USB_Host_Library/Core/Src/usbh_ctlreq.c ****       {
 1403              		.loc 1 708 12 is_stmt 1 view .LVU496
 708:Middlewares/ST/STM32_USB_Host_Library/Core/Src/usbh_ctlreq.c ****       {
 1404              		.loc 1 708 15 is_stmt 0 view .LVU497
 1405 0038 0228     		cmp	r0, #2
 1406 003a E9D1     		bne	.L99
 711:Middlewares/ST/STM32_USB_Host_Library/Core/Src/usbh_ctlreq.c ****       }
 1407              		.loc 1 711 9 is_stmt 1 view .LVU498
 711:Middlewares/ST/STM32_USB_Host_Library/Core/Src/usbh_ctlreq.c ****       }
 1408              		.loc 1 711 29 is_stmt 0 view .LVU499
 1409 003c 0123     		movs	r3, #1
 1410 003e A370     		strb	r3, [r4, #2]
 1411 0040 E6E7     		b	.L99
 1412              		.cfi_endproc
 1413              	.LFE159:
 1415              		.section	.text.USBH_GetDescriptor,"ax",%progbits
 1416              		.align	1
 1417              		.global	USBH_GetDescriptor
 1418              		.syntax unified
 1419              		.thumb
 1420              		.thumb_func
 1422              	USBH_GetDescriptor:
 1423              	.LVL121:
 1424              	.LFB147:
 198:Middlewares/ST/STM32_USB_Host_Library/Core/Src/usbh_ctlreq.c ****   if (phost->RequestState == CMD_SEND)
 1425              		.loc 1 198 1 is_stmt 1 view -0
 1426              		.cfi_startproc
 1427              		@ args = 4, pretend = 0, frame = 0
 1428              		@ frame_needed = 0, uses_anonymous_args = 0
 198:Middlewares/ST/STM32_USB_Host_Library/Core/Src/usbh_ctlreq.c ****   if (phost->RequestState == CMD_SEND)
 1429              		.loc 1 198 1 is_stmt 0 view .LVU501
 1430 0000 08B5     		push	{r3, lr}
 1431              	.LCFI13:
 1432              		.cfi_def_cfa_offset 8
 1433              		.cfi_offset 3, -8
 1434              		.cfi_offset 14, -4
 1435 0002 8E46     		mov	lr, r1
 1436 0004 9446     		mov	ip, r2
 1437 0006 1946     		mov	r1, r3
 1438              	.LVL122:
 198:Middlewares/ST/STM32_USB_Host_Library/Core/Src/usbh_ctlreq.c ****   if (phost->RequestState == CMD_SEND)
 1439              		.loc 1 198 1 view .LVU502
 1440 0008 BDF80820 		ldrh	r2, [sp, #8]
 1441              	.LVL123:
 199:Middlewares/ST/STM32_USB_Host_Library/Core/Src/usbh_ctlreq.c ****   {
ARM GAS  /tmp/ccXc1b7R.s 			page 52


 1442              		.loc 1 199 3 is_stmt 1 view .LVU503
 199:Middlewares/ST/STM32_USB_Host_Library/Core/Src/usbh_ctlreq.c ****   {
 1443              		.loc 1 199 12 is_stmt 0 view .LVU504
 1444 000c 8378     		ldrb	r3, [r0, #2]	@ zero_extendqisi2
 1445              	.LVL124:
 199:Middlewares/ST/STM32_USB_Host_Library/Core/Src/usbh_ctlreq.c ****   {
 1446              		.loc 1 199 6 view .LVU505
 1447 000e 012B     		cmp	r3, #1
 1448 0010 02D0     		beq	.L107
 1449              	.L103:
 216:Middlewares/ST/STM32_USB_Host_Library/Core/Src/usbh_ctlreq.c **** }
 1450              		.loc 1 216 3 is_stmt 1 view .LVU506
 216:Middlewares/ST/STM32_USB_Host_Library/Core/Src/usbh_ctlreq.c **** }
 1451              		.loc 1 216 10 is_stmt 0 view .LVU507
 1452 0012 FFF7FEFF 		bl	USBH_CtlReq
 1453              	.LVL125:
 217:Middlewares/ST/STM32_USB_Host_Library/Core/Src/usbh_ctlreq.c **** 
 1454              		.loc 1 217 1 view .LVU508
 1455 0016 08BD     		pop	{r3, pc}
 1456              	.LVL126:
 1457              	.L107:
 201:Middlewares/ST/STM32_USB_Host_Library/Core/Src/usbh_ctlreq.c ****     phost->Control.setup.b.bRequest = USB_REQ_GET_DESCRIPTOR;
 1458              		.loc 1 201 5 is_stmt 1 view .LVU509
 201:Middlewares/ST/STM32_USB_Host_Library/Core/Src/usbh_ctlreq.c ****     phost->Control.setup.b.bRequest = USB_REQ_GET_DESCRIPTOR;
 1459              		.loc 1 201 42 is_stmt 0 view .LVU510
 1460 0018 6EF07F0E 		orn	lr, lr, #127
 1461 001c 80F810E0 		strb	lr, [r0, #16]
 202:Middlewares/ST/STM32_USB_Host_Library/Core/Src/usbh_ctlreq.c ****     phost->Control.setup.b.wValue.w = value_idx;
 1462              		.loc 1 202 5 is_stmt 1 view .LVU511
 202:Middlewares/ST/STM32_USB_Host_Library/Core/Src/usbh_ctlreq.c ****     phost->Control.setup.b.wValue.w = value_idx;
 1463              		.loc 1 202 37 is_stmt 0 view .LVU512
 1464 0020 0623     		movs	r3, #6
 1465 0022 4374     		strb	r3, [r0, #17]
 203:Middlewares/ST/STM32_USB_Host_Library/Core/Src/usbh_ctlreq.c **** 
 1466              		.loc 1 203 5 is_stmt 1 view .LVU513
 203:Middlewares/ST/STM32_USB_Host_Library/Core/Src/usbh_ctlreq.c **** 
 1467              		.loc 1 203 37 is_stmt 0 view .LVU514
 1468 0024 A0F812C0 		strh	ip, [r0, #18]	@ movhi
 205:Middlewares/ST/STM32_USB_Host_Library/Core/Src/usbh_ctlreq.c ****     {
 1469              		.loc 1 205 5 is_stmt 1 view .LVU515
 205:Middlewares/ST/STM32_USB_Host_Library/Core/Src/usbh_ctlreq.c ****     {
 1470              		.loc 1 205 8 is_stmt 0 view .LVU516
 1471 0028 0CF47F4C 		and	ip, ip, #65280
 1472 002c BCF5407F 		cmp	ip, #768
 1473 0030 03D0     		beq	.L108
 211:Middlewares/ST/STM32_USB_Host_Library/Core/Src/usbh_ctlreq.c ****     }
 1474              		.loc 1 211 7 is_stmt 1 view .LVU517
 211:Middlewares/ST/STM32_USB_Host_Library/Core/Src/usbh_ctlreq.c ****     }
 1475              		.loc 1 211 39 is_stmt 0 view .LVU518
 1476 0032 0023     		movs	r3, #0
 1477 0034 8382     		strh	r3, [r0, #20]	@ movhi
 1478              	.L105:
 213:Middlewares/ST/STM32_USB_Host_Library/Core/Src/usbh_ctlreq.c ****   }
 1479              		.loc 1 213 5 is_stmt 1 view .LVU519
 213:Middlewares/ST/STM32_USB_Host_Library/Core/Src/usbh_ctlreq.c ****   }
 1480              		.loc 1 213 38 is_stmt 0 view .LVU520
 1481 0036 C282     		strh	r2, [r0, #22]	@ movhi
ARM GAS  /tmp/ccXc1b7R.s 			page 53


 1482 0038 EBE7     		b	.L103
 1483              	.L108:
 207:Middlewares/ST/STM32_USB_Host_Library/Core/Src/usbh_ctlreq.c ****     }
 1484              		.loc 1 207 7 is_stmt 1 view .LVU521
 207:Middlewares/ST/STM32_USB_Host_Library/Core/Src/usbh_ctlreq.c ****     }
 1485              		.loc 1 207 39 is_stmt 0 view .LVU522
 1486 003a 40F20943 		movw	r3, #1033
 1487 003e 8382     		strh	r3, [r0, #20]	@ movhi
 1488 0040 F9E7     		b	.L105
 1489              		.cfi_endproc
 1490              	.LFE147:
 1492              		.section	.text.USBH_Get_DevDesc,"ax",%progbits
 1493              		.align	1
 1494              		.global	USBH_Get_DevDesc
 1495              		.syntax unified
 1496              		.thumb
 1497              		.thumb_func
 1499              	USBH_Get_DevDesc:
 1500              	.LVL127:
 1501              	.LFB144:
 103:Middlewares/ST/STM32_USB_Host_Library/Core/Src/usbh_ctlreq.c ****   USBH_StatusTypeDef status;
 1502              		.loc 1 103 1 is_stmt 1 view -0
 1503              		.cfi_startproc
 1504              		@ args = 0, pretend = 0, frame = 0
 1505              		@ frame_needed = 0, uses_anonymous_args = 0
 103:Middlewares/ST/STM32_USB_Host_Library/Core/Src/usbh_ctlreq.c ****   USBH_StatusTypeDef status;
 1506              		.loc 1 103 1 is_stmt 0 view .LVU524
 1507 0000 F0B5     		push	{r4, r5, r6, r7, lr}
 1508              	.LCFI14:
 1509              		.cfi_def_cfa_offset 20
 1510              		.cfi_offset 4, -20
 1511              		.cfi_offset 5, -16
 1512              		.cfi_offset 6, -12
 1513              		.cfi_offset 7, -8
 1514              		.cfi_offset 14, -4
 1515 0002 83B0     		sub	sp, sp, #12
 1516              	.LCFI15:
 1517              		.cfi_def_cfa_offset 32
 1518 0004 0446     		mov	r4, r0
 1519 0006 0D46     		mov	r5, r1
 104:Middlewares/ST/STM32_USB_Host_Library/Core/Src/usbh_ctlreq.c **** 
 1520              		.loc 1 104 3 is_stmt 1 view .LVU525
 106:Middlewares/ST/STM32_USB_Host_Library/Core/Src/usbh_ctlreq.c ****                               USB_REQ_RECIPIENT_DEVICE | USB_REQ_TYPE_STANDARD,
 1521              		.loc 1 106 3 view .LVU526
 108:Middlewares/ST/STM32_USB_Host_Library/Core/Src/usbh_ctlreq.c ****                               (uint16_t)length);
 1522              		.loc 1 108 61 is_stmt 0 view .LVU527
 1523 0008 00F58E76 		add	r6, r0, #284
 106:Middlewares/ST/STM32_USB_Host_Library/Core/Src/usbh_ctlreq.c ****                               USB_REQ_RECIPIENT_DEVICE | USB_REQ_TYPE_STANDARD,
 1524              		.loc 1 106 12 view .LVU528
 1525 000c 0091     		str	r1, [sp]
 1526 000e 3346     		mov	r3, r6
 1527 0010 4FF48072 		mov	r2, #256
 1528 0014 0021     		movs	r1, #0
 1529              	.LVL128:
 106:Middlewares/ST/STM32_USB_Host_Library/Core/Src/usbh_ctlreq.c ****                               USB_REQ_RECIPIENT_DEVICE | USB_REQ_TYPE_STANDARD,
 1530              		.loc 1 106 12 view .LVU529
 1531 0016 FFF7FEFF 		bl	USBH_GetDescriptor
ARM GAS  /tmp/ccXc1b7R.s 			page 54


 1532              	.LVL129:
 111:Middlewares/ST/STM32_USB_Host_Library/Core/Src/usbh_ctlreq.c ****   {
 1533              		.loc 1 111 3 is_stmt 1 view .LVU530
 111:Middlewares/ST/STM32_USB_Host_Library/Core/Src/usbh_ctlreq.c ****   {
 1534              		.loc 1 111 6 is_stmt 0 view .LVU531
 1535 001a 0746     		mov	r7, r0
 1536 001c 10B1     		cbz	r0, .L112
 1537              	.LVL130:
 1538              	.L110:
 118:Middlewares/ST/STM32_USB_Host_Library/Core/Src/usbh_ctlreq.c **** }
 1539              		.loc 1 118 3 is_stmt 1 view .LVU532
 119:Middlewares/ST/STM32_USB_Host_Library/Core/Src/usbh_ctlreq.c **** 
 1540              		.loc 1 119 1 is_stmt 0 view .LVU533
 1541 001e 3846     		mov	r0, r7
 1542 0020 03B0     		add	sp, sp, #12
 1543              	.LCFI16:
 1544              		.cfi_remember_state
 1545              		.cfi_def_cfa_offset 20
 1546              		@ sp needed
 1547 0022 F0BD     		pop	{r4, r5, r6, r7, pc}
 1548              	.LVL131:
 1549              	.L112:
 1550              	.LCFI17:
 1551              		.cfi_restore_state
 114:Middlewares/ST/STM32_USB_Host_Library/Core/Src/usbh_ctlreq.c ****                       (uint16_t)length);
 1552              		.loc 1 114 5 is_stmt 1 view .LVU534
 1553 0024 2A46     		mov	r2, r5
 1554 0026 3146     		mov	r1, r6
 1555 0028 04F22630 		addw	r0, r4, #806
 1556              	.LVL132:
 114:Middlewares/ST/STM32_USB_Host_Library/Core/Src/usbh_ctlreq.c ****                       (uint16_t)length);
 1557              		.loc 1 114 5 is_stmt 0 view .LVU535
 1558 002c FFF7FEFF 		bl	USBH_ParseDevDesc
 1559              	.LVL133:
 1560 0030 F5E7     		b	.L110
 1561              		.cfi_endproc
 1562              	.LFE144:
 1564              		.section	.text.USBH_Get_CfgDesc,"ax",%progbits
 1565              		.align	1
 1566              		.global	USBH_Get_CfgDesc
 1567              		.syntax unified
 1568              		.thumb
 1569              		.thumb_func
 1571              	USBH_Get_CfgDesc:
 1572              	.LVL134:
 1573              	.LFB145:
 134:Middlewares/ST/STM32_USB_Host_Library/Core/Src/usbh_ctlreq.c ****   USBH_StatusTypeDef status;
 1574              		.loc 1 134 1 is_stmt 1 view -0
 1575              		.cfi_startproc
 1576              		@ args = 0, pretend = 0, frame = 0
 1577              		@ frame_needed = 0, uses_anonymous_args = 0
 134:Middlewares/ST/STM32_USB_Host_Library/Core/Src/usbh_ctlreq.c ****   USBH_StatusTypeDef status;
 1578              		.loc 1 134 1 is_stmt 0 view .LVU537
 1579 0000 70B5     		push	{r4, r5, r6, lr}
 1580              	.LCFI18:
 1581              		.cfi_def_cfa_offset 16
 1582              		.cfi_offset 4, -16
ARM GAS  /tmp/ccXc1b7R.s 			page 55


 1583              		.cfi_offset 5, -12
 1584              		.cfi_offset 6, -8
 1585              		.cfi_offset 14, -4
 1586 0002 82B0     		sub	sp, sp, #8
 1587              	.LCFI19:
 1588              		.cfi_def_cfa_offset 24
 1589 0004 0446     		mov	r4, r0
 1590 0006 0D46     		mov	r5, r1
 135:Middlewares/ST/STM32_USB_Host_Library/Core/Src/usbh_ctlreq.c ****   uint8_t *pData = phost->device.CfgDesc_Raw;
 1591              		.loc 1 135 3 is_stmt 1 view .LVU538
 136:Middlewares/ST/STM32_USB_Host_Library/Core/Src/usbh_ctlreq.c **** 
 1592              		.loc 1 136 3 view .LVU539
 136:Middlewares/ST/STM32_USB_Host_Library/Core/Src/usbh_ctlreq.c **** 
 1593              		.loc 1 136 12 is_stmt 0 view .LVU540
 1594 0008 00F11C06 		add	r6, r0, #28
 1595              	.LVL135:
 138:Middlewares/ST/STM32_USB_Host_Library/Core/Src/usbh_ctlreq.c ****                               USB_DESC_CONFIGURATION, pData, length);
 1596              		.loc 1 138 3 is_stmt 1 view .LVU541
 138:Middlewares/ST/STM32_USB_Host_Library/Core/Src/usbh_ctlreq.c ****                               USB_DESC_CONFIGURATION, pData, length);
 1597              		.loc 1 138 12 is_stmt 0 view .LVU542
 1598 000c 0091     		str	r1, [sp]
 1599 000e 3346     		mov	r3, r6
 1600 0010 4FF40072 		mov	r2, #512
 1601 0014 0021     		movs	r1, #0
 1602              	.LVL136:
 138:Middlewares/ST/STM32_USB_Host_Library/Core/Src/usbh_ctlreq.c ****                               USB_DESC_CONFIGURATION, pData, length);
 1603              		.loc 1 138 12 view .LVU543
 1604 0016 FFF7FEFF 		bl	USBH_GetDescriptor
 1605              	.LVL137:
 141:Middlewares/ST/STM32_USB_Host_Library/Core/Src/usbh_ctlreq.c ****   {
 1606              		.loc 1 141 3 is_stmt 1 view .LVU544
 141:Middlewares/ST/STM32_USB_Host_Library/Core/Src/usbh_ctlreq.c ****   {
 1607              		.loc 1 141 6 is_stmt 0 view .LVU545
 1608 001a 08B1     		cbz	r0, .L116
 1609              	.LVL138:
 1610              	.L114:
 147:Middlewares/ST/STM32_USB_Host_Library/Core/Src/usbh_ctlreq.c **** }
 1611              		.loc 1 147 3 is_stmt 1 view .LVU546
 148:Middlewares/ST/STM32_USB_Host_Library/Core/Src/usbh_ctlreq.c **** 
 1612              		.loc 1 148 1 is_stmt 0 view .LVU547
 1613 001c 02B0     		add	sp, sp, #8
 1614              	.LCFI20:
 1615              		.cfi_remember_state
 1616              		.cfi_def_cfa_offset 16
 1617              		@ sp needed
 1618 001e 70BD     		pop	{r4, r5, r6, pc}
 1619              	.LVL139:
 1620              	.L116:
 1621              	.LCFI21:
 1622              		.cfi_restore_state
 144:Middlewares/ST/STM32_USB_Host_Library/Core/Src/usbh_ctlreq.c ****   }
 1623              		.loc 1 144 5 is_stmt 1 view .LVU548
 144:Middlewares/ST/STM32_USB_Host_Library/Core/Src/usbh_ctlreq.c ****   }
 1624              		.loc 1 144 14 is_stmt 0 view .LVU549
 1625 0020 2A46     		mov	r2, r5
 1626 0022 3146     		mov	r1, r6
 1627 0024 2046     		mov	r0, r4
ARM GAS  /tmp/ccXc1b7R.s 			page 56


 1628 0026 FFF7FEFF 		bl	USBH_ParseCfgDesc
 1629              	.LVL140:
 144:Middlewares/ST/STM32_USB_Host_Library/Core/Src/usbh_ctlreq.c ****   }
 1630              		.loc 1 144 14 view .LVU550
 1631 002a F7E7     		b	.L114
 1632              		.cfi_endproc
 1633              	.LFE145:
 1635              		.section	.text.USBH_Get_StringDesc,"ax",%progbits
 1636              		.align	1
 1637              		.global	USBH_Get_StringDesc
 1638              		.syntax unified
 1639              		.thumb
 1640              		.thumb_func
 1642              	USBH_Get_StringDesc:
 1643              	.LVL141:
 1644              	.LFB146:
 164:Middlewares/ST/STM32_USB_Host_Library/Core/Src/usbh_ctlreq.c ****   USBH_StatusTypeDef status;
 1645              		.loc 1 164 1 is_stmt 1 view -0
 1646              		.cfi_startproc
 1647              		@ args = 0, pretend = 0, frame = 0
 1648              		@ frame_needed = 0, uses_anonymous_args = 0
 164:Middlewares/ST/STM32_USB_Host_Library/Core/Src/usbh_ctlreq.c ****   USBH_StatusTypeDef status;
 1649              		.loc 1 164 1 is_stmt 0 view .LVU552
 1650 0000 F0B5     		push	{r4, r5, r6, r7, lr}
 1651              	.LCFI22:
 1652              		.cfi_def_cfa_offset 20
 1653              		.cfi_offset 4, -20
 1654              		.cfi_offset 5, -16
 1655              		.cfi_offset 6, -12
 1656              		.cfi_offset 7, -8
 1657              		.cfi_offset 14, -4
 1658 0002 83B0     		sub	sp, sp, #12
 1659              	.LCFI23:
 1660              		.cfi_def_cfa_offset 32
 1661 0004 1646     		mov	r6, r2
 1662 0006 1D46     		mov	r5, r3
 165:Middlewares/ST/STM32_USB_Host_Library/Core/Src/usbh_ctlreq.c **** 
 1663              		.loc 1 165 3 is_stmt 1 view .LVU553
 167:Middlewares/ST/STM32_USB_Host_Library/Core/Src/usbh_ctlreq.c ****                               USB_REQ_RECIPIENT_DEVICE | USB_REQ_TYPE_STANDARD,
 1664              		.loc 1 167 3 view .LVU554
 170:Middlewares/ST/STM32_USB_Host_Library/Core/Src/usbh_ctlreq.c **** 
 1665              		.loc 1 170 44 is_stmt 0 view .LVU555
 1666 0008 00F58E74 		add	r4, r0, #284
 167:Middlewares/ST/STM32_USB_Host_Library/Core/Src/usbh_ctlreq.c ****                               USB_REQ_RECIPIENT_DEVICE | USB_REQ_TYPE_STANDARD,
 1667              		.loc 1 167 12 view .LVU556
 1668 000c 0093     		str	r3, [sp]
 1669 000e 2346     		mov	r3, r4
 1670              	.LVL142:
 167:Middlewares/ST/STM32_USB_Host_Library/Core/Src/usbh_ctlreq.c ****                               USB_REQ_RECIPIENT_DEVICE | USB_REQ_TYPE_STANDARD,
 1671              		.loc 1 167 12 view .LVU557
 1672 0010 41F44072 		orr	r2, r1, #768
 1673              	.LVL143:
 167:Middlewares/ST/STM32_USB_Host_Library/Core/Src/usbh_ctlreq.c ****                               USB_REQ_RECIPIENT_DEVICE | USB_REQ_TYPE_STANDARD,
 1674              		.loc 1 167 12 view .LVU558
 1675 0014 0021     		movs	r1, #0
 1676              	.LVL144:
 167:Middlewares/ST/STM32_USB_Host_Library/Core/Src/usbh_ctlreq.c ****                               USB_REQ_RECIPIENT_DEVICE | USB_REQ_TYPE_STANDARD,
ARM GAS  /tmp/ccXc1b7R.s 			page 57


 1677              		.loc 1 167 12 view .LVU559
 1678 0016 FFF7FEFF 		bl	USBH_GetDescriptor
 1679              	.LVL145:
 172:Middlewares/ST/STM32_USB_Host_Library/Core/Src/usbh_ctlreq.c ****   {
 1680              		.loc 1 172 3 is_stmt 1 view .LVU560
 172:Middlewares/ST/STM32_USB_Host_Library/Core/Src/usbh_ctlreq.c ****   {
 1681              		.loc 1 172 6 is_stmt 0 view .LVU561
 1682 001a 0746     		mov	r7, r0
 1683 001c 10B1     		cbz	r0, .L120
 1684              	.LVL146:
 1685              	.L118:
 178:Middlewares/ST/STM32_USB_Host_Library/Core/Src/usbh_ctlreq.c **** }
 1686              		.loc 1 178 3 is_stmt 1 view .LVU562
 179:Middlewares/ST/STM32_USB_Host_Library/Core/Src/usbh_ctlreq.c **** 
 1687              		.loc 1 179 1 is_stmt 0 view .LVU563
 1688 001e 3846     		mov	r0, r7
 1689 0020 03B0     		add	sp, sp, #12
 1690              	.LCFI24:
 1691              		.cfi_remember_state
 1692              		.cfi_def_cfa_offset 20
 1693              		@ sp needed
 1694 0022 F0BD     		pop	{r4, r5, r6, r7, pc}
 1695              	.LVL147:
 1696              	.L120:
 1697              	.LCFI25:
 1698              		.cfi_restore_state
 175:Middlewares/ST/STM32_USB_Host_Library/Core/Src/usbh_ctlreq.c ****   }
 1699              		.loc 1 175 5 is_stmt 1 view .LVU564
 1700 0024 2A46     		mov	r2, r5
 1701 0026 3146     		mov	r1, r6
 1702 0028 2046     		mov	r0, r4
 1703              	.LVL148:
 175:Middlewares/ST/STM32_USB_Host_Library/Core/Src/usbh_ctlreq.c ****   }
 1704              		.loc 1 175 5 is_stmt 0 view .LVU565
 1705 002a FFF7FEFF 		bl	USBH_ParseStringDesc
 1706              	.LVL149:
 1707 002e F6E7     		b	.L118
 1708              		.cfi_endproc
 1709              	.LFE146:
 1711              		.section	.text.USBH_SetAddress,"ax",%progbits
 1712              		.align	1
 1713              		.global	USBH_SetAddress
 1714              		.syntax unified
 1715              		.thumb
 1716              		.thumb_func
 1718              	USBH_SetAddress:
 1719              	.LVL150:
 1720              	.LFB148:
 229:Middlewares/ST/STM32_USB_Host_Library/Core/Src/usbh_ctlreq.c ****   if (phost->RequestState == CMD_SEND)
 1721              		.loc 1 229 1 is_stmt 1 view -0
 1722              		.cfi_startproc
 1723              		@ args = 0, pretend = 0, frame = 0
 1724              		@ frame_needed = 0, uses_anonymous_args = 0
 229:Middlewares/ST/STM32_USB_Host_Library/Core/Src/usbh_ctlreq.c ****   if (phost->RequestState == CMD_SEND)
 1725              		.loc 1 229 1 is_stmt 0 view .LVU567
 1726 0000 08B5     		push	{r3, lr}
 1727              	.LCFI26:
ARM GAS  /tmp/ccXc1b7R.s 			page 58


 1728              		.cfi_def_cfa_offset 8
 1729              		.cfi_offset 3, -8
 1730              		.cfi_offset 14, -4
 230:Middlewares/ST/STM32_USB_Host_Library/Core/Src/usbh_ctlreq.c ****   {
 1731              		.loc 1 230 3 is_stmt 1 view .LVU568
 230:Middlewares/ST/STM32_USB_Host_Library/Core/Src/usbh_ctlreq.c ****   {
 1732              		.loc 1 230 12 is_stmt 0 view .LVU569
 1733 0002 8378     		ldrb	r3, [r0, #2]	@ zero_extendqisi2
 230:Middlewares/ST/STM32_USB_Host_Library/Core/Src/usbh_ctlreq.c ****   {
 1734              		.loc 1 230 6 view .LVU570
 1735 0004 012B     		cmp	r3, #1
 1736 0006 04D0     		beq	.L124
 1737              	.L122:
 242:Middlewares/ST/STM32_USB_Host_Library/Core/Src/usbh_ctlreq.c **** }
 1738              		.loc 1 242 3 is_stmt 1 view .LVU571
 242:Middlewares/ST/STM32_USB_Host_Library/Core/Src/usbh_ctlreq.c **** }
 1739              		.loc 1 242 10 is_stmt 0 view .LVU572
 1740 0008 0022     		movs	r2, #0
 1741 000a 1146     		mov	r1, r2
 1742              	.LVL151:
 242:Middlewares/ST/STM32_USB_Host_Library/Core/Src/usbh_ctlreq.c **** }
 1743              		.loc 1 242 10 view .LVU573
 1744 000c FFF7FEFF 		bl	USBH_CtlReq
 1745              	.LVL152:
 243:Middlewares/ST/STM32_USB_Host_Library/Core/Src/usbh_ctlreq.c **** 
 1746              		.loc 1 243 1 view .LVU574
 1747 0010 08BD     		pop	{r3, pc}
 1748              	.LVL153:
 1749              	.L124:
 232:Middlewares/ST/STM32_USB_Host_Library/Core/Src/usbh_ctlreq.c ****                                            USB_REQ_TYPE_STANDARD;
 1750              		.loc 1 232 5 is_stmt 1 view .LVU575
 232:Middlewares/ST/STM32_USB_Host_Library/Core/Src/usbh_ctlreq.c ****                                            USB_REQ_TYPE_STANDARD;
 1751              		.loc 1 232 42 is_stmt 0 view .LVU576
 1752 0012 0023     		movs	r3, #0
 1753 0014 0374     		strb	r3, [r0, #16]
 235:Middlewares/ST/STM32_USB_Host_Library/Core/Src/usbh_ctlreq.c **** 
 1754              		.loc 1 235 5 is_stmt 1 view .LVU577
 235:Middlewares/ST/STM32_USB_Host_Library/Core/Src/usbh_ctlreq.c **** 
 1755              		.loc 1 235 37 is_stmt 0 view .LVU578
 1756 0016 0522     		movs	r2, #5
 1757 0018 4274     		strb	r2, [r0, #17]
 237:Middlewares/ST/STM32_USB_Host_Library/Core/Src/usbh_ctlreq.c ****     phost->Control.setup.b.wIndex.w = 0U;
 1758              		.loc 1 237 5 is_stmt 1 view .LVU579
 237:Middlewares/ST/STM32_USB_Host_Library/Core/Src/usbh_ctlreq.c ****     phost->Control.setup.b.wIndex.w = 0U;
 1759              		.loc 1 237 37 is_stmt 0 view .LVU580
 1760 001a 4182     		strh	r1, [r0, #18]	@ movhi
 238:Middlewares/ST/STM32_USB_Host_Library/Core/Src/usbh_ctlreq.c ****     phost->Control.setup.b.wLength.w = 0U;
 1761              		.loc 1 238 5 is_stmt 1 view .LVU581
 238:Middlewares/ST/STM32_USB_Host_Library/Core/Src/usbh_ctlreq.c ****     phost->Control.setup.b.wLength.w = 0U;
 1762              		.loc 1 238 37 is_stmt 0 view .LVU582
 1763 001c 8382     		strh	r3, [r0, #20]	@ movhi
 239:Middlewares/ST/STM32_USB_Host_Library/Core/Src/usbh_ctlreq.c ****   }
 1764              		.loc 1 239 5 is_stmt 1 view .LVU583
 239:Middlewares/ST/STM32_USB_Host_Library/Core/Src/usbh_ctlreq.c ****   }
 1765              		.loc 1 239 38 is_stmt 0 view .LVU584
 1766 001e C382     		strh	r3, [r0, #22]	@ movhi
 1767 0020 F2E7     		b	.L122
ARM GAS  /tmp/ccXc1b7R.s 			page 59


 1768              		.cfi_endproc
 1769              	.LFE148:
 1771              		.section	.text.USBH_SetCfg,"ax",%progbits
 1772              		.align	1
 1773              		.global	USBH_SetCfg
 1774              		.syntax unified
 1775              		.thumb
 1776              		.thumb_func
 1778              	USBH_SetCfg:
 1779              	.LVL154:
 1780              	.LFB149:
 254:Middlewares/ST/STM32_USB_Host_Library/Core/Src/usbh_ctlreq.c ****   if (phost->RequestState == CMD_SEND)
 1781              		.loc 1 254 1 is_stmt 1 view -0
 1782              		.cfi_startproc
 1783              		@ args = 0, pretend = 0, frame = 0
 1784              		@ frame_needed = 0, uses_anonymous_args = 0
 254:Middlewares/ST/STM32_USB_Host_Library/Core/Src/usbh_ctlreq.c ****   if (phost->RequestState == CMD_SEND)
 1785              		.loc 1 254 1 is_stmt 0 view .LVU586
 1786 0000 08B5     		push	{r3, lr}
 1787              	.LCFI27:
 1788              		.cfi_def_cfa_offset 8
 1789              		.cfi_offset 3, -8
 1790              		.cfi_offset 14, -4
 255:Middlewares/ST/STM32_USB_Host_Library/Core/Src/usbh_ctlreq.c ****   {
 1791              		.loc 1 255 3 is_stmt 1 view .LVU587
 255:Middlewares/ST/STM32_USB_Host_Library/Core/Src/usbh_ctlreq.c ****   {
 1792              		.loc 1 255 12 is_stmt 0 view .LVU588
 1793 0002 8378     		ldrb	r3, [r0, #2]	@ zero_extendqisi2
 255:Middlewares/ST/STM32_USB_Host_Library/Core/Src/usbh_ctlreq.c ****   {
 1794              		.loc 1 255 6 view .LVU589
 1795 0004 012B     		cmp	r3, #1
 1796 0006 04D0     		beq	.L128
 1797              	.L126:
 266:Middlewares/ST/STM32_USB_Host_Library/Core/Src/usbh_ctlreq.c **** }
 1798              		.loc 1 266 3 is_stmt 1 view .LVU590
 266:Middlewares/ST/STM32_USB_Host_Library/Core/Src/usbh_ctlreq.c **** }
 1799              		.loc 1 266 10 is_stmt 0 view .LVU591
 1800 0008 0022     		movs	r2, #0
 1801 000a 1146     		mov	r1, r2
 1802              	.LVL155:
 266:Middlewares/ST/STM32_USB_Host_Library/Core/Src/usbh_ctlreq.c **** }
 1803              		.loc 1 266 10 view .LVU592
 1804 000c FFF7FEFF 		bl	USBH_CtlReq
 1805              	.LVL156:
 267:Middlewares/ST/STM32_USB_Host_Library/Core/Src/usbh_ctlreq.c **** 
 1806              		.loc 1 267 1 view .LVU593
 1807 0010 08BD     		pop	{r3, pc}
 1808              	.LVL157:
 1809              	.L128:
 257:Middlewares/ST/STM32_USB_Host_Library/Core/Src/usbh_ctlreq.c ****                                            | USB_REQ_TYPE_STANDARD;
 1810              		.loc 1 257 5 is_stmt 1 view .LVU594
 257:Middlewares/ST/STM32_USB_Host_Library/Core/Src/usbh_ctlreq.c ****                                            | USB_REQ_TYPE_STANDARD;
 1811              		.loc 1 257 42 is_stmt 0 view .LVU595
 1812 0012 0023     		movs	r3, #0
 1813 0014 0374     		strb	r3, [r0, #16]
 260:Middlewares/ST/STM32_USB_Host_Library/Core/Src/usbh_ctlreq.c ****     phost->Control.setup.b.wValue.w = cfg_idx;
 1814              		.loc 1 260 5 is_stmt 1 view .LVU596
ARM GAS  /tmp/ccXc1b7R.s 			page 60


 260:Middlewares/ST/STM32_USB_Host_Library/Core/Src/usbh_ctlreq.c ****     phost->Control.setup.b.wValue.w = cfg_idx;
 1815              		.loc 1 260 37 is_stmt 0 view .LVU597
 1816 0016 0922     		movs	r2, #9
 1817 0018 4274     		strb	r2, [r0, #17]
 261:Middlewares/ST/STM32_USB_Host_Library/Core/Src/usbh_ctlreq.c ****     phost->Control.setup.b.wIndex.w = 0U;
 1818              		.loc 1 261 5 is_stmt 1 view .LVU598
 261:Middlewares/ST/STM32_USB_Host_Library/Core/Src/usbh_ctlreq.c ****     phost->Control.setup.b.wIndex.w = 0U;
 1819              		.loc 1 261 37 is_stmt 0 view .LVU599
 1820 001a 4182     		strh	r1, [r0, #18]	@ movhi
 262:Middlewares/ST/STM32_USB_Host_Library/Core/Src/usbh_ctlreq.c ****     phost->Control.setup.b.wLength.w = 0U;
 1821              		.loc 1 262 5 is_stmt 1 view .LVU600
 262:Middlewares/ST/STM32_USB_Host_Library/Core/Src/usbh_ctlreq.c ****     phost->Control.setup.b.wLength.w = 0U;
 1822              		.loc 1 262 37 is_stmt 0 view .LVU601
 1823 001c 8382     		strh	r3, [r0, #20]	@ movhi
 263:Middlewares/ST/STM32_USB_Host_Library/Core/Src/usbh_ctlreq.c ****   }
 1824              		.loc 1 263 5 is_stmt 1 view .LVU602
 263:Middlewares/ST/STM32_USB_Host_Library/Core/Src/usbh_ctlreq.c ****   }
 1825              		.loc 1 263 38 is_stmt 0 view .LVU603
 1826 001e C382     		strh	r3, [r0, #22]	@ movhi
 1827 0020 F2E7     		b	.L126
 1828              		.cfi_endproc
 1829              	.LFE149:
 1831              		.section	.text.USBH_SetInterface,"ax",%progbits
 1832              		.align	1
 1833              		.global	USBH_SetInterface
 1834              		.syntax unified
 1835              		.thumb
 1836              		.thumb_func
 1838              	USBH_SetInterface:
 1839              	.LVL158:
 1840              	.LFB150:
 279:Middlewares/ST/STM32_USB_Host_Library/Core/Src/usbh_ctlreq.c ****   if (phost->RequestState == CMD_SEND)
 1841              		.loc 1 279 1 is_stmt 1 view -0
 1842              		.cfi_startproc
 1843              		@ args = 0, pretend = 0, frame = 0
 1844              		@ frame_needed = 0, uses_anonymous_args = 0
 279:Middlewares/ST/STM32_USB_Host_Library/Core/Src/usbh_ctlreq.c ****   if (phost->RequestState == CMD_SEND)
 1845              		.loc 1 279 1 is_stmt 0 view .LVU605
 1846 0000 08B5     		push	{r3, lr}
 1847              	.LCFI28:
 1848              		.cfi_def_cfa_offset 8
 1849              		.cfi_offset 3, -8
 1850              		.cfi_offset 14, -4
 280:Middlewares/ST/STM32_USB_Host_Library/Core/Src/usbh_ctlreq.c ****   {
 1851              		.loc 1 280 3 is_stmt 1 view .LVU606
 280:Middlewares/ST/STM32_USB_Host_Library/Core/Src/usbh_ctlreq.c ****   {
 1852              		.loc 1 280 12 is_stmt 0 view .LVU607
 1853 0002 8378     		ldrb	r3, [r0, #2]	@ zero_extendqisi2
 280:Middlewares/ST/STM32_USB_Host_Library/Core/Src/usbh_ctlreq.c ****   {
 1854              		.loc 1 280 6 view .LVU608
 1855 0004 012B     		cmp	r3, #1
 1856 0006 04D0     		beq	.L132
 1857              	.L130:
 291:Middlewares/ST/STM32_USB_Host_Library/Core/Src/usbh_ctlreq.c **** }
 1858              		.loc 1 291 3 is_stmt 1 view .LVU609
 291:Middlewares/ST/STM32_USB_Host_Library/Core/Src/usbh_ctlreq.c **** }
 1859              		.loc 1 291 10 is_stmt 0 view .LVU610
ARM GAS  /tmp/ccXc1b7R.s 			page 61


 1860 0008 0022     		movs	r2, #0
 1861              	.LVL159:
 291:Middlewares/ST/STM32_USB_Host_Library/Core/Src/usbh_ctlreq.c **** }
 1862              		.loc 1 291 10 view .LVU611
 1863 000a 1146     		mov	r1, r2
 1864              	.LVL160:
 291:Middlewares/ST/STM32_USB_Host_Library/Core/Src/usbh_ctlreq.c **** }
 1865              		.loc 1 291 10 view .LVU612
 1866 000c FFF7FEFF 		bl	USBH_CtlReq
 1867              	.LVL161:
 292:Middlewares/ST/STM32_USB_Host_Library/Core/Src/usbh_ctlreq.c **** 
 1868              		.loc 1 292 1 view .LVU613
 1869 0010 08BD     		pop	{r3, pc}
 1870              	.LVL162:
 1871              	.L132:
 282:Middlewares/ST/STM32_USB_Host_Library/Core/Src/usbh_ctlreq.c ****                                            | USB_REQ_TYPE_STANDARD;
 1872              		.loc 1 282 5 is_stmt 1 view .LVU614
 282:Middlewares/ST/STM32_USB_Host_Library/Core/Src/usbh_ctlreq.c ****                                            | USB_REQ_TYPE_STANDARD;
 1873              		.loc 1 282 42 is_stmt 0 view .LVU615
 1874 0012 0374     		strb	r3, [r0, #16]
 285:Middlewares/ST/STM32_USB_Host_Library/Core/Src/usbh_ctlreq.c ****     phost->Control.setup.b.wValue.w = altSetting;
 1875              		.loc 1 285 5 is_stmt 1 view .LVU616
 285:Middlewares/ST/STM32_USB_Host_Library/Core/Src/usbh_ctlreq.c ****     phost->Control.setup.b.wValue.w = altSetting;
 1876              		.loc 1 285 37 is_stmt 0 view .LVU617
 1877 0014 0B23     		movs	r3, #11
 1878 0016 4374     		strb	r3, [r0, #17]
 286:Middlewares/ST/STM32_USB_Host_Library/Core/Src/usbh_ctlreq.c ****     phost->Control.setup.b.wIndex.w = ep_num;
 1879              		.loc 1 286 5 is_stmt 1 view .LVU618
 286:Middlewares/ST/STM32_USB_Host_Library/Core/Src/usbh_ctlreq.c ****     phost->Control.setup.b.wIndex.w = ep_num;
 1880              		.loc 1 286 37 is_stmt 0 view .LVU619
 1881 0018 4282     		strh	r2, [r0, #18]	@ movhi
 287:Middlewares/ST/STM32_USB_Host_Library/Core/Src/usbh_ctlreq.c ****     phost->Control.setup.b.wLength.w = 0U;
 1882              		.loc 1 287 5 is_stmt 1 view .LVU620
 287:Middlewares/ST/STM32_USB_Host_Library/Core/Src/usbh_ctlreq.c ****     phost->Control.setup.b.wLength.w = 0U;
 1883              		.loc 1 287 37 is_stmt 0 view .LVU621
 1884 001a 8182     		strh	r1, [r0, #20]	@ movhi
 288:Middlewares/ST/STM32_USB_Host_Library/Core/Src/usbh_ctlreq.c ****   }
 1885              		.loc 1 288 5 is_stmt 1 view .LVU622
 288:Middlewares/ST/STM32_USB_Host_Library/Core/Src/usbh_ctlreq.c ****   }
 1886              		.loc 1 288 38 is_stmt 0 view .LVU623
 1887 001c 0023     		movs	r3, #0
 1888 001e C382     		strh	r3, [r0, #22]	@ movhi
 1889 0020 F2E7     		b	.L130
 1890              		.cfi_endproc
 1891              	.LFE150:
 1893              		.section	.text.USBH_SetFeature,"ax",%progbits
 1894              		.align	1
 1895              		.global	USBH_SetFeature
 1896              		.syntax unified
 1897              		.thumb
 1898              		.thumb_func
 1900              	USBH_SetFeature:
 1901              	.LVL163:
 1902              	.LFB151:
 303:Middlewares/ST/STM32_USB_Host_Library/Core/Src/usbh_ctlreq.c ****   if (phost->RequestState == CMD_SEND)
 1903              		.loc 1 303 1 is_stmt 1 view -0
 1904              		.cfi_startproc
ARM GAS  /tmp/ccXc1b7R.s 			page 62


 1905              		@ args = 0, pretend = 0, frame = 0
 1906              		@ frame_needed = 0, uses_anonymous_args = 0
 303:Middlewares/ST/STM32_USB_Host_Library/Core/Src/usbh_ctlreq.c ****   if (phost->RequestState == CMD_SEND)
 1907              		.loc 1 303 1 is_stmt 0 view .LVU625
 1908 0000 08B5     		push	{r3, lr}
 1909              	.LCFI29:
 1910              		.cfi_def_cfa_offset 8
 1911              		.cfi_offset 3, -8
 1912              		.cfi_offset 14, -4
 304:Middlewares/ST/STM32_USB_Host_Library/Core/Src/usbh_ctlreq.c ****   {
 1913              		.loc 1 304 3 is_stmt 1 view .LVU626
 304:Middlewares/ST/STM32_USB_Host_Library/Core/Src/usbh_ctlreq.c ****   {
 1914              		.loc 1 304 12 is_stmt 0 view .LVU627
 1915 0002 8378     		ldrb	r3, [r0, #2]	@ zero_extendqisi2
 304:Middlewares/ST/STM32_USB_Host_Library/Core/Src/usbh_ctlreq.c ****   {
 1916              		.loc 1 304 6 view .LVU628
 1917 0004 012B     		cmp	r3, #1
 1918 0006 04D0     		beq	.L136
 1919              	.L134:
 315:Middlewares/ST/STM32_USB_Host_Library/Core/Src/usbh_ctlreq.c **** }
 1920              		.loc 1 315 3 is_stmt 1 view .LVU629
 315:Middlewares/ST/STM32_USB_Host_Library/Core/Src/usbh_ctlreq.c **** }
 1921              		.loc 1 315 10 is_stmt 0 view .LVU630
 1922 0008 0022     		movs	r2, #0
 1923 000a 1146     		mov	r1, r2
 1924              	.LVL164:
 315:Middlewares/ST/STM32_USB_Host_Library/Core/Src/usbh_ctlreq.c **** }
 1925              		.loc 1 315 10 view .LVU631
 1926 000c FFF7FEFF 		bl	USBH_CtlReq
 1927              	.LVL165:
 316:Middlewares/ST/STM32_USB_Host_Library/Core/Src/usbh_ctlreq.c **** 
 1928              		.loc 1 316 1 view .LVU632
 1929 0010 08BD     		pop	{r3, pc}
 1930              	.LVL166:
 1931              	.L136:
 306:Middlewares/ST/STM32_USB_Host_Library/Core/Src/usbh_ctlreq.c ****                                            | USB_REQ_TYPE_STANDARD;
 1932              		.loc 1 306 5 is_stmt 1 view .LVU633
 306:Middlewares/ST/STM32_USB_Host_Library/Core/Src/usbh_ctlreq.c ****                                            | USB_REQ_TYPE_STANDARD;
 1933              		.loc 1 306 42 is_stmt 0 view .LVU634
 1934 0012 0023     		movs	r3, #0
 1935 0014 0374     		strb	r3, [r0, #16]
 309:Middlewares/ST/STM32_USB_Host_Library/Core/Src/usbh_ctlreq.c ****     phost->Control.setup.b.wValue.w = wValue;
 1936              		.loc 1 309 5 is_stmt 1 view .LVU635
 309:Middlewares/ST/STM32_USB_Host_Library/Core/Src/usbh_ctlreq.c ****     phost->Control.setup.b.wValue.w = wValue;
 1937              		.loc 1 309 37 is_stmt 0 view .LVU636
 1938 0016 0322     		movs	r2, #3
 1939 0018 4274     		strb	r2, [r0, #17]
 310:Middlewares/ST/STM32_USB_Host_Library/Core/Src/usbh_ctlreq.c ****     phost->Control.setup.b.wIndex.w = 0U;
 1940              		.loc 1 310 5 is_stmt 1 view .LVU637
 310:Middlewares/ST/STM32_USB_Host_Library/Core/Src/usbh_ctlreq.c ****     phost->Control.setup.b.wIndex.w = 0U;
 1941              		.loc 1 310 37 is_stmt 0 view .LVU638
 1942 001a 4182     		strh	r1, [r0, #18]	@ movhi
 311:Middlewares/ST/STM32_USB_Host_Library/Core/Src/usbh_ctlreq.c ****     phost->Control.setup.b.wLength.w = 0U;
 1943              		.loc 1 311 5 is_stmt 1 view .LVU639
 311:Middlewares/ST/STM32_USB_Host_Library/Core/Src/usbh_ctlreq.c ****     phost->Control.setup.b.wLength.w = 0U;
 1944              		.loc 1 311 37 is_stmt 0 view .LVU640
 1945 001c 8382     		strh	r3, [r0, #20]	@ movhi
ARM GAS  /tmp/ccXc1b7R.s 			page 63


 312:Middlewares/ST/STM32_USB_Host_Library/Core/Src/usbh_ctlreq.c ****   }
 1946              		.loc 1 312 5 is_stmt 1 view .LVU641
 312:Middlewares/ST/STM32_USB_Host_Library/Core/Src/usbh_ctlreq.c ****   }
 1947              		.loc 1 312 38 is_stmt 0 view .LVU642
 1948 001e C382     		strh	r3, [r0, #22]	@ movhi
 1949 0020 F2E7     		b	.L134
 1950              		.cfi_endproc
 1951              	.LFE151:
 1953              		.section	.text.USBH_ClrFeature,"ax",%progbits
 1954              		.align	1
 1955              		.global	USBH_ClrFeature
 1956              		.syntax unified
 1957              		.thumb
 1958              		.thumb_func
 1960              	USBH_ClrFeature:
 1961              	.LVL167:
 1962              	.LFB152:
 328:Middlewares/ST/STM32_USB_Host_Library/Core/Src/usbh_ctlreq.c ****   if (phost->RequestState == CMD_SEND)
 1963              		.loc 1 328 1 is_stmt 1 view -0
 1964              		.cfi_startproc
 1965              		@ args = 0, pretend = 0, frame = 0
 1966              		@ frame_needed = 0, uses_anonymous_args = 0
 328:Middlewares/ST/STM32_USB_Host_Library/Core/Src/usbh_ctlreq.c ****   if (phost->RequestState == CMD_SEND)
 1967              		.loc 1 328 1 is_stmt 0 view .LVU644
 1968 0000 08B5     		push	{r3, lr}
 1969              	.LCFI30:
 1970              		.cfi_def_cfa_offset 8
 1971              		.cfi_offset 3, -8
 1972              		.cfi_offset 14, -4
 329:Middlewares/ST/STM32_USB_Host_Library/Core/Src/usbh_ctlreq.c ****   {
 1973              		.loc 1 329 3 is_stmt 1 view .LVU645
 329:Middlewares/ST/STM32_USB_Host_Library/Core/Src/usbh_ctlreq.c ****   {
 1974              		.loc 1 329 12 is_stmt 0 view .LVU646
 1975 0002 8378     		ldrb	r3, [r0, #2]	@ zero_extendqisi2
 329:Middlewares/ST/STM32_USB_Host_Library/Core/Src/usbh_ctlreq.c ****   {
 1976              		.loc 1 329 6 view .LVU647
 1977 0004 012B     		cmp	r3, #1
 1978 0006 04D0     		beq	.L140
 1979              	.L138:
 339:Middlewares/ST/STM32_USB_Host_Library/Core/Src/usbh_ctlreq.c **** }
 1980              		.loc 1 339 3 is_stmt 1 view .LVU648
 339:Middlewares/ST/STM32_USB_Host_Library/Core/Src/usbh_ctlreq.c **** }
 1981              		.loc 1 339 10 is_stmt 0 view .LVU649
 1982 0008 0022     		movs	r2, #0
 1983 000a 1146     		mov	r1, r2
 1984              	.LVL168:
 339:Middlewares/ST/STM32_USB_Host_Library/Core/Src/usbh_ctlreq.c **** }
 1985              		.loc 1 339 10 view .LVU650
 1986 000c FFF7FEFF 		bl	USBH_CtlReq
 1987              	.LVL169:
 340:Middlewares/ST/STM32_USB_Host_Library/Core/Src/usbh_ctlreq.c **** 
 1988              		.loc 1 340 1 view .LVU651
 1989 0010 08BD     		pop	{r3, pc}
 1990              	.LVL170:
 1991              	.L140:
 331:Middlewares/ST/STM32_USB_Host_Library/Core/Src/usbh_ctlreq.c ****                                            | USB_REQ_TYPE_STANDARD;
 1992              		.loc 1 331 5 is_stmt 1 view .LVU652
ARM GAS  /tmp/ccXc1b7R.s 			page 64


 331:Middlewares/ST/STM32_USB_Host_Library/Core/Src/usbh_ctlreq.c ****                                            | USB_REQ_TYPE_STANDARD;
 1993              		.loc 1 331 42 is_stmt 0 view .LVU653
 1994 0012 0223     		movs	r3, #2
 1995 0014 0374     		strb	r3, [r0, #16]
 334:Middlewares/ST/STM32_USB_Host_Library/Core/Src/usbh_ctlreq.c ****     phost->Control.setup.b.wValue.w = FEATURE_SELECTOR_ENDPOINT;
 1996              		.loc 1 334 5 is_stmt 1 view .LVU654
 334:Middlewares/ST/STM32_USB_Host_Library/Core/Src/usbh_ctlreq.c ****     phost->Control.setup.b.wValue.w = FEATURE_SELECTOR_ENDPOINT;
 1997              		.loc 1 334 37 is_stmt 0 view .LVU655
 1998 0016 0123     		movs	r3, #1
 1999 0018 4374     		strb	r3, [r0, #17]
 335:Middlewares/ST/STM32_USB_Host_Library/Core/Src/usbh_ctlreq.c ****     phost->Control.setup.b.wIndex.w = ep_num;
 2000              		.loc 1 335 5 is_stmt 1 view .LVU656
 335:Middlewares/ST/STM32_USB_Host_Library/Core/Src/usbh_ctlreq.c ****     phost->Control.setup.b.wIndex.w = ep_num;
 2001              		.loc 1 335 37 is_stmt 0 view .LVU657
 2002 001a 0023     		movs	r3, #0
 2003 001c 4382     		strh	r3, [r0, #18]	@ movhi
 336:Middlewares/ST/STM32_USB_Host_Library/Core/Src/usbh_ctlreq.c ****     phost->Control.setup.b.wLength.w = 0U;
 2004              		.loc 1 336 5 is_stmt 1 view .LVU658
 336:Middlewares/ST/STM32_USB_Host_Library/Core/Src/usbh_ctlreq.c ****     phost->Control.setup.b.wLength.w = 0U;
 2005              		.loc 1 336 37 is_stmt 0 view .LVU659
 2006 001e 8182     		strh	r1, [r0, #20]	@ movhi
 337:Middlewares/ST/STM32_USB_Host_Library/Core/Src/usbh_ctlreq.c ****   }
 2007              		.loc 1 337 5 is_stmt 1 view .LVU660
 337:Middlewares/ST/STM32_USB_Host_Library/Core/Src/usbh_ctlreq.c ****   }
 2008              		.loc 1 337 38 is_stmt 0 view .LVU661
 2009 0020 C382     		strh	r3, [r0, #22]	@ movhi
 2010 0022 F1E7     		b	.L138
 2011              		.cfi_endproc
 2012              	.LFE152:
 2014              		.text
 2015              	.Letext0:
 2016              		.file 2 "/usr/include/newlib/machine/_default_types.h"
 2017              		.file 3 "/usr/include/newlib/sys/_stdint.h"
 2018              		.file 4 "Middlewares/ST/STM32_USB_Host_Library/Core/Inc/usbh_def.h"
 2019              		.file 5 "Middlewares/ST/STM32_USB_Host_Library/Core/Inc/usbh_pipes.h"
 2020              		.file 6 "Middlewares/ST/STM32_USB_Host_Library/Core/Inc/usbh_ioreq.h"
 2021              		.file 7 "Middlewares/ST/STM32_USB_Host_Library/Core/Inc/usbh_core.h"
ARM GAS  /tmp/ccXc1b7R.s 			page 65

