ARM GAS  /tmp/ccxHAzXl.s 			page 1


   1              		.cpu cortex-m4
   2              		.arch armv7e-m
   3              		.fpu fpv4-sp-d16
   4              		.eabi_attribute 27, 1
   5              		.eabi_attribute 28, 1
   6              		.eabi_attribute 20, 1
   7              		.eabi_attribute 21, 1
   8              		.eabi_attribute 23, 3
   9              		.eabi_attribute 24, 1
  10              		.eabi_attribute 25, 1
  11              		.eabi_attribute 26, 1
  12              		.eabi_attribute 30, 1
  13              		.eabi_attribute 34, 1
  14              		.eabi_attribute 18, 4
  15              		.file	"usbh_ctlreq.c"
  16              		.text
  17              	.Ltext0:
  18              		.cfi_sections	.debug_frame
  19              		.file 1 "Middlewares/ST/STM32_USB_Host_Library/Core/Src/usbh_ctlreq.c"
  20              		.section	.text.USBH_ParseDevDesc,"ax",%progbits
  21              		.align	1
  22              		.syntax unified
  23              		.thumb
  24              		.thumb_func
  26              	USBH_ParseDevDesc:
  27              	.LVL0:
  28              	.LFB146:
   1:Middlewares/ST/STM32_USB_Host_Library/Core/Src/usbh_ctlreq.c **** /**
   2:Middlewares/ST/STM32_USB_Host_Library/Core/Src/usbh_ctlreq.c ****   ******************************************************************************
   3:Middlewares/ST/STM32_USB_Host_Library/Core/Src/usbh_ctlreq.c ****   * @file    usbh_ctlreq.c
   4:Middlewares/ST/STM32_USB_Host_Library/Core/Src/usbh_ctlreq.c ****   * @author  MCD Application Team
   5:Middlewares/ST/STM32_USB_Host_Library/Core/Src/usbh_ctlreq.c ****   * @brief   This file implements the control requests for device enumeration
   6:Middlewares/ST/STM32_USB_Host_Library/Core/Src/usbh_ctlreq.c ****   ******************************************************************************
   7:Middlewares/ST/STM32_USB_Host_Library/Core/Src/usbh_ctlreq.c ****   * @attention
   8:Middlewares/ST/STM32_USB_Host_Library/Core/Src/usbh_ctlreq.c ****   *
   9:Middlewares/ST/STM32_USB_Host_Library/Core/Src/usbh_ctlreq.c ****   * Copyright (c) 2015 STMicroelectronics.
  10:Middlewares/ST/STM32_USB_Host_Library/Core/Src/usbh_ctlreq.c ****   * All rights reserved.
  11:Middlewares/ST/STM32_USB_Host_Library/Core/Src/usbh_ctlreq.c ****   *
  12:Middlewares/ST/STM32_USB_Host_Library/Core/Src/usbh_ctlreq.c ****   * This software is licensed under terms that can be found in the LICENSE file
  13:Middlewares/ST/STM32_USB_Host_Library/Core/Src/usbh_ctlreq.c ****   * in the root directory of this software component.
  14:Middlewares/ST/STM32_USB_Host_Library/Core/Src/usbh_ctlreq.c ****   * If no LICENSE file comes with this software, it is provided AS-IS.
  15:Middlewares/ST/STM32_USB_Host_Library/Core/Src/usbh_ctlreq.c ****   *
  16:Middlewares/ST/STM32_USB_Host_Library/Core/Src/usbh_ctlreq.c ****   ******************************************************************************
  17:Middlewares/ST/STM32_USB_Host_Library/Core/Src/usbh_ctlreq.c ****   */
  18:Middlewares/ST/STM32_USB_Host_Library/Core/Src/usbh_ctlreq.c **** 
  19:Middlewares/ST/STM32_USB_Host_Library/Core/Src/usbh_ctlreq.c **** /* Includes ------------------------------------------------------------------*/
  20:Middlewares/ST/STM32_USB_Host_Library/Core/Src/usbh_ctlreq.c **** #include "usbh_ctlreq.h"
  21:Middlewares/ST/STM32_USB_Host_Library/Core/Src/usbh_ctlreq.c **** 
  22:Middlewares/ST/STM32_USB_Host_Library/Core/Src/usbh_ctlreq.c **** /** @addtogroup USBH_LIB
  23:Middlewares/ST/STM32_USB_Host_Library/Core/Src/usbh_ctlreq.c ****   * @{
  24:Middlewares/ST/STM32_USB_Host_Library/Core/Src/usbh_ctlreq.c ****   */
  25:Middlewares/ST/STM32_USB_Host_Library/Core/Src/usbh_ctlreq.c **** 
  26:Middlewares/ST/STM32_USB_Host_Library/Core/Src/usbh_ctlreq.c **** /** @addtogroup USBH_LIB_CORE
  27:Middlewares/ST/STM32_USB_Host_Library/Core/Src/usbh_ctlreq.c ****   * @{
  28:Middlewares/ST/STM32_USB_Host_Library/Core/Src/usbh_ctlreq.c ****   */
  29:Middlewares/ST/STM32_USB_Host_Library/Core/Src/usbh_ctlreq.c **** 
  30:Middlewares/ST/STM32_USB_Host_Library/Core/Src/usbh_ctlreq.c **** /** @defgroup USBH_CTLREQ
ARM GAS  /tmp/ccxHAzXl.s 			page 2


  31:Middlewares/ST/STM32_USB_Host_Library/Core/Src/usbh_ctlreq.c ****   * @brief This file implements the standard requests for device enumeration
  32:Middlewares/ST/STM32_USB_Host_Library/Core/Src/usbh_ctlreq.c ****   * @{
  33:Middlewares/ST/STM32_USB_Host_Library/Core/Src/usbh_ctlreq.c ****   */
  34:Middlewares/ST/STM32_USB_Host_Library/Core/Src/usbh_ctlreq.c **** 
  35:Middlewares/ST/STM32_USB_Host_Library/Core/Src/usbh_ctlreq.c **** 
  36:Middlewares/ST/STM32_USB_Host_Library/Core/Src/usbh_ctlreq.c **** /** @defgroup USBH_CTLREQ_Private_Defines
  37:Middlewares/ST/STM32_USB_Host_Library/Core/Src/usbh_ctlreq.c ****   * @{
  38:Middlewares/ST/STM32_USB_Host_Library/Core/Src/usbh_ctlreq.c ****   */
  39:Middlewares/ST/STM32_USB_Host_Library/Core/Src/usbh_ctlreq.c **** /**
  40:Middlewares/ST/STM32_USB_Host_Library/Core/Src/usbh_ctlreq.c ****   * @}
  41:Middlewares/ST/STM32_USB_Host_Library/Core/Src/usbh_ctlreq.c ****   */
  42:Middlewares/ST/STM32_USB_Host_Library/Core/Src/usbh_ctlreq.c **** 
  43:Middlewares/ST/STM32_USB_Host_Library/Core/Src/usbh_ctlreq.c **** 
  44:Middlewares/ST/STM32_USB_Host_Library/Core/Src/usbh_ctlreq.c **** /** @defgroup USBH_CTLREQ_Private_TypesDefinitions
  45:Middlewares/ST/STM32_USB_Host_Library/Core/Src/usbh_ctlreq.c ****   * @{
  46:Middlewares/ST/STM32_USB_Host_Library/Core/Src/usbh_ctlreq.c ****   */
  47:Middlewares/ST/STM32_USB_Host_Library/Core/Src/usbh_ctlreq.c **** /**
  48:Middlewares/ST/STM32_USB_Host_Library/Core/Src/usbh_ctlreq.c ****   * @}
  49:Middlewares/ST/STM32_USB_Host_Library/Core/Src/usbh_ctlreq.c ****   */
  50:Middlewares/ST/STM32_USB_Host_Library/Core/Src/usbh_ctlreq.c **** 
  51:Middlewares/ST/STM32_USB_Host_Library/Core/Src/usbh_ctlreq.c **** 
  52:Middlewares/ST/STM32_USB_Host_Library/Core/Src/usbh_ctlreq.c **** 
  53:Middlewares/ST/STM32_USB_Host_Library/Core/Src/usbh_ctlreq.c **** /** @defgroup USBH_CTLREQ_Private_Macros
  54:Middlewares/ST/STM32_USB_Host_Library/Core/Src/usbh_ctlreq.c ****   * @{
  55:Middlewares/ST/STM32_USB_Host_Library/Core/Src/usbh_ctlreq.c ****   */
  56:Middlewares/ST/STM32_USB_Host_Library/Core/Src/usbh_ctlreq.c **** /**
  57:Middlewares/ST/STM32_USB_Host_Library/Core/Src/usbh_ctlreq.c ****   * @}
  58:Middlewares/ST/STM32_USB_Host_Library/Core/Src/usbh_ctlreq.c ****   */
  59:Middlewares/ST/STM32_USB_Host_Library/Core/Src/usbh_ctlreq.c **** 
  60:Middlewares/ST/STM32_USB_Host_Library/Core/Src/usbh_ctlreq.c **** 
  61:Middlewares/ST/STM32_USB_Host_Library/Core/Src/usbh_ctlreq.c **** /** @defgroup USBH_CTLREQ_Private_Variables
  62:Middlewares/ST/STM32_USB_Host_Library/Core/Src/usbh_ctlreq.c ****   * @{
  63:Middlewares/ST/STM32_USB_Host_Library/Core/Src/usbh_ctlreq.c ****   */
  64:Middlewares/ST/STM32_USB_Host_Library/Core/Src/usbh_ctlreq.c **** /**
  65:Middlewares/ST/STM32_USB_Host_Library/Core/Src/usbh_ctlreq.c ****   * @}
  66:Middlewares/ST/STM32_USB_Host_Library/Core/Src/usbh_ctlreq.c ****   */
  67:Middlewares/ST/STM32_USB_Host_Library/Core/Src/usbh_ctlreq.c **** 
  68:Middlewares/ST/STM32_USB_Host_Library/Core/Src/usbh_ctlreq.c **** /** @defgroup USBH_CTLREQ_Private_FunctionPrototypes
  69:Middlewares/ST/STM32_USB_Host_Library/Core/Src/usbh_ctlreq.c ****   * @{
  70:Middlewares/ST/STM32_USB_Host_Library/Core/Src/usbh_ctlreq.c ****   */
  71:Middlewares/ST/STM32_USB_Host_Library/Core/Src/usbh_ctlreq.c **** static USBH_StatusTypeDef USBH_HandleControl(USBH_HandleTypeDef *phost);
  72:Middlewares/ST/STM32_USB_Host_Library/Core/Src/usbh_ctlreq.c **** static USBH_StatusTypeDef USBH_ParseDevDesc(USBH_HandleTypeDef *phost, uint8_t *buf, uint16_t lengt
  73:Middlewares/ST/STM32_USB_Host_Library/Core/Src/usbh_ctlreq.c **** static USBH_StatusTypeDef USBH_ParseCfgDesc(USBH_HandleTypeDef *phost, uint8_t *buf, uint16_t lengt
  74:Middlewares/ST/STM32_USB_Host_Library/Core/Src/usbh_ctlreq.c **** static USBH_StatusTypeDef USBH_ParseEPDesc(USBH_HandleTypeDef *phost, USBH_EpDescTypeDef *ep_descri
  75:Middlewares/ST/STM32_USB_Host_Library/Core/Src/usbh_ctlreq.c **** 
  76:Middlewares/ST/STM32_USB_Host_Library/Core/Src/usbh_ctlreq.c **** static void USBH_ParseStringDesc(uint8_t *psrc, uint8_t *pdest, uint16_t length);
  77:Middlewares/ST/STM32_USB_Host_Library/Core/Src/usbh_ctlreq.c **** static void USBH_ParseInterfaceDesc(USBH_InterfaceDescTypeDef  *if_descriptor, uint8_t *buf);
  78:Middlewares/ST/STM32_USB_Host_Library/Core/Src/usbh_ctlreq.c **** /**
  79:Middlewares/ST/STM32_USB_Host_Library/Core/Src/usbh_ctlreq.c ****   * @}
  80:Middlewares/ST/STM32_USB_Host_Library/Core/Src/usbh_ctlreq.c ****   */
  81:Middlewares/ST/STM32_USB_Host_Library/Core/Src/usbh_ctlreq.c **** 
  82:Middlewares/ST/STM32_USB_Host_Library/Core/Src/usbh_ctlreq.c **** 
  83:Middlewares/ST/STM32_USB_Host_Library/Core/Src/usbh_ctlreq.c **** /** @defgroup USBH_CTLREQ_Private_Functions
  84:Middlewares/ST/STM32_USB_Host_Library/Core/Src/usbh_ctlreq.c ****   * @{
  85:Middlewares/ST/STM32_USB_Host_Library/Core/Src/usbh_ctlreq.c ****   */
  86:Middlewares/ST/STM32_USB_Host_Library/Core/Src/usbh_ctlreq.c **** 
  87:Middlewares/ST/STM32_USB_Host_Library/Core/Src/usbh_ctlreq.c **** 
ARM GAS  /tmp/ccxHAzXl.s 			page 3


  88:Middlewares/ST/STM32_USB_Host_Library/Core/Src/usbh_ctlreq.c **** /**
  89:Middlewares/ST/STM32_USB_Host_Library/Core/Src/usbh_ctlreq.c ****   * @brief  USBH_Get_DevDesc
  90:Middlewares/ST/STM32_USB_Host_Library/Core/Src/usbh_ctlreq.c ****   *         Issue Get Device Descriptor command to the device. Once the response
  91:Middlewares/ST/STM32_USB_Host_Library/Core/Src/usbh_ctlreq.c ****   *         received, it parses the device descriptor and updates the status.
  92:Middlewares/ST/STM32_USB_Host_Library/Core/Src/usbh_ctlreq.c ****   * @param  phost: Host Handle
  93:Middlewares/ST/STM32_USB_Host_Library/Core/Src/usbh_ctlreq.c ****   * @param  length: Length of the descriptor
  94:Middlewares/ST/STM32_USB_Host_Library/Core/Src/usbh_ctlreq.c ****   * @retval USBH Status
  95:Middlewares/ST/STM32_USB_Host_Library/Core/Src/usbh_ctlreq.c ****   */
  96:Middlewares/ST/STM32_USB_Host_Library/Core/Src/usbh_ctlreq.c **** USBH_StatusTypeDef USBH_Get_DevDesc(USBH_HandleTypeDef *phost, uint16_t length)
  97:Middlewares/ST/STM32_USB_Host_Library/Core/Src/usbh_ctlreq.c **** {
  98:Middlewares/ST/STM32_USB_Host_Library/Core/Src/usbh_ctlreq.c ****   USBH_StatusTypeDef status;
  99:Middlewares/ST/STM32_USB_Host_Library/Core/Src/usbh_ctlreq.c **** 
 100:Middlewares/ST/STM32_USB_Host_Library/Core/Src/usbh_ctlreq.c ****   if (length > sizeof(phost->device.Data))
 101:Middlewares/ST/STM32_USB_Host_Library/Core/Src/usbh_ctlreq.c ****   {
 102:Middlewares/ST/STM32_USB_Host_Library/Core/Src/usbh_ctlreq.c ****     USBH_ErrLog("Control error: Get Device Descriptor failed, data buffer size issue");
 103:Middlewares/ST/STM32_USB_Host_Library/Core/Src/usbh_ctlreq.c ****     return USBH_NOT_SUPPORTED;
 104:Middlewares/ST/STM32_USB_Host_Library/Core/Src/usbh_ctlreq.c ****   }
 105:Middlewares/ST/STM32_USB_Host_Library/Core/Src/usbh_ctlreq.c **** 
 106:Middlewares/ST/STM32_USB_Host_Library/Core/Src/usbh_ctlreq.c ****   status = USBH_GetDescriptor(phost,
 107:Middlewares/ST/STM32_USB_Host_Library/Core/Src/usbh_ctlreq.c ****                               USB_REQ_RECIPIENT_DEVICE | USB_REQ_TYPE_STANDARD,
 108:Middlewares/ST/STM32_USB_Host_Library/Core/Src/usbh_ctlreq.c ****                               USB_DESC_DEVICE, phost->device.Data, length);
 109:Middlewares/ST/STM32_USB_Host_Library/Core/Src/usbh_ctlreq.c **** 
 110:Middlewares/ST/STM32_USB_Host_Library/Core/Src/usbh_ctlreq.c ****   if (status == USBH_OK)
 111:Middlewares/ST/STM32_USB_Host_Library/Core/Src/usbh_ctlreq.c ****   {
 112:Middlewares/ST/STM32_USB_Host_Library/Core/Src/usbh_ctlreq.c ****     /* Commands successfully sent and Response Received */
 113:Middlewares/ST/STM32_USB_Host_Library/Core/Src/usbh_ctlreq.c ****     status = USBH_ParseDevDesc(phost, phost->device.Data, length);
 114:Middlewares/ST/STM32_USB_Host_Library/Core/Src/usbh_ctlreq.c ****   }
 115:Middlewares/ST/STM32_USB_Host_Library/Core/Src/usbh_ctlreq.c **** 
 116:Middlewares/ST/STM32_USB_Host_Library/Core/Src/usbh_ctlreq.c ****   return status;
 117:Middlewares/ST/STM32_USB_Host_Library/Core/Src/usbh_ctlreq.c **** }
 118:Middlewares/ST/STM32_USB_Host_Library/Core/Src/usbh_ctlreq.c **** 
 119:Middlewares/ST/STM32_USB_Host_Library/Core/Src/usbh_ctlreq.c **** 
 120:Middlewares/ST/STM32_USB_Host_Library/Core/Src/usbh_ctlreq.c **** /**
 121:Middlewares/ST/STM32_USB_Host_Library/Core/Src/usbh_ctlreq.c ****   * @brief  USBH_Get_CfgDesc
 122:Middlewares/ST/STM32_USB_Host_Library/Core/Src/usbh_ctlreq.c ****   *         Issues Configuration Descriptor to the device. Once the response
 123:Middlewares/ST/STM32_USB_Host_Library/Core/Src/usbh_ctlreq.c ****   *         received, it parses the configuration descriptor and updates the
 124:Middlewares/ST/STM32_USB_Host_Library/Core/Src/usbh_ctlreq.c ****   *         status.
 125:Middlewares/ST/STM32_USB_Host_Library/Core/Src/usbh_ctlreq.c ****   * @param  phost: Host Handle
 126:Middlewares/ST/STM32_USB_Host_Library/Core/Src/usbh_ctlreq.c ****   * @param  length: Length of the descriptor
 127:Middlewares/ST/STM32_USB_Host_Library/Core/Src/usbh_ctlreq.c ****   * @retval USBH Status
 128:Middlewares/ST/STM32_USB_Host_Library/Core/Src/usbh_ctlreq.c ****   */
 129:Middlewares/ST/STM32_USB_Host_Library/Core/Src/usbh_ctlreq.c **** USBH_StatusTypeDef USBH_Get_CfgDesc(USBH_HandleTypeDef *phost, uint16_t length)
 130:Middlewares/ST/STM32_USB_Host_Library/Core/Src/usbh_ctlreq.c **** {
 131:Middlewares/ST/STM32_USB_Host_Library/Core/Src/usbh_ctlreq.c ****   USBH_StatusTypeDef status;
 132:Middlewares/ST/STM32_USB_Host_Library/Core/Src/usbh_ctlreq.c ****   uint8_t *pData = phost->device.CfgDesc_Raw;
 133:Middlewares/ST/STM32_USB_Host_Library/Core/Src/usbh_ctlreq.c **** 
 134:Middlewares/ST/STM32_USB_Host_Library/Core/Src/usbh_ctlreq.c ****   if (length > sizeof(phost->device.CfgDesc_Raw))
 135:Middlewares/ST/STM32_USB_Host_Library/Core/Src/usbh_ctlreq.c ****   {
 136:Middlewares/ST/STM32_USB_Host_Library/Core/Src/usbh_ctlreq.c ****     USBH_ErrLog("Control error: Get configuration Descriptor failed, data buffer size issue");
 137:Middlewares/ST/STM32_USB_Host_Library/Core/Src/usbh_ctlreq.c ****     return USBH_NOT_SUPPORTED;
 138:Middlewares/ST/STM32_USB_Host_Library/Core/Src/usbh_ctlreq.c ****   }
 139:Middlewares/ST/STM32_USB_Host_Library/Core/Src/usbh_ctlreq.c **** 
 140:Middlewares/ST/STM32_USB_Host_Library/Core/Src/usbh_ctlreq.c ****   status = USBH_GetDescriptor(phost, (USB_REQ_RECIPIENT_DEVICE | USB_REQ_TYPE_STANDARD),
 141:Middlewares/ST/STM32_USB_Host_Library/Core/Src/usbh_ctlreq.c ****                               USB_DESC_CONFIGURATION, pData, length);
 142:Middlewares/ST/STM32_USB_Host_Library/Core/Src/usbh_ctlreq.c **** 
 143:Middlewares/ST/STM32_USB_Host_Library/Core/Src/usbh_ctlreq.c ****   if (status == USBH_OK)
 144:Middlewares/ST/STM32_USB_Host_Library/Core/Src/usbh_ctlreq.c ****   {
ARM GAS  /tmp/ccxHAzXl.s 			page 4


 145:Middlewares/ST/STM32_USB_Host_Library/Core/Src/usbh_ctlreq.c ****     /* Commands successfully sent and Response Received  */
 146:Middlewares/ST/STM32_USB_Host_Library/Core/Src/usbh_ctlreq.c ****     status = USBH_ParseCfgDesc(phost, pData, length);
 147:Middlewares/ST/STM32_USB_Host_Library/Core/Src/usbh_ctlreq.c ****   }
 148:Middlewares/ST/STM32_USB_Host_Library/Core/Src/usbh_ctlreq.c **** 
 149:Middlewares/ST/STM32_USB_Host_Library/Core/Src/usbh_ctlreq.c ****   return status;
 150:Middlewares/ST/STM32_USB_Host_Library/Core/Src/usbh_ctlreq.c **** }
 151:Middlewares/ST/STM32_USB_Host_Library/Core/Src/usbh_ctlreq.c **** 
 152:Middlewares/ST/STM32_USB_Host_Library/Core/Src/usbh_ctlreq.c **** 
 153:Middlewares/ST/STM32_USB_Host_Library/Core/Src/usbh_ctlreq.c **** /**
 154:Middlewares/ST/STM32_USB_Host_Library/Core/Src/usbh_ctlreq.c ****   * @brief  USBH_Get_StringDesc
 155:Middlewares/ST/STM32_USB_Host_Library/Core/Src/usbh_ctlreq.c ****   *         Issues string Descriptor command to the device. Once the response
 156:Middlewares/ST/STM32_USB_Host_Library/Core/Src/usbh_ctlreq.c ****   *         received, it parses the string descriptor and updates the status.
 157:Middlewares/ST/STM32_USB_Host_Library/Core/Src/usbh_ctlreq.c ****   * @param  phost: Host Handle
 158:Middlewares/ST/STM32_USB_Host_Library/Core/Src/usbh_ctlreq.c ****   * @param  string_index: String index for the descriptor
 159:Middlewares/ST/STM32_USB_Host_Library/Core/Src/usbh_ctlreq.c ****   * @param  buff: Buffer address for the descriptor
 160:Middlewares/ST/STM32_USB_Host_Library/Core/Src/usbh_ctlreq.c ****   * @param  length: Length of the descriptor
 161:Middlewares/ST/STM32_USB_Host_Library/Core/Src/usbh_ctlreq.c ****   * @retval USBH Status
 162:Middlewares/ST/STM32_USB_Host_Library/Core/Src/usbh_ctlreq.c ****   */
 163:Middlewares/ST/STM32_USB_Host_Library/Core/Src/usbh_ctlreq.c **** USBH_StatusTypeDef USBH_Get_StringDesc(USBH_HandleTypeDef *phost, uint8_t string_index, uint8_t *bu
 164:Middlewares/ST/STM32_USB_Host_Library/Core/Src/usbh_ctlreq.c **** {
 165:Middlewares/ST/STM32_USB_Host_Library/Core/Src/usbh_ctlreq.c ****   USBH_StatusTypeDef status;
 166:Middlewares/ST/STM32_USB_Host_Library/Core/Src/usbh_ctlreq.c **** 
 167:Middlewares/ST/STM32_USB_Host_Library/Core/Src/usbh_ctlreq.c ****   if ((length > sizeof(phost->device.Data)) || (buff == NULL))
 168:Middlewares/ST/STM32_USB_Host_Library/Core/Src/usbh_ctlreq.c ****   {
 169:Middlewares/ST/STM32_USB_Host_Library/Core/Src/usbh_ctlreq.c ****     USBH_ErrLog("Control error: Get String Descriptor failed, data buffer size issue");
 170:Middlewares/ST/STM32_USB_Host_Library/Core/Src/usbh_ctlreq.c ****     return USBH_NOT_SUPPORTED;
 171:Middlewares/ST/STM32_USB_Host_Library/Core/Src/usbh_ctlreq.c ****   }
 172:Middlewares/ST/STM32_USB_Host_Library/Core/Src/usbh_ctlreq.c **** 
 173:Middlewares/ST/STM32_USB_Host_Library/Core/Src/usbh_ctlreq.c ****   status = USBH_GetDescriptor(phost,
 174:Middlewares/ST/STM32_USB_Host_Library/Core/Src/usbh_ctlreq.c ****                               USB_REQ_RECIPIENT_DEVICE | USB_REQ_TYPE_STANDARD,
 175:Middlewares/ST/STM32_USB_Host_Library/Core/Src/usbh_ctlreq.c ****                               USB_DESC_STRING | string_index,
 176:Middlewares/ST/STM32_USB_Host_Library/Core/Src/usbh_ctlreq.c ****                               phost->device.Data, length);
 177:Middlewares/ST/STM32_USB_Host_Library/Core/Src/usbh_ctlreq.c **** 
 178:Middlewares/ST/STM32_USB_Host_Library/Core/Src/usbh_ctlreq.c ****   if (status == USBH_OK)
 179:Middlewares/ST/STM32_USB_Host_Library/Core/Src/usbh_ctlreq.c ****   {
 180:Middlewares/ST/STM32_USB_Host_Library/Core/Src/usbh_ctlreq.c ****     /* Commands successfully sent and Response Received */
 181:Middlewares/ST/STM32_USB_Host_Library/Core/Src/usbh_ctlreq.c ****     USBH_ParseStringDesc(phost->device.Data, buff, length);
 182:Middlewares/ST/STM32_USB_Host_Library/Core/Src/usbh_ctlreq.c ****   }
 183:Middlewares/ST/STM32_USB_Host_Library/Core/Src/usbh_ctlreq.c **** 
 184:Middlewares/ST/STM32_USB_Host_Library/Core/Src/usbh_ctlreq.c ****   return status;
 185:Middlewares/ST/STM32_USB_Host_Library/Core/Src/usbh_ctlreq.c **** }
 186:Middlewares/ST/STM32_USB_Host_Library/Core/Src/usbh_ctlreq.c **** 
 187:Middlewares/ST/STM32_USB_Host_Library/Core/Src/usbh_ctlreq.c **** 
 188:Middlewares/ST/STM32_USB_Host_Library/Core/Src/usbh_ctlreq.c **** /**
 189:Middlewares/ST/STM32_USB_Host_Library/Core/Src/usbh_ctlreq.c ****   * @brief  USBH_GetDescriptor
 190:Middlewares/ST/STM32_USB_Host_Library/Core/Src/usbh_ctlreq.c ****   *         Issues Descriptor command to the device. Once the response received,
 191:Middlewares/ST/STM32_USB_Host_Library/Core/Src/usbh_ctlreq.c ****   *         it parses the descriptor and updates the status.
 192:Middlewares/ST/STM32_USB_Host_Library/Core/Src/usbh_ctlreq.c ****   * @param  phost: Host Handle
 193:Middlewares/ST/STM32_USB_Host_Library/Core/Src/usbh_ctlreq.c ****   * @param  req_type: Descriptor type
 194:Middlewares/ST/STM32_USB_Host_Library/Core/Src/usbh_ctlreq.c ****   * @param  value_idx: Value for the GetDescriptr request
 195:Middlewares/ST/STM32_USB_Host_Library/Core/Src/usbh_ctlreq.c ****   * @param  buff: Buffer to store the descriptor
 196:Middlewares/ST/STM32_USB_Host_Library/Core/Src/usbh_ctlreq.c ****   * @param  length: Length of the descriptor
 197:Middlewares/ST/STM32_USB_Host_Library/Core/Src/usbh_ctlreq.c ****   * @retval USBH Status
 198:Middlewares/ST/STM32_USB_Host_Library/Core/Src/usbh_ctlreq.c ****   */
 199:Middlewares/ST/STM32_USB_Host_Library/Core/Src/usbh_ctlreq.c **** USBH_StatusTypeDef USBH_GetDescriptor(USBH_HandleTypeDef *phost, uint8_t req_type, uint16_t value_i
 200:Middlewares/ST/STM32_USB_Host_Library/Core/Src/usbh_ctlreq.c ****                                       uint8_t *buff, uint16_t length)
 201:Middlewares/ST/STM32_USB_Host_Library/Core/Src/usbh_ctlreq.c **** {
ARM GAS  /tmp/ccxHAzXl.s 			page 5


 202:Middlewares/ST/STM32_USB_Host_Library/Core/Src/usbh_ctlreq.c ****   if (phost->RequestState == CMD_SEND)
 203:Middlewares/ST/STM32_USB_Host_Library/Core/Src/usbh_ctlreq.c ****   {
 204:Middlewares/ST/STM32_USB_Host_Library/Core/Src/usbh_ctlreq.c ****     phost->Control.setup.b.bmRequestType = USB_D2H | req_type;
 205:Middlewares/ST/STM32_USB_Host_Library/Core/Src/usbh_ctlreq.c ****     phost->Control.setup.b.bRequest = USB_REQ_GET_DESCRIPTOR;
 206:Middlewares/ST/STM32_USB_Host_Library/Core/Src/usbh_ctlreq.c ****     phost->Control.setup.b.wValue.w = value_idx;
 207:Middlewares/ST/STM32_USB_Host_Library/Core/Src/usbh_ctlreq.c **** 
 208:Middlewares/ST/STM32_USB_Host_Library/Core/Src/usbh_ctlreq.c ****     if ((value_idx & 0xff00U) == USB_DESC_STRING)
 209:Middlewares/ST/STM32_USB_Host_Library/Core/Src/usbh_ctlreq.c ****     {
 210:Middlewares/ST/STM32_USB_Host_Library/Core/Src/usbh_ctlreq.c ****       phost->Control.setup.b.wIndex.w = 0x0409U;
 211:Middlewares/ST/STM32_USB_Host_Library/Core/Src/usbh_ctlreq.c ****     }
 212:Middlewares/ST/STM32_USB_Host_Library/Core/Src/usbh_ctlreq.c ****     else
 213:Middlewares/ST/STM32_USB_Host_Library/Core/Src/usbh_ctlreq.c ****     {
 214:Middlewares/ST/STM32_USB_Host_Library/Core/Src/usbh_ctlreq.c ****       phost->Control.setup.b.wIndex.w = 0U;
 215:Middlewares/ST/STM32_USB_Host_Library/Core/Src/usbh_ctlreq.c ****     }
 216:Middlewares/ST/STM32_USB_Host_Library/Core/Src/usbh_ctlreq.c ****     phost->Control.setup.b.wLength.w = length;
 217:Middlewares/ST/STM32_USB_Host_Library/Core/Src/usbh_ctlreq.c ****   }
 218:Middlewares/ST/STM32_USB_Host_Library/Core/Src/usbh_ctlreq.c **** 
 219:Middlewares/ST/STM32_USB_Host_Library/Core/Src/usbh_ctlreq.c ****   return USBH_CtlReq(phost, buff, length);
 220:Middlewares/ST/STM32_USB_Host_Library/Core/Src/usbh_ctlreq.c **** }
 221:Middlewares/ST/STM32_USB_Host_Library/Core/Src/usbh_ctlreq.c **** 
 222:Middlewares/ST/STM32_USB_Host_Library/Core/Src/usbh_ctlreq.c **** 
 223:Middlewares/ST/STM32_USB_Host_Library/Core/Src/usbh_ctlreq.c **** /**
 224:Middlewares/ST/STM32_USB_Host_Library/Core/Src/usbh_ctlreq.c ****   * @brief  USBH_SetAddress
 225:Middlewares/ST/STM32_USB_Host_Library/Core/Src/usbh_ctlreq.c ****   *         This command sets the address to the connected device
 226:Middlewares/ST/STM32_USB_Host_Library/Core/Src/usbh_ctlreq.c ****   * @param  phost: Host Handle
 227:Middlewares/ST/STM32_USB_Host_Library/Core/Src/usbh_ctlreq.c ****   * @param  DeviceAddress: Device address to assign
 228:Middlewares/ST/STM32_USB_Host_Library/Core/Src/usbh_ctlreq.c ****   * @retval USBH Status
 229:Middlewares/ST/STM32_USB_Host_Library/Core/Src/usbh_ctlreq.c ****   */
 230:Middlewares/ST/STM32_USB_Host_Library/Core/Src/usbh_ctlreq.c **** USBH_StatusTypeDef USBH_SetAddress(USBH_HandleTypeDef *phost,
 231:Middlewares/ST/STM32_USB_Host_Library/Core/Src/usbh_ctlreq.c ****                                    uint8_t DeviceAddress)
 232:Middlewares/ST/STM32_USB_Host_Library/Core/Src/usbh_ctlreq.c **** {
 233:Middlewares/ST/STM32_USB_Host_Library/Core/Src/usbh_ctlreq.c ****   if (phost->RequestState == CMD_SEND)
 234:Middlewares/ST/STM32_USB_Host_Library/Core/Src/usbh_ctlreq.c ****   {
 235:Middlewares/ST/STM32_USB_Host_Library/Core/Src/usbh_ctlreq.c ****     phost->Control.setup.b.bmRequestType = USB_H2D | USB_REQ_RECIPIENT_DEVICE | \
 236:Middlewares/ST/STM32_USB_Host_Library/Core/Src/usbh_ctlreq.c ****                                            USB_REQ_TYPE_STANDARD;
 237:Middlewares/ST/STM32_USB_Host_Library/Core/Src/usbh_ctlreq.c **** 
 238:Middlewares/ST/STM32_USB_Host_Library/Core/Src/usbh_ctlreq.c ****     phost->Control.setup.b.bRequest = USB_REQ_SET_ADDRESS;
 239:Middlewares/ST/STM32_USB_Host_Library/Core/Src/usbh_ctlreq.c **** 
 240:Middlewares/ST/STM32_USB_Host_Library/Core/Src/usbh_ctlreq.c ****     phost->Control.setup.b.wValue.w = (uint16_t)DeviceAddress;
 241:Middlewares/ST/STM32_USB_Host_Library/Core/Src/usbh_ctlreq.c ****     phost->Control.setup.b.wIndex.w = 0U;
 242:Middlewares/ST/STM32_USB_Host_Library/Core/Src/usbh_ctlreq.c ****     phost->Control.setup.b.wLength.w = 0U;
 243:Middlewares/ST/STM32_USB_Host_Library/Core/Src/usbh_ctlreq.c ****   }
 244:Middlewares/ST/STM32_USB_Host_Library/Core/Src/usbh_ctlreq.c **** 
 245:Middlewares/ST/STM32_USB_Host_Library/Core/Src/usbh_ctlreq.c ****   return USBH_CtlReq(phost, NULL, 0U);
 246:Middlewares/ST/STM32_USB_Host_Library/Core/Src/usbh_ctlreq.c **** }
 247:Middlewares/ST/STM32_USB_Host_Library/Core/Src/usbh_ctlreq.c **** 
 248:Middlewares/ST/STM32_USB_Host_Library/Core/Src/usbh_ctlreq.c **** 
 249:Middlewares/ST/STM32_USB_Host_Library/Core/Src/usbh_ctlreq.c **** /**
 250:Middlewares/ST/STM32_USB_Host_Library/Core/Src/usbh_ctlreq.c ****   * @brief  USBH_SetCfg
 251:Middlewares/ST/STM32_USB_Host_Library/Core/Src/usbh_ctlreq.c ****   *         The command sets the configuration value to the connected device
 252:Middlewares/ST/STM32_USB_Host_Library/Core/Src/usbh_ctlreq.c ****   * @param  phost: Host Handle
 253:Middlewares/ST/STM32_USB_Host_Library/Core/Src/usbh_ctlreq.c ****   * @param  cfg_idx: Configuration value
 254:Middlewares/ST/STM32_USB_Host_Library/Core/Src/usbh_ctlreq.c ****   * @retval USBH Status
 255:Middlewares/ST/STM32_USB_Host_Library/Core/Src/usbh_ctlreq.c ****   */
 256:Middlewares/ST/STM32_USB_Host_Library/Core/Src/usbh_ctlreq.c **** USBH_StatusTypeDef USBH_SetCfg(USBH_HandleTypeDef *phost, uint16_t cfg_idx)
 257:Middlewares/ST/STM32_USB_Host_Library/Core/Src/usbh_ctlreq.c **** {
 258:Middlewares/ST/STM32_USB_Host_Library/Core/Src/usbh_ctlreq.c ****   if (phost->RequestState == CMD_SEND)
ARM GAS  /tmp/ccxHAzXl.s 			page 6


 259:Middlewares/ST/STM32_USB_Host_Library/Core/Src/usbh_ctlreq.c ****   {
 260:Middlewares/ST/STM32_USB_Host_Library/Core/Src/usbh_ctlreq.c ****     phost->Control.setup.b.bmRequestType = USB_H2D | USB_REQ_RECIPIENT_DEVICE
 261:Middlewares/ST/STM32_USB_Host_Library/Core/Src/usbh_ctlreq.c ****                                            | USB_REQ_TYPE_STANDARD;
 262:Middlewares/ST/STM32_USB_Host_Library/Core/Src/usbh_ctlreq.c **** 
 263:Middlewares/ST/STM32_USB_Host_Library/Core/Src/usbh_ctlreq.c ****     phost->Control.setup.b.bRequest = USB_REQ_SET_CONFIGURATION;
 264:Middlewares/ST/STM32_USB_Host_Library/Core/Src/usbh_ctlreq.c ****     phost->Control.setup.b.wValue.w = cfg_idx;
 265:Middlewares/ST/STM32_USB_Host_Library/Core/Src/usbh_ctlreq.c ****     phost->Control.setup.b.wIndex.w = 0U;
 266:Middlewares/ST/STM32_USB_Host_Library/Core/Src/usbh_ctlreq.c ****     phost->Control.setup.b.wLength.w = 0U;
 267:Middlewares/ST/STM32_USB_Host_Library/Core/Src/usbh_ctlreq.c ****   }
 268:Middlewares/ST/STM32_USB_Host_Library/Core/Src/usbh_ctlreq.c **** 
 269:Middlewares/ST/STM32_USB_Host_Library/Core/Src/usbh_ctlreq.c ****   return USBH_CtlReq(phost, NULL, 0U);
 270:Middlewares/ST/STM32_USB_Host_Library/Core/Src/usbh_ctlreq.c **** }
 271:Middlewares/ST/STM32_USB_Host_Library/Core/Src/usbh_ctlreq.c **** 
 272:Middlewares/ST/STM32_USB_Host_Library/Core/Src/usbh_ctlreq.c **** 
 273:Middlewares/ST/STM32_USB_Host_Library/Core/Src/usbh_ctlreq.c **** /**
 274:Middlewares/ST/STM32_USB_Host_Library/Core/Src/usbh_ctlreq.c ****   * @brief  USBH_SetInterface
 275:Middlewares/ST/STM32_USB_Host_Library/Core/Src/usbh_ctlreq.c ****   *         The command sets the Interface value to the connected device
 276:Middlewares/ST/STM32_USB_Host_Library/Core/Src/usbh_ctlreq.c ****   * @param  phost: Host Handle
 277:Middlewares/ST/STM32_USB_Host_Library/Core/Src/usbh_ctlreq.c ****   * @param  altSetting: Interface value
 278:Middlewares/ST/STM32_USB_Host_Library/Core/Src/usbh_ctlreq.c ****   * @retval USBH Status
 279:Middlewares/ST/STM32_USB_Host_Library/Core/Src/usbh_ctlreq.c ****   */
 280:Middlewares/ST/STM32_USB_Host_Library/Core/Src/usbh_ctlreq.c **** USBH_StatusTypeDef USBH_SetInterface(USBH_HandleTypeDef *phost, uint8_t ep_num, uint8_t altSetting)
 281:Middlewares/ST/STM32_USB_Host_Library/Core/Src/usbh_ctlreq.c **** {
 282:Middlewares/ST/STM32_USB_Host_Library/Core/Src/usbh_ctlreq.c ****   if (phost->RequestState == CMD_SEND)
 283:Middlewares/ST/STM32_USB_Host_Library/Core/Src/usbh_ctlreq.c ****   {
 284:Middlewares/ST/STM32_USB_Host_Library/Core/Src/usbh_ctlreq.c ****     phost->Control.setup.b.bmRequestType = USB_H2D | USB_REQ_RECIPIENT_INTERFACE
 285:Middlewares/ST/STM32_USB_Host_Library/Core/Src/usbh_ctlreq.c ****                                            | USB_REQ_TYPE_STANDARD;
 286:Middlewares/ST/STM32_USB_Host_Library/Core/Src/usbh_ctlreq.c **** 
 287:Middlewares/ST/STM32_USB_Host_Library/Core/Src/usbh_ctlreq.c ****     phost->Control.setup.b.bRequest = USB_REQ_SET_INTERFACE;
 288:Middlewares/ST/STM32_USB_Host_Library/Core/Src/usbh_ctlreq.c ****     phost->Control.setup.b.wValue.w = altSetting;
 289:Middlewares/ST/STM32_USB_Host_Library/Core/Src/usbh_ctlreq.c ****     phost->Control.setup.b.wIndex.w = ep_num;
 290:Middlewares/ST/STM32_USB_Host_Library/Core/Src/usbh_ctlreq.c ****     phost->Control.setup.b.wLength.w = 0U;
 291:Middlewares/ST/STM32_USB_Host_Library/Core/Src/usbh_ctlreq.c ****   }
 292:Middlewares/ST/STM32_USB_Host_Library/Core/Src/usbh_ctlreq.c **** 
 293:Middlewares/ST/STM32_USB_Host_Library/Core/Src/usbh_ctlreq.c ****   return USBH_CtlReq(phost, NULL, 0U);
 294:Middlewares/ST/STM32_USB_Host_Library/Core/Src/usbh_ctlreq.c **** }
 295:Middlewares/ST/STM32_USB_Host_Library/Core/Src/usbh_ctlreq.c **** 
 296:Middlewares/ST/STM32_USB_Host_Library/Core/Src/usbh_ctlreq.c **** 
 297:Middlewares/ST/STM32_USB_Host_Library/Core/Src/usbh_ctlreq.c **** /**
 298:Middlewares/ST/STM32_USB_Host_Library/Core/Src/usbh_ctlreq.c ****   * @brief  USBH_SetFeature
 299:Middlewares/ST/STM32_USB_Host_Library/Core/Src/usbh_ctlreq.c ****   *         The command sets the device features (remote wakeup feature,..)
 300:Middlewares/ST/STM32_USB_Host_Library/Core/Src/usbh_ctlreq.c ****   * @param  pdev: Selected device
 301:Middlewares/ST/STM32_USB_Host_Library/Core/Src/usbh_ctlreq.c ****   * @param  itf_idx
 302:Middlewares/ST/STM32_USB_Host_Library/Core/Src/usbh_ctlreq.c ****   * @retval Status
 303:Middlewares/ST/STM32_USB_Host_Library/Core/Src/usbh_ctlreq.c ****   */
 304:Middlewares/ST/STM32_USB_Host_Library/Core/Src/usbh_ctlreq.c **** USBH_StatusTypeDef USBH_SetFeature(USBH_HandleTypeDef *phost, uint8_t wValue)
 305:Middlewares/ST/STM32_USB_Host_Library/Core/Src/usbh_ctlreq.c **** {
 306:Middlewares/ST/STM32_USB_Host_Library/Core/Src/usbh_ctlreq.c ****   if (phost->RequestState == CMD_SEND)
 307:Middlewares/ST/STM32_USB_Host_Library/Core/Src/usbh_ctlreq.c ****   {
 308:Middlewares/ST/STM32_USB_Host_Library/Core/Src/usbh_ctlreq.c ****     phost->Control.setup.b.bmRequestType = USB_H2D | USB_REQ_RECIPIENT_DEVICE
 309:Middlewares/ST/STM32_USB_Host_Library/Core/Src/usbh_ctlreq.c ****                                            | USB_REQ_TYPE_STANDARD;
 310:Middlewares/ST/STM32_USB_Host_Library/Core/Src/usbh_ctlreq.c **** 
 311:Middlewares/ST/STM32_USB_Host_Library/Core/Src/usbh_ctlreq.c ****     phost->Control.setup.b.bRequest = USB_REQ_SET_FEATURE;
 312:Middlewares/ST/STM32_USB_Host_Library/Core/Src/usbh_ctlreq.c ****     phost->Control.setup.b.wValue.w = wValue;
 313:Middlewares/ST/STM32_USB_Host_Library/Core/Src/usbh_ctlreq.c ****     phost->Control.setup.b.wIndex.w = 0U;
 314:Middlewares/ST/STM32_USB_Host_Library/Core/Src/usbh_ctlreq.c ****     phost->Control.setup.b.wLength.w = 0U;
 315:Middlewares/ST/STM32_USB_Host_Library/Core/Src/usbh_ctlreq.c ****   }
ARM GAS  /tmp/ccxHAzXl.s 			page 7


 316:Middlewares/ST/STM32_USB_Host_Library/Core/Src/usbh_ctlreq.c **** 
 317:Middlewares/ST/STM32_USB_Host_Library/Core/Src/usbh_ctlreq.c ****   return USBH_CtlReq(phost, NULL, 0U);
 318:Middlewares/ST/STM32_USB_Host_Library/Core/Src/usbh_ctlreq.c **** }
 319:Middlewares/ST/STM32_USB_Host_Library/Core/Src/usbh_ctlreq.c **** 
 320:Middlewares/ST/STM32_USB_Host_Library/Core/Src/usbh_ctlreq.c **** 
 321:Middlewares/ST/STM32_USB_Host_Library/Core/Src/usbh_ctlreq.c **** /**
 322:Middlewares/ST/STM32_USB_Host_Library/Core/Src/usbh_ctlreq.c ****   * @brief  USBH_ClrFeature
 323:Middlewares/ST/STM32_USB_Host_Library/Core/Src/usbh_ctlreq.c ****   *         This request is used to clear or disable a specific feature.
 324:Middlewares/ST/STM32_USB_Host_Library/Core/Src/usbh_ctlreq.c ****   * @param  phost: Host Handle
 325:Middlewares/ST/STM32_USB_Host_Library/Core/Src/usbh_ctlreq.c ****   * @param  ep_num: endpoint number
 326:Middlewares/ST/STM32_USB_Host_Library/Core/Src/usbh_ctlreq.c ****   * @param  hc_num: Host channel number
 327:Middlewares/ST/STM32_USB_Host_Library/Core/Src/usbh_ctlreq.c ****   * @retval USBH Status
 328:Middlewares/ST/STM32_USB_Host_Library/Core/Src/usbh_ctlreq.c ****   */
 329:Middlewares/ST/STM32_USB_Host_Library/Core/Src/usbh_ctlreq.c **** USBH_StatusTypeDef USBH_ClrFeature(USBH_HandleTypeDef *phost, uint8_t ep_num)
 330:Middlewares/ST/STM32_USB_Host_Library/Core/Src/usbh_ctlreq.c **** {
 331:Middlewares/ST/STM32_USB_Host_Library/Core/Src/usbh_ctlreq.c ****   if (phost->RequestState == CMD_SEND)
 332:Middlewares/ST/STM32_USB_Host_Library/Core/Src/usbh_ctlreq.c ****   {
 333:Middlewares/ST/STM32_USB_Host_Library/Core/Src/usbh_ctlreq.c ****     phost->Control.setup.b.bmRequestType = USB_H2D | USB_REQ_RECIPIENT_ENDPOINT
 334:Middlewares/ST/STM32_USB_Host_Library/Core/Src/usbh_ctlreq.c ****                                            | USB_REQ_TYPE_STANDARD;
 335:Middlewares/ST/STM32_USB_Host_Library/Core/Src/usbh_ctlreq.c **** 
 336:Middlewares/ST/STM32_USB_Host_Library/Core/Src/usbh_ctlreq.c ****     phost->Control.setup.b.bRequest = USB_REQ_CLEAR_FEATURE;
 337:Middlewares/ST/STM32_USB_Host_Library/Core/Src/usbh_ctlreq.c ****     phost->Control.setup.b.wValue.w = FEATURE_SELECTOR_ENDPOINT;
 338:Middlewares/ST/STM32_USB_Host_Library/Core/Src/usbh_ctlreq.c ****     phost->Control.setup.b.wIndex.w = ep_num;
 339:Middlewares/ST/STM32_USB_Host_Library/Core/Src/usbh_ctlreq.c ****     phost->Control.setup.b.wLength.w = 0U;
 340:Middlewares/ST/STM32_USB_Host_Library/Core/Src/usbh_ctlreq.c ****   }
 341:Middlewares/ST/STM32_USB_Host_Library/Core/Src/usbh_ctlreq.c **** 
 342:Middlewares/ST/STM32_USB_Host_Library/Core/Src/usbh_ctlreq.c ****   return USBH_CtlReq(phost, NULL, 0U);
 343:Middlewares/ST/STM32_USB_Host_Library/Core/Src/usbh_ctlreq.c **** }
 344:Middlewares/ST/STM32_USB_Host_Library/Core/Src/usbh_ctlreq.c **** 
 345:Middlewares/ST/STM32_USB_Host_Library/Core/Src/usbh_ctlreq.c **** 
 346:Middlewares/ST/STM32_USB_Host_Library/Core/Src/usbh_ctlreq.c **** /**
 347:Middlewares/ST/STM32_USB_Host_Library/Core/Src/usbh_ctlreq.c ****   * @brief  USBH_ParseDevDesc
 348:Middlewares/ST/STM32_USB_Host_Library/Core/Src/usbh_ctlreq.c ****   *         This function Parses the device descriptor
 349:Middlewares/ST/STM32_USB_Host_Library/Core/Src/usbh_ctlreq.c ****   * @param  phost: Host Handle
 350:Middlewares/ST/STM32_USB_Host_Library/Core/Src/usbh_ctlreq.c ****   * @param  dev_desc: device_descriptor destination address
 351:Middlewares/ST/STM32_USB_Host_Library/Core/Src/usbh_ctlreq.c ****   * @param  buf: Buffer where the source descriptor is available
 352:Middlewares/ST/STM32_USB_Host_Library/Core/Src/usbh_ctlreq.c ****   * @param  length: Length of the descriptor
 353:Middlewares/ST/STM32_USB_Host_Library/Core/Src/usbh_ctlreq.c ****   * @retval USBH status
 354:Middlewares/ST/STM32_USB_Host_Library/Core/Src/usbh_ctlreq.c ****   */
 355:Middlewares/ST/STM32_USB_Host_Library/Core/Src/usbh_ctlreq.c **** static USBH_StatusTypeDef USBH_ParseDevDesc(USBH_HandleTypeDef *phost, uint8_t *buf, uint16_t lengt
 356:Middlewares/ST/STM32_USB_Host_Library/Core/Src/usbh_ctlreq.c **** {
  29              		.loc 1 356 1 view -0
  30              		.cfi_startproc
  31              		@ args = 0, pretend = 0, frame = 0
  32              		@ frame_needed = 0, uses_anonymous_args = 0
  33              		@ link register save eliminated.
  34              		.loc 1 356 1 is_stmt 0 view .LVU1
  35 0000 0346     		mov	r3, r0
 357:Middlewares/ST/STM32_USB_Host_Library/Core/Src/usbh_ctlreq.c ****   USBH_DevDescTypeDef *dev_desc = &phost->device.DevDesc;
  36              		.loc 1 357 3 is_stmt 1 view .LVU2
  37              	.LVL1:
 358:Middlewares/ST/STM32_USB_Host_Library/Core/Src/usbh_ctlreq.c ****   USBH_StatusTypeDef status = USBH_OK;
  38              		.loc 1 358 3 view .LVU3
 359:Middlewares/ST/STM32_USB_Host_Library/Core/Src/usbh_ctlreq.c **** 
 360:Middlewares/ST/STM32_USB_Host_Library/Core/Src/usbh_ctlreq.c ****   if (buf == NULL)
  39              		.loc 1 360 3 view .LVU4
  40              		.loc 1 360 6 is_stmt 0 view .LVU5
ARM GAS  /tmp/ccxHAzXl.s 			page 8


  41 0002 8C46     		mov	ip, r1
  42 0004 0029     		cmp	r1, #0
  43 0006 70D0     		beq	.L7
 361:Middlewares/ST/STM32_USB_Host_Library/Core/Src/usbh_ctlreq.c ****   {
 362:Middlewares/ST/STM32_USB_Host_Library/Core/Src/usbh_ctlreq.c ****     return USBH_FAIL;
 363:Middlewares/ST/STM32_USB_Host_Library/Core/Src/usbh_ctlreq.c ****   }
 364:Middlewares/ST/STM32_USB_Host_Library/Core/Src/usbh_ctlreq.c **** 
 365:Middlewares/ST/STM32_USB_Host_Library/Core/Src/usbh_ctlreq.c ****   dev_desc->bLength            = *(uint8_t *)(buf +  0U);
  44              		.loc 1 365 3 is_stmt 1 view .LVU6
  45              		.loc 1 365 34 is_stmt 0 view .LVU7
  46 0008 0978     		ldrb	r1, [r1]	@ zero_extendqisi2
  47              	.LVL2:
  48              		.loc 1 365 32 view .LVU8
  49 000a 80F82613 		strb	r1, [r0, #806]
 366:Middlewares/ST/STM32_USB_Host_Library/Core/Src/usbh_ctlreq.c ****   dev_desc->bDescriptorType    = *(uint8_t *)(buf +  1U);
  50              		.loc 1 366 3 is_stmt 1 view .LVU9
  51              		.loc 1 366 32 is_stmt 0 view .LVU10
  52 000e 9CF80110 		ldrb	r1, [ip, #1]	@ zero_extendqisi2
  53 0012 80F82713 		strb	r1, [r0, #807]
 367:Middlewares/ST/STM32_USB_Host_Library/Core/Src/usbh_ctlreq.c ****   dev_desc->bcdUSB             = LE16(buf +  2U);
  54              		.loc 1 367 3 is_stmt 1 view .LVU11
  55              		.loc 1 367 34 is_stmt 0 view .LVU12
  56 0016 9CF80210 		ldrb	r1, [ip, #2]	@ zero_extendqisi2
  57 001a 9CF80300 		ldrb	r0, [ip, #3]	@ zero_extendqisi2
  58              	.LVL3:
  59              		.loc 1 367 34 view .LVU13
  60 001e 41EA0021 		orr	r1, r1, r0, lsl #8
  61              		.loc 1 367 32 view .LVU14
  62 0022 A3F82813 		strh	r1, [r3, #808]	@ movhi
 368:Middlewares/ST/STM32_USB_Host_Library/Core/Src/usbh_ctlreq.c ****   dev_desc->bDeviceClass       = *(uint8_t *)(buf +  4U);
  63              		.loc 1 368 3 is_stmt 1 view .LVU15
  64              		.loc 1 368 32 is_stmt 0 view .LVU16
  65 0026 9CF80410 		ldrb	r1, [ip, #4]	@ zero_extendqisi2
  66 002a 83F82A13 		strb	r1, [r3, #810]
 369:Middlewares/ST/STM32_USB_Host_Library/Core/Src/usbh_ctlreq.c ****   dev_desc->bDeviceSubClass    = *(uint8_t *)(buf +  5U);
  67              		.loc 1 369 3 is_stmt 1 view .LVU17
  68              		.loc 1 369 32 is_stmt 0 view .LVU18
  69 002e 9CF80510 		ldrb	r1, [ip, #5]	@ zero_extendqisi2
  70 0032 83F82B13 		strb	r1, [r3, #811]
 370:Middlewares/ST/STM32_USB_Host_Library/Core/Src/usbh_ctlreq.c ****   dev_desc->bDeviceProtocol    = *(uint8_t *)(buf +  6U);
  71              		.loc 1 370 3 is_stmt 1 view .LVU19
  72              		.loc 1 370 32 is_stmt 0 view .LVU20
  73 0036 9CF80610 		ldrb	r1, [ip, #6]	@ zero_extendqisi2
  74 003a 83F82C13 		strb	r1, [r3, #812]
 371:Middlewares/ST/STM32_USB_Host_Library/Core/Src/usbh_ctlreq.c ****   dev_desc->bMaxPacketSize     = *(uint8_t *)(buf +  7U);
  75              		.loc 1 371 3 is_stmt 1 view .LVU21
  76              		.loc 1 371 32 is_stmt 0 view .LVU22
  77 003e 9CF80710 		ldrb	r1, [ip, #7]	@ zero_extendqisi2
  78 0042 83F82D13 		strb	r1, [r3, #813]
 372:Middlewares/ST/STM32_USB_Host_Library/Core/Src/usbh_ctlreq.c **** 
 373:Middlewares/ST/STM32_USB_Host_Library/Core/Src/usbh_ctlreq.c ****   if ((phost->device.speed == (uint8_t)USBH_SPEED_HIGH) ||
  79              		.loc 1 373 3 is_stmt 1 view .LVU23
  80              		.loc 1 373 21 is_stmt 0 view .LVU24
  81 0046 93F81D03 		ldrb	r0, [r3, #797]	@ zero_extendqisi2
  82              		.loc 1 373 6 view .LVU25
  83 004a 0128     		cmp	r0, #1
  84 004c 2DD9     		bls	.L12
ARM GAS  /tmp/ccxHAzXl.s 			page 9


 374:Middlewares/ST/STM32_USB_Host_Library/Core/Src/usbh_ctlreq.c ****       (phost->device.speed == (uint8_t)USBH_SPEED_FULL))
 375:Middlewares/ST/STM32_USB_Host_Library/Core/Src/usbh_ctlreq.c ****   {
 376:Middlewares/ST/STM32_USB_Host_Library/Core/Src/usbh_ctlreq.c ****     /* Make sure that the max packet size is either 8, 16, 32, 64 or force it to minimum allowed va
 377:Middlewares/ST/STM32_USB_Host_Library/Core/Src/usbh_ctlreq.c ****     switch (dev_desc->bMaxPacketSize)
 378:Middlewares/ST/STM32_USB_Host_Library/Core/Src/usbh_ctlreq.c ****     {
 379:Middlewares/ST/STM32_USB_Host_Library/Core/Src/usbh_ctlreq.c ****       case 8:
 380:Middlewares/ST/STM32_USB_Host_Library/Core/Src/usbh_ctlreq.c ****       case 16:
 381:Middlewares/ST/STM32_USB_Host_Library/Core/Src/usbh_ctlreq.c ****       case 32:
 382:Middlewares/ST/STM32_USB_Host_Library/Core/Src/usbh_ctlreq.c ****       case 64:
 383:Middlewares/ST/STM32_USB_Host_Library/Core/Src/usbh_ctlreq.c ****         break;
 384:Middlewares/ST/STM32_USB_Host_Library/Core/Src/usbh_ctlreq.c **** 
 385:Middlewares/ST/STM32_USB_Host_Library/Core/Src/usbh_ctlreq.c ****       default:
 386:Middlewares/ST/STM32_USB_Host_Library/Core/Src/usbh_ctlreq.c ****         /* set the size to min allowed value in case the device has answered with incorrect size */
 387:Middlewares/ST/STM32_USB_Host_Library/Core/Src/usbh_ctlreq.c ****         dev_desc->bMaxPacketSize = 8U;
 388:Middlewares/ST/STM32_USB_Host_Library/Core/Src/usbh_ctlreq.c ****         break;
 389:Middlewares/ST/STM32_USB_Host_Library/Core/Src/usbh_ctlreq.c ****     }
 390:Middlewares/ST/STM32_USB_Host_Library/Core/Src/usbh_ctlreq.c ****   }
 391:Middlewares/ST/STM32_USB_Host_Library/Core/Src/usbh_ctlreq.c ****   else if (phost->device.speed == (uint8_t)USBH_SPEED_LOW)
  85              		.loc 1 391 8 is_stmt 1 view .LVU26
  86              		.loc 1 391 11 is_stmt 0 view .LVU27
  87 004e 0228     		cmp	r0, #2
  88 0050 40D0     		beq	.L13
 392:Middlewares/ST/STM32_USB_Host_Library/Core/Src/usbh_ctlreq.c ****   {
 393:Middlewares/ST/STM32_USB_Host_Library/Core/Src/usbh_ctlreq.c ****     if (dev_desc->bMaxPacketSize != 8U)
 394:Middlewares/ST/STM32_USB_Host_Library/Core/Src/usbh_ctlreq.c ****     {
 395:Middlewares/ST/STM32_USB_Host_Library/Core/Src/usbh_ctlreq.c ****       /* set the size to 8 in case the device has answered with incorrect size */
 396:Middlewares/ST/STM32_USB_Host_Library/Core/Src/usbh_ctlreq.c ****       dev_desc->bMaxPacketSize = 8U;
 397:Middlewares/ST/STM32_USB_Host_Library/Core/Src/usbh_ctlreq.c ****     }
 398:Middlewares/ST/STM32_USB_Host_Library/Core/Src/usbh_ctlreq.c ****   }
 399:Middlewares/ST/STM32_USB_Host_Library/Core/Src/usbh_ctlreq.c ****   else
 400:Middlewares/ST/STM32_USB_Host_Library/Core/Src/usbh_ctlreq.c ****   {
 401:Middlewares/ST/STM32_USB_Host_Library/Core/Src/usbh_ctlreq.c ****     status = USBH_NOT_SUPPORTED;
  89              		.loc 1 401 12 view .LVU28
  90 0052 0320     		movs	r0, #3
  91              	.L6:
  92              	.LVL4:
 402:Middlewares/ST/STM32_USB_Host_Library/Core/Src/usbh_ctlreq.c ****   }
 403:Middlewares/ST/STM32_USB_Host_Library/Core/Src/usbh_ctlreq.c **** 
 404:Middlewares/ST/STM32_USB_Host_Library/Core/Src/usbh_ctlreq.c ****   if (length > 8U)
  93              		.loc 1 404 3 is_stmt 1 view .LVU29
  94              		.loc 1 404 6 is_stmt 0 view .LVU30
  95 0054 082A     		cmp	r2, #8
  96 0056 49D9     		bls	.L2
 405:Middlewares/ST/STM32_USB_Host_Library/Core/Src/usbh_ctlreq.c ****   {
 406:Middlewares/ST/STM32_USB_Host_Library/Core/Src/usbh_ctlreq.c ****     /* For 1st time after device connection, Host may issue only 8 bytes for
 407:Middlewares/ST/STM32_USB_Host_Library/Core/Src/usbh_ctlreq.c ****     Device Descriptor Length  */
 408:Middlewares/ST/STM32_USB_Host_Library/Core/Src/usbh_ctlreq.c ****     dev_desc->idVendor           = LE16(buf +  8U);
  97              		.loc 1 408 5 is_stmt 1 view .LVU31
  98              		.loc 1 408 36 is_stmt 0 view .LVU32
  99 0058 9CF80820 		ldrb	r2, [ip, #8]	@ zero_extendqisi2
 100              	.LVL5:
 101              		.loc 1 408 36 view .LVU33
 102 005c 9CF80910 		ldrb	r1, [ip, #9]	@ zero_extendqisi2
 103 0060 42EA0122 		orr	r2, r2, r1, lsl #8
 104              		.loc 1 408 34 view .LVU34
 105 0064 A3F82E23 		strh	r2, [r3, #814]	@ movhi
 409:Middlewares/ST/STM32_USB_Host_Library/Core/Src/usbh_ctlreq.c ****     dev_desc->idProduct          = LE16(buf + 10U);
ARM GAS  /tmp/ccxHAzXl.s 			page 10


 106              		.loc 1 409 5 is_stmt 1 view .LVU35
 107              		.loc 1 409 36 is_stmt 0 view .LVU36
 108 0068 9CF80A20 		ldrb	r2, [ip, #10]	@ zero_extendqisi2
 109 006c 9CF80B10 		ldrb	r1, [ip, #11]	@ zero_extendqisi2
 110 0070 42EA0122 		orr	r2, r2, r1, lsl #8
 111              		.loc 1 409 34 view .LVU37
 112 0074 A3F83023 		strh	r2, [r3, #816]	@ movhi
 410:Middlewares/ST/STM32_USB_Host_Library/Core/Src/usbh_ctlreq.c ****     dev_desc->bcdDevice          = LE16(buf + 12U);
 113              		.loc 1 410 5 is_stmt 1 view .LVU38
 114              		.loc 1 410 36 is_stmt 0 view .LVU39
 115 0078 9CF80C20 		ldrb	r2, [ip, #12]	@ zero_extendqisi2
 116 007c 9CF80D10 		ldrb	r1, [ip, #13]	@ zero_extendqisi2
 117 0080 42EA0122 		orr	r2, r2, r1, lsl #8
 118              		.loc 1 410 34 view .LVU40
 119 0084 A3F83223 		strh	r2, [r3, #818]	@ movhi
 411:Middlewares/ST/STM32_USB_Host_Library/Core/Src/usbh_ctlreq.c ****     dev_desc->iManufacturer      = *(uint8_t *)(buf + 14U);
 120              		.loc 1 411 5 is_stmt 1 view .LVU41
 121              		.loc 1 411 34 is_stmt 0 view .LVU42
 122 0088 9CF80E20 		ldrb	r2, [ip, #14]	@ zero_extendqisi2
 123 008c 83F83423 		strb	r2, [r3, #820]
 412:Middlewares/ST/STM32_USB_Host_Library/Core/Src/usbh_ctlreq.c ****     dev_desc->iProduct           = *(uint8_t *)(buf + 15U);
 124              		.loc 1 412 5 is_stmt 1 view .LVU43
 125              		.loc 1 412 34 is_stmt 0 view .LVU44
 126 0090 9CF80F20 		ldrb	r2, [ip, #15]	@ zero_extendqisi2
 127 0094 83F83523 		strb	r2, [r3, #821]
 413:Middlewares/ST/STM32_USB_Host_Library/Core/Src/usbh_ctlreq.c ****     dev_desc->iSerialNumber      = *(uint8_t *)(buf + 16U);
 128              		.loc 1 413 5 is_stmt 1 view .LVU45
 129              		.loc 1 413 34 is_stmt 0 view .LVU46
 130 0098 9CF81020 		ldrb	r2, [ip, #16]	@ zero_extendqisi2
 131 009c 83F83623 		strb	r2, [r3, #822]
 414:Middlewares/ST/STM32_USB_Host_Library/Core/Src/usbh_ctlreq.c ****     dev_desc->bNumConfigurations = *(uint8_t *)(buf + 17U);
 132              		.loc 1 414 5 is_stmt 1 view .LVU47
 133              		.loc 1 414 34 is_stmt 0 view .LVU48
 134 00a0 9CF81120 		ldrb	r2, [ip, #17]	@ zero_extendqisi2
 135 00a4 83F83723 		strb	r2, [r3, #823]
 136 00a8 7047     		bx	lr
 137              	.LVL6:
 138              	.L12:
 377:Middlewares/ST/STM32_USB_Host_Library/Core/Src/usbh_ctlreq.c ****     {
 139              		.loc 1 377 5 is_stmt 1 view .LVU49
 140 00aa 2029     		cmp	r1, #32
 141 00ac 0ED8     		bhi	.L4
 142 00ae 0829     		cmp	r1, #8
 143 00b0 07D3     		bcc	.L5
 144 00b2 0839     		subs	r1, r1, #8
 145 00b4 C9B2     		uxtb	r1, r1
 146 00b6 0E48     		ldr	r0, .L15
 147 00b8 20FA01F1 		lsr	r1, r0, r1
 148 00bc 11F0010F 		tst	r1, #1
 149 00c0 0FD1     		bne	.L14
 150              	.L5:
 387:Middlewares/ST/STM32_USB_Host_Library/Core/Src/usbh_ctlreq.c ****         break;
 151              		.loc 1 387 9 view .LVU50
 387:Middlewares/ST/STM32_USB_Host_Library/Core/Src/usbh_ctlreq.c ****         break;
 152              		.loc 1 387 34 is_stmt 0 view .LVU51
 153 00c2 0821     		movs	r1, #8
 154 00c4 83F82D13 		strb	r1, [r3, #813]
ARM GAS  /tmp/ccxHAzXl.s 			page 11


 388:Middlewares/ST/STM32_USB_Host_Library/Core/Src/usbh_ctlreq.c ****     }
 155              		.loc 1 388 9 is_stmt 1 view .LVU52
 358:Middlewares/ST/STM32_USB_Host_Library/Core/Src/usbh_ctlreq.c **** 
 156              		.loc 1 358 22 is_stmt 0 view .LVU53
 157 00c8 0020     		movs	r0, #0
 388:Middlewares/ST/STM32_USB_Host_Library/Core/Src/usbh_ctlreq.c ****     }
 158              		.loc 1 388 9 view .LVU54
 159 00ca C3E7     		b	.L6
 160              	.L4:
 377:Middlewares/ST/STM32_USB_Host_Library/Core/Src/usbh_ctlreq.c ****     {
 161              		.loc 1 377 5 view .LVU55
 162 00cc 4029     		cmp	r1, #64
 163 00ce F8D1     		bne	.L5
 164 00d0 0020     		movs	r0, #0
 165 00d2 BFE7     		b	.L6
 166              	.L13:
 393:Middlewares/ST/STM32_USB_Host_Library/Core/Src/usbh_ctlreq.c ****     {
 167              		.loc 1 393 5 is_stmt 1 view .LVU56
 393:Middlewares/ST/STM32_USB_Host_Library/Core/Src/usbh_ctlreq.c ****     {
 168              		.loc 1 393 8 is_stmt 0 view .LVU57
 169 00d4 0829     		cmp	r1, #8
 170 00d6 06D0     		beq	.L11
 396:Middlewares/ST/STM32_USB_Host_Library/Core/Src/usbh_ctlreq.c ****     }
 171              		.loc 1 396 7 is_stmt 1 view .LVU58
 396:Middlewares/ST/STM32_USB_Host_Library/Core/Src/usbh_ctlreq.c ****     }
 172              		.loc 1 396 32 is_stmt 0 view .LVU59
 173 00d8 0821     		movs	r1, #8
 174 00da 83F82D13 		strb	r1, [r3, #813]
 358:Middlewares/ST/STM32_USB_Host_Library/Core/Src/usbh_ctlreq.c **** 
 175              		.loc 1 358 22 view .LVU60
 176 00de 0020     		movs	r0, #0
 177 00e0 B8E7     		b	.L6
 178              	.L14:
 377:Middlewares/ST/STM32_USB_Host_Library/Core/Src/usbh_ctlreq.c ****     {
 179              		.loc 1 377 5 view .LVU61
 180 00e2 0020     		movs	r0, #0
 181 00e4 B6E7     		b	.L6
 182              	.L11:
 358:Middlewares/ST/STM32_USB_Host_Library/Core/Src/usbh_ctlreq.c **** 
 183              		.loc 1 358 22 view .LVU62
 184 00e6 0020     		movs	r0, #0
 185 00e8 B4E7     		b	.L6
 186              	.LVL7:
 187              	.L7:
 362:Middlewares/ST/STM32_USB_Host_Library/Core/Src/usbh_ctlreq.c ****   }
 188              		.loc 1 362 12 view .LVU63
 189 00ea 0220     		movs	r0, #2
 190              	.LVL8:
 191              	.L2:
 415:Middlewares/ST/STM32_USB_Host_Library/Core/Src/usbh_ctlreq.c ****   }
 416:Middlewares/ST/STM32_USB_Host_Library/Core/Src/usbh_ctlreq.c **** 
 417:Middlewares/ST/STM32_USB_Host_Library/Core/Src/usbh_ctlreq.c ****   return status;
 418:Middlewares/ST/STM32_USB_Host_Library/Core/Src/usbh_ctlreq.c **** }
 192              		.loc 1 418 1 view .LVU64
 193 00ec 7047     		bx	lr
 194              	.L16:
 195 00ee 00BF     		.align	2
ARM GAS  /tmp/ccxHAzXl.s 			page 12


 196              	.L15:
 197 00f0 01010001 		.word	16777473
 198              		.cfi_endproc
 199              	.LFE146:
 201              		.section	.text.USBH_ParseInterfaceDesc,"ax",%progbits
 202              		.align	1
 203              		.syntax unified
 204              		.thumb
 205              		.thumb_func
 207              	USBH_ParseInterfaceDesc:
 208              	.LVL9:
 209              	.LFB148:
 419:Middlewares/ST/STM32_USB_Host_Library/Core/Src/usbh_ctlreq.c **** 
 420:Middlewares/ST/STM32_USB_Host_Library/Core/Src/usbh_ctlreq.c **** 
 421:Middlewares/ST/STM32_USB_Host_Library/Core/Src/usbh_ctlreq.c **** /**
 422:Middlewares/ST/STM32_USB_Host_Library/Core/Src/usbh_ctlreq.c ****   * @brief  USBH_ParseCfgDesc
 423:Middlewares/ST/STM32_USB_Host_Library/Core/Src/usbh_ctlreq.c ****   *         This function Parses the configuration descriptor
 424:Middlewares/ST/STM32_USB_Host_Library/Core/Src/usbh_ctlreq.c ****   * @param  phost: USB Host handler
 425:Middlewares/ST/STM32_USB_Host_Library/Core/Src/usbh_ctlreq.c ****   * @param  buf: Buffer where the source descriptor is available
 426:Middlewares/ST/STM32_USB_Host_Library/Core/Src/usbh_ctlreq.c ****   * @param  length: Length of the descriptor
 427:Middlewares/ST/STM32_USB_Host_Library/Core/Src/usbh_ctlreq.c ****   * @retval USBH status
 428:Middlewares/ST/STM32_USB_Host_Library/Core/Src/usbh_ctlreq.c ****   */
 429:Middlewares/ST/STM32_USB_Host_Library/Core/Src/usbh_ctlreq.c **** static USBH_StatusTypeDef USBH_ParseCfgDesc(USBH_HandleTypeDef *phost, uint8_t *buf, uint16_t lengt
 430:Middlewares/ST/STM32_USB_Host_Library/Core/Src/usbh_ctlreq.c **** {
 431:Middlewares/ST/STM32_USB_Host_Library/Core/Src/usbh_ctlreq.c ****   USBH_CfgDescTypeDef *cfg_desc = &phost->device.CfgDesc;
 432:Middlewares/ST/STM32_USB_Host_Library/Core/Src/usbh_ctlreq.c ****   USBH_StatusTypeDef           status = USBH_OK;
 433:Middlewares/ST/STM32_USB_Host_Library/Core/Src/usbh_ctlreq.c ****   USBH_InterfaceDescTypeDef    *pif;
 434:Middlewares/ST/STM32_USB_Host_Library/Core/Src/usbh_ctlreq.c ****   USBH_EpDescTypeDef           *pep;
 435:Middlewares/ST/STM32_USB_Host_Library/Core/Src/usbh_ctlreq.c ****   USBH_DescHeader_t            *pdesc;
 436:Middlewares/ST/STM32_USB_Host_Library/Core/Src/usbh_ctlreq.c ****   uint16_t                     ptr;
 437:Middlewares/ST/STM32_USB_Host_Library/Core/Src/usbh_ctlreq.c ****   uint8_t                      if_ix = 0U;
 438:Middlewares/ST/STM32_USB_Host_Library/Core/Src/usbh_ctlreq.c ****   uint8_t                      ep_ix = 0U;
 439:Middlewares/ST/STM32_USB_Host_Library/Core/Src/usbh_ctlreq.c **** 
 440:Middlewares/ST/STM32_USB_Host_Library/Core/Src/usbh_ctlreq.c ****   if (buf == NULL)
 441:Middlewares/ST/STM32_USB_Host_Library/Core/Src/usbh_ctlreq.c ****   {
 442:Middlewares/ST/STM32_USB_Host_Library/Core/Src/usbh_ctlreq.c ****     return USBH_FAIL;
 443:Middlewares/ST/STM32_USB_Host_Library/Core/Src/usbh_ctlreq.c ****   }
 444:Middlewares/ST/STM32_USB_Host_Library/Core/Src/usbh_ctlreq.c **** 
 445:Middlewares/ST/STM32_USB_Host_Library/Core/Src/usbh_ctlreq.c ****   pdesc = (USBH_DescHeader_t *)(void *)buf;
 446:Middlewares/ST/STM32_USB_Host_Library/Core/Src/usbh_ctlreq.c **** 
 447:Middlewares/ST/STM32_USB_Host_Library/Core/Src/usbh_ctlreq.c ****   /* Parse configuration descriptor */
 448:Middlewares/ST/STM32_USB_Host_Library/Core/Src/usbh_ctlreq.c ****   cfg_desc->bLength             = *(uint8_t *)(buf + 0U);
 449:Middlewares/ST/STM32_USB_Host_Library/Core/Src/usbh_ctlreq.c ****   cfg_desc->bDescriptorType     = *(uint8_t *)(buf + 1U);
 450:Middlewares/ST/STM32_USB_Host_Library/Core/Src/usbh_ctlreq.c ****   cfg_desc->wTotalLength        = MIN(((uint16_t) LE16(buf + 2U)), ((uint16_t)USBH_MAX_SIZE_CONFIGU
 451:Middlewares/ST/STM32_USB_Host_Library/Core/Src/usbh_ctlreq.c ****   cfg_desc->bNumInterfaces      = *(uint8_t *)(buf + 4U);
 452:Middlewares/ST/STM32_USB_Host_Library/Core/Src/usbh_ctlreq.c ****   cfg_desc->bConfigurationValue = *(uint8_t *)(buf + 5U);
 453:Middlewares/ST/STM32_USB_Host_Library/Core/Src/usbh_ctlreq.c ****   cfg_desc->iConfiguration      = *(uint8_t *)(buf + 6U);
 454:Middlewares/ST/STM32_USB_Host_Library/Core/Src/usbh_ctlreq.c ****   cfg_desc->bmAttributes        = *(uint8_t *)(buf + 7U);
 455:Middlewares/ST/STM32_USB_Host_Library/Core/Src/usbh_ctlreq.c ****   cfg_desc->bMaxPower           = *(uint8_t *)(buf + 8U);
 456:Middlewares/ST/STM32_USB_Host_Library/Core/Src/usbh_ctlreq.c **** 
 457:Middlewares/ST/STM32_USB_Host_Library/Core/Src/usbh_ctlreq.c ****   /* Make sure that the Configuration descriptor's bLength is equal to USB_CONFIGURATION_DESC_SIZE 
 458:Middlewares/ST/STM32_USB_Host_Library/Core/Src/usbh_ctlreq.c ****   if (cfg_desc->bLength != USB_CONFIGURATION_DESC_SIZE)
 459:Middlewares/ST/STM32_USB_Host_Library/Core/Src/usbh_ctlreq.c ****   {
 460:Middlewares/ST/STM32_USB_Host_Library/Core/Src/usbh_ctlreq.c ****     cfg_desc->bLength = USB_CONFIGURATION_DESC_SIZE;
 461:Middlewares/ST/STM32_USB_Host_Library/Core/Src/usbh_ctlreq.c ****   }
 462:Middlewares/ST/STM32_USB_Host_Library/Core/Src/usbh_ctlreq.c **** 
 463:Middlewares/ST/STM32_USB_Host_Library/Core/Src/usbh_ctlreq.c ****   if (length > USB_CONFIGURATION_DESC_SIZE)
ARM GAS  /tmp/ccxHAzXl.s 			page 13


 464:Middlewares/ST/STM32_USB_Host_Library/Core/Src/usbh_ctlreq.c ****   {
 465:Middlewares/ST/STM32_USB_Host_Library/Core/Src/usbh_ctlreq.c ****     ptr = USB_LEN_CFG_DESC;
 466:Middlewares/ST/STM32_USB_Host_Library/Core/Src/usbh_ctlreq.c ****     pif = (USBH_InterfaceDescTypeDef *)NULL;
 467:Middlewares/ST/STM32_USB_Host_Library/Core/Src/usbh_ctlreq.c **** 
 468:Middlewares/ST/STM32_USB_Host_Library/Core/Src/usbh_ctlreq.c ****     while ((if_ix < USBH_MAX_NUM_INTERFACES) && (ptr < cfg_desc->wTotalLength))
 469:Middlewares/ST/STM32_USB_Host_Library/Core/Src/usbh_ctlreq.c ****     {
 470:Middlewares/ST/STM32_USB_Host_Library/Core/Src/usbh_ctlreq.c ****       pdesc = USBH_GetNextDesc((uint8_t *)(void *)pdesc, &ptr);
 471:Middlewares/ST/STM32_USB_Host_Library/Core/Src/usbh_ctlreq.c ****       if (pdesc->bDescriptorType == USB_DESC_TYPE_INTERFACE)
 472:Middlewares/ST/STM32_USB_Host_Library/Core/Src/usbh_ctlreq.c ****       {
 473:Middlewares/ST/STM32_USB_Host_Library/Core/Src/usbh_ctlreq.c ****         /* Make sure that the interface descriptor's bLength is equal to USB_INTERFACE_DESC_SIZE */
 474:Middlewares/ST/STM32_USB_Host_Library/Core/Src/usbh_ctlreq.c ****         if (pdesc->bLength != USB_INTERFACE_DESC_SIZE)
 475:Middlewares/ST/STM32_USB_Host_Library/Core/Src/usbh_ctlreq.c ****         {
 476:Middlewares/ST/STM32_USB_Host_Library/Core/Src/usbh_ctlreq.c ****           pdesc->bLength = USB_INTERFACE_DESC_SIZE;
 477:Middlewares/ST/STM32_USB_Host_Library/Core/Src/usbh_ctlreq.c ****         }
 478:Middlewares/ST/STM32_USB_Host_Library/Core/Src/usbh_ctlreq.c **** 
 479:Middlewares/ST/STM32_USB_Host_Library/Core/Src/usbh_ctlreq.c ****         pif = &cfg_desc->Itf_Desc[if_ix];
 480:Middlewares/ST/STM32_USB_Host_Library/Core/Src/usbh_ctlreq.c ****         USBH_ParseInterfaceDesc(pif, (uint8_t *)(void *)pdesc);
 481:Middlewares/ST/STM32_USB_Host_Library/Core/Src/usbh_ctlreq.c **** 
 482:Middlewares/ST/STM32_USB_Host_Library/Core/Src/usbh_ctlreq.c ****         ep_ix = 0U;
 483:Middlewares/ST/STM32_USB_Host_Library/Core/Src/usbh_ctlreq.c ****         pep = (USBH_EpDescTypeDef *)NULL;
 484:Middlewares/ST/STM32_USB_Host_Library/Core/Src/usbh_ctlreq.c **** 
 485:Middlewares/ST/STM32_USB_Host_Library/Core/Src/usbh_ctlreq.c ****         while ((ep_ix < pif->bNumEndpoints) && (ptr < cfg_desc->wTotalLength))
 486:Middlewares/ST/STM32_USB_Host_Library/Core/Src/usbh_ctlreq.c ****         {
 487:Middlewares/ST/STM32_USB_Host_Library/Core/Src/usbh_ctlreq.c ****           pdesc = USBH_GetNextDesc((uint8_t *)(void *)pdesc, &ptr);
 488:Middlewares/ST/STM32_USB_Host_Library/Core/Src/usbh_ctlreq.c **** 
 489:Middlewares/ST/STM32_USB_Host_Library/Core/Src/usbh_ctlreq.c ****           if (pdesc->bDescriptorType == USB_DESC_TYPE_ENDPOINT)
 490:Middlewares/ST/STM32_USB_Host_Library/Core/Src/usbh_ctlreq.c ****           {
 491:Middlewares/ST/STM32_USB_Host_Library/Core/Src/usbh_ctlreq.c ****             /* Check if the endpoint is appartening to an audio streaming interface */
 492:Middlewares/ST/STM32_USB_Host_Library/Core/Src/usbh_ctlreq.c ****             if ((pif->bInterfaceClass == 0x01U) &&
 493:Middlewares/ST/STM32_USB_Host_Library/Core/Src/usbh_ctlreq.c ****                 ((pif->bInterfaceSubClass == 0x02U) || (pif->bInterfaceSubClass == 0x03U)))
 494:Middlewares/ST/STM32_USB_Host_Library/Core/Src/usbh_ctlreq.c ****             {
 495:Middlewares/ST/STM32_USB_Host_Library/Core/Src/usbh_ctlreq.c ****               /* Check if it is supporting the USB AUDIO 01 class specification */
 496:Middlewares/ST/STM32_USB_Host_Library/Core/Src/usbh_ctlreq.c ****               if ((pif->bInterfaceProtocol == 0x00U) && (pdesc->bLength != 0x09U))
 497:Middlewares/ST/STM32_USB_Host_Library/Core/Src/usbh_ctlreq.c ****               {
 498:Middlewares/ST/STM32_USB_Host_Library/Core/Src/usbh_ctlreq.c ****                 pdesc->bLength = 0x09U;
 499:Middlewares/ST/STM32_USB_Host_Library/Core/Src/usbh_ctlreq.c ****               }
 500:Middlewares/ST/STM32_USB_Host_Library/Core/Src/usbh_ctlreq.c ****             }
 501:Middlewares/ST/STM32_USB_Host_Library/Core/Src/usbh_ctlreq.c ****             /* Make sure that the endpoint descriptor's bLength is equal to
 502:Middlewares/ST/STM32_USB_Host_Library/Core/Src/usbh_ctlreq.c ****                USB_ENDPOINT_DESC_SIZE for all other endpoints types */
 503:Middlewares/ST/STM32_USB_Host_Library/Core/Src/usbh_ctlreq.c ****             else
 504:Middlewares/ST/STM32_USB_Host_Library/Core/Src/usbh_ctlreq.c ****             {
 505:Middlewares/ST/STM32_USB_Host_Library/Core/Src/usbh_ctlreq.c ****               pdesc->bLength = USB_ENDPOINT_DESC_SIZE;
 506:Middlewares/ST/STM32_USB_Host_Library/Core/Src/usbh_ctlreq.c ****             }
 507:Middlewares/ST/STM32_USB_Host_Library/Core/Src/usbh_ctlreq.c **** 
 508:Middlewares/ST/STM32_USB_Host_Library/Core/Src/usbh_ctlreq.c ****             pep = &cfg_desc->Itf_Desc[if_ix].Ep_Desc[ep_ix];
 509:Middlewares/ST/STM32_USB_Host_Library/Core/Src/usbh_ctlreq.c **** 
 510:Middlewares/ST/STM32_USB_Host_Library/Core/Src/usbh_ctlreq.c ****             status = USBH_ParseEPDesc(phost, pep, (uint8_t *)(void *)pdesc);
 511:Middlewares/ST/STM32_USB_Host_Library/Core/Src/usbh_ctlreq.c **** 
 512:Middlewares/ST/STM32_USB_Host_Library/Core/Src/usbh_ctlreq.c ****             ep_ix++;
 513:Middlewares/ST/STM32_USB_Host_Library/Core/Src/usbh_ctlreq.c ****           }
 514:Middlewares/ST/STM32_USB_Host_Library/Core/Src/usbh_ctlreq.c ****         }
 515:Middlewares/ST/STM32_USB_Host_Library/Core/Src/usbh_ctlreq.c **** 
 516:Middlewares/ST/STM32_USB_Host_Library/Core/Src/usbh_ctlreq.c ****         /* Check if the required endpoint(s) data are parsed */
 517:Middlewares/ST/STM32_USB_Host_Library/Core/Src/usbh_ctlreq.c ****         if (ep_ix < pif->bNumEndpoints)
 518:Middlewares/ST/STM32_USB_Host_Library/Core/Src/usbh_ctlreq.c ****         {
 519:Middlewares/ST/STM32_USB_Host_Library/Core/Src/usbh_ctlreq.c ****           return USBH_NOT_SUPPORTED;
 520:Middlewares/ST/STM32_USB_Host_Library/Core/Src/usbh_ctlreq.c ****         }
ARM GAS  /tmp/ccxHAzXl.s 			page 14


 521:Middlewares/ST/STM32_USB_Host_Library/Core/Src/usbh_ctlreq.c **** 
 522:Middlewares/ST/STM32_USB_Host_Library/Core/Src/usbh_ctlreq.c ****         if_ix++;
 523:Middlewares/ST/STM32_USB_Host_Library/Core/Src/usbh_ctlreq.c ****       }
 524:Middlewares/ST/STM32_USB_Host_Library/Core/Src/usbh_ctlreq.c ****     }
 525:Middlewares/ST/STM32_USB_Host_Library/Core/Src/usbh_ctlreq.c **** 
 526:Middlewares/ST/STM32_USB_Host_Library/Core/Src/usbh_ctlreq.c ****     /* Check if the required interface(s) data are parsed */
 527:Middlewares/ST/STM32_USB_Host_Library/Core/Src/usbh_ctlreq.c ****     if (if_ix < MIN(cfg_desc->bNumInterfaces, (uint8_t)USBH_MAX_NUM_INTERFACES))
 528:Middlewares/ST/STM32_USB_Host_Library/Core/Src/usbh_ctlreq.c ****     {
 529:Middlewares/ST/STM32_USB_Host_Library/Core/Src/usbh_ctlreq.c ****       return USBH_NOT_SUPPORTED;
 530:Middlewares/ST/STM32_USB_Host_Library/Core/Src/usbh_ctlreq.c ****     }
 531:Middlewares/ST/STM32_USB_Host_Library/Core/Src/usbh_ctlreq.c ****   }
 532:Middlewares/ST/STM32_USB_Host_Library/Core/Src/usbh_ctlreq.c **** 
 533:Middlewares/ST/STM32_USB_Host_Library/Core/Src/usbh_ctlreq.c ****   return status;
 534:Middlewares/ST/STM32_USB_Host_Library/Core/Src/usbh_ctlreq.c **** }
 535:Middlewares/ST/STM32_USB_Host_Library/Core/Src/usbh_ctlreq.c **** 
 536:Middlewares/ST/STM32_USB_Host_Library/Core/Src/usbh_ctlreq.c **** 
 537:Middlewares/ST/STM32_USB_Host_Library/Core/Src/usbh_ctlreq.c **** /**
 538:Middlewares/ST/STM32_USB_Host_Library/Core/Src/usbh_ctlreq.c ****   * @brief  USBH_ParseInterfaceDesc
 539:Middlewares/ST/STM32_USB_Host_Library/Core/Src/usbh_ctlreq.c ****   *         This function Parses the interface descriptor
 540:Middlewares/ST/STM32_USB_Host_Library/Core/Src/usbh_ctlreq.c ****   * @param  if_descriptor : Interface descriptor destination
 541:Middlewares/ST/STM32_USB_Host_Library/Core/Src/usbh_ctlreq.c ****   * @param  buf: Buffer where the descriptor data is available
 542:Middlewares/ST/STM32_USB_Host_Library/Core/Src/usbh_ctlreq.c ****   * @retval None
 543:Middlewares/ST/STM32_USB_Host_Library/Core/Src/usbh_ctlreq.c ****   */
 544:Middlewares/ST/STM32_USB_Host_Library/Core/Src/usbh_ctlreq.c **** static void USBH_ParseInterfaceDesc(USBH_InterfaceDescTypeDef *if_descriptor, uint8_t *buf)
 545:Middlewares/ST/STM32_USB_Host_Library/Core/Src/usbh_ctlreq.c **** {
 210              		.loc 1 545 1 is_stmt 1 view -0
 211              		.cfi_startproc
 212              		@ args = 0, pretend = 0, frame = 0
 213              		@ frame_needed = 0, uses_anonymous_args = 0
 214              		@ link register save eliminated.
 546:Middlewares/ST/STM32_USB_Host_Library/Core/Src/usbh_ctlreq.c ****   if_descriptor->bLength            = *(uint8_t *)(buf + 0U);
 215              		.loc 1 546 3 view .LVU66
 216              		.loc 1 546 39 is_stmt 0 view .LVU67
 217 0000 0B78     		ldrb	r3, [r1]	@ zero_extendqisi2
 218              		.loc 1 546 37 view .LVU68
 219 0002 0370     		strb	r3, [r0]
 547:Middlewares/ST/STM32_USB_Host_Library/Core/Src/usbh_ctlreq.c ****   if_descriptor->bDescriptorType    = *(uint8_t *)(buf + 1U);
 220              		.loc 1 547 3 is_stmt 1 view .LVU69
 221              		.loc 1 547 37 is_stmt 0 view .LVU70
 222 0004 4B78     		ldrb	r3, [r1, #1]	@ zero_extendqisi2
 223 0006 4370     		strb	r3, [r0, #1]
 548:Middlewares/ST/STM32_USB_Host_Library/Core/Src/usbh_ctlreq.c ****   if_descriptor->bInterfaceNumber   = *(uint8_t *)(buf + 2U);
 224              		.loc 1 548 3 is_stmt 1 view .LVU71
 225              		.loc 1 548 37 is_stmt 0 view .LVU72
 226 0008 8B78     		ldrb	r3, [r1, #2]	@ zero_extendqisi2
 227 000a 8370     		strb	r3, [r0, #2]
 549:Middlewares/ST/STM32_USB_Host_Library/Core/Src/usbh_ctlreq.c ****   if_descriptor->bAlternateSetting  = *(uint8_t *)(buf + 3U);
 228              		.loc 1 549 3 is_stmt 1 view .LVU73
 229              		.loc 1 549 37 is_stmt 0 view .LVU74
 230 000c CB78     		ldrb	r3, [r1, #3]	@ zero_extendqisi2
 231 000e C370     		strb	r3, [r0, #3]
 550:Middlewares/ST/STM32_USB_Host_Library/Core/Src/usbh_ctlreq.c ****   if_descriptor->bNumEndpoints      = MIN(*(uint8_t *)(buf + 4U), USBH_MAX_NUM_ENDPOINTS);
 232              		.loc 1 550 3 is_stmt 1 view .LVU75
 233              		.loc 1 550 39 is_stmt 0 view .LVU76
 234 0010 0B79     		ldrb	r3, [r1, #4]	@ zero_extendqisi2
 235 0012 022B     		cmp	r3, #2
 236 0014 28BF     		it	cs
ARM GAS  /tmp/ccxHAzXl.s 			page 15


 237 0016 0223     		movcs	r3, #2
 238              		.loc 1 550 37 view .LVU77
 239 0018 0371     		strb	r3, [r0, #4]
 551:Middlewares/ST/STM32_USB_Host_Library/Core/Src/usbh_ctlreq.c ****   if_descriptor->bInterfaceClass    = *(uint8_t *)(buf + 5U);
 240              		.loc 1 551 3 is_stmt 1 view .LVU78
 241              		.loc 1 551 37 is_stmt 0 view .LVU79
 242 001a 4B79     		ldrb	r3, [r1, #5]	@ zero_extendqisi2
 243 001c 4371     		strb	r3, [r0, #5]
 552:Middlewares/ST/STM32_USB_Host_Library/Core/Src/usbh_ctlreq.c ****   if_descriptor->bInterfaceSubClass = *(uint8_t *)(buf + 6U);
 244              		.loc 1 552 3 is_stmt 1 view .LVU80
 245              		.loc 1 552 37 is_stmt 0 view .LVU81
 246 001e 8B79     		ldrb	r3, [r1, #6]	@ zero_extendqisi2
 247 0020 8371     		strb	r3, [r0, #6]
 553:Middlewares/ST/STM32_USB_Host_Library/Core/Src/usbh_ctlreq.c ****   if_descriptor->bInterfaceProtocol = *(uint8_t *)(buf + 7U);
 248              		.loc 1 553 3 is_stmt 1 view .LVU82
 249              		.loc 1 553 37 is_stmt 0 view .LVU83
 250 0022 CB79     		ldrb	r3, [r1, #7]	@ zero_extendqisi2
 251 0024 C371     		strb	r3, [r0, #7]
 554:Middlewares/ST/STM32_USB_Host_Library/Core/Src/usbh_ctlreq.c ****   if_descriptor->iInterface         = *(uint8_t *)(buf + 8U);
 252              		.loc 1 554 3 is_stmt 1 view .LVU84
 253              		.loc 1 554 37 is_stmt 0 view .LVU85
 254 0026 0B7A     		ldrb	r3, [r1, #8]	@ zero_extendqisi2
 255 0028 0372     		strb	r3, [r0, #8]
 555:Middlewares/ST/STM32_USB_Host_Library/Core/Src/usbh_ctlreq.c **** }
 256              		.loc 1 555 1 view .LVU86
 257 002a 7047     		bx	lr
 258              		.cfi_endproc
 259              	.LFE148:
 261              		.section	.text.USBH_ParseEPDesc,"ax",%progbits
 262              		.align	1
 263              		.syntax unified
 264              		.thumb
 265              		.thumb_func
 267              	USBH_ParseEPDesc:
 268              	.LVL10:
 269              	.LFB149:
 556:Middlewares/ST/STM32_USB_Host_Library/Core/Src/usbh_ctlreq.c **** 
 557:Middlewares/ST/STM32_USB_Host_Library/Core/Src/usbh_ctlreq.c **** 
 558:Middlewares/ST/STM32_USB_Host_Library/Core/Src/usbh_ctlreq.c **** /**
 559:Middlewares/ST/STM32_USB_Host_Library/Core/Src/usbh_ctlreq.c ****   * @brief  USBH_ParseEPDesc
 560:Middlewares/ST/STM32_USB_Host_Library/Core/Src/usbh_ctlreq.c ****   *         This function Parses the endpoint descriptor
 561:Middlewares/ST/STM32_USB_Host_Library/Core/Src/usbh_ctlreq.c ****   * @param  phost: USB Host handler
 562:Middlewares/ST/STM32_USB_Host_Library/Core/Src/usbh_ctlreq.c ****   * @param  ep_descriptor: Endpoint descriptor destination address
 563:Middlewares/ST/STM32_USB_Host_Library/Core/Src/usbh_ctlreq.c ****   * @param  buf: Buffer where the parsed descriptor stored
 564:Middlewares/ST/STM32_USB_Host_Library/Core/Src/usbh_ctlreq.c ****   * @retval USBH Status
 565:Middlewares/ST/STM32_USB_Host_Library/Core/Src/usbh_ctlreq.c ****   */
 566:Middlewares/ST/STM32_USB_Host_Library/Core/Src/usbh_ctlreq.c **** static USBH_StatusTypeDef USBH_ParseEPDesc(USBH_HandleTypeDef *phost, USBH_EpDescTypeDef *ep_descri
 567:Middlewares/ST/STM32_USB_Host_Library/Core/Src/usbh_ctlreq.c **** {
 270              		.loc 1 567 1 is_stmt 1 view -0
 271              		.cfi_startproc
 272              		@ args = 0, pretend = 0, frame = 0
 273              		@ frame_needed = 0, uses_anonymous_args = 0
 274              		.loc 1 567 1 is_stmt 0 view .LVU88
 275 0000 10B5     		push	{r4, lr}
 276              	.LCFI0:
 277              		.cfi_def_cfa_offset 8
 278              		.cfi_offset 4, -8
ARM GAS  /tmp/ccxHAzXl.s 			page 16


 279              		.cfi_offset 14, -4
 280 0002 8646     		mov	lr, r0
 568:Middlewares/ST/STM32_USB_Host_Library/Core/Src/usbh_ctlreq.c ****   USBH_StatusTypeDef status = USBH_OK;
 281              		.loc 1 568 3 is_stmt 1 view .LVU89
 282              	.LVL11:
 569:Middlewares/ST/STM32_USB_Host_Library/Core/Src/usbh_ctlreq.c **** 
 570:Middlewares/ST/STM32_USB_Host_Library/Core/Src/usbh_ctlreq.c ****   ep_descriptor->bLength          = *(uint8_t *)(buf + 0U);
 283              		.loc 1 570 3 view .LVU90
 284              		.loc 1 570 37 is_stmt 0 view .LVU91
 285 0004 1378     		ldrb	r3, [r2]	@ zero_extendqisi2
 286              		.loc 1 570 35 view .LVU92
 287 0006 0B70     		strb	r3, [r1]
 571:Middlewares/ST/STM32_USB_Host_Library/Core/Src/usbh_ctlreq.c ****   ep_descriptor->bDescriptorType  = *(uint8_t *)(buf + 1U);
 288              		.loc 1 571 3 is_stmt 1 view .LVU93
 289              		.loc 1 571 35 is_stmt 0 view .LVU94
 290 0008 5378     		ldrb	r3, [r2, #1]	@ zero_extendqisi2
 291 000a 4B70     		strb	r3, [r1, #1]
 572:Middlewares/ST/STM32_USB_Host_Library/Core/Src/usbh_ctlreq.c ****   ep_descriptor->bEndpointAddress = *(uint8_t *)(buf + 2U);
 292              		.loc 1 572 3 is_stmt 1 view .LVU95
 293              		.loc 1 572 35 is_stmt 0 view .LVU96
 294 000c 9378     		ldrb	r3, [r2, #2]	@ zero_extendqisi2
 295 000e 8B70     		strb	r3, [r1, #2]
 573:Middlewares/ST/STM32_USB_Host_Library/Core/Src/usbh_ctlreq.c ****   ep_descriptor->bmAttributes     = *(uint8_t *)(buf + 3U);
 296              		.loc 1 573 3 is_stmt 1 view .LVU97
 297              		.loc 1 573 35 is_stmt 0 view .LVU98
 298 0010 92F803C0 		ldrb	ip, [r2, #3]	@ zero_extendqisi2
 299 0014 81F803C0 		strb	ip, [r1, #3]
 574:Middlewares/ST/STM32_USB_Host_Library/Core/Src/usbh_ctlreq.c ****   ep_descriptor->wMaxPacketSize   = LE16(buf + 4U);
 300              		.loc 1 574 3 is_stmt 1 view .LVU99
 301              		.loc 1 574 37 is_stmt 0 view .LVU100
 302 0018 1379     		ldrb	r3, [r2, #4]	@ zero_extendqisi2
 303 001a 5079     		ldrb	r0, [r2, #5]	@ zero_extendqisi2
 304              	.LVL12:
 305              		.loc 1 574 37 view .LVU101
 306 001c 43EA0023 		orr	r3, r3, r0, lsl #8
 307              		.loc 1 574 35 view .LVU102
 308 0020 8B80     		strh	r3, [r1, #4]	@ movhi
 575:Middlewares/ST/STM32_USB_Host_Library/Core/Src/usbh_ctlreq.c ****   ep_descriptor->bInterval        = *(uint8_t *)(buf + 6U);
 309              		.loc 1 575 3 is_stmt 1 view .LVU103
 310              		.loc 1 575 35 is_stmt 0 view .LVU104
 311 0022 9479     		ldrb	r4, [r2, #6]	@ zero_extendqisi2
 312 0024 8C71     		strb	r4, [r1, #6]
 576:Middlewares/ST/STM32_USB_Host_Library/Core/Src/usbh_ctlreq.c **** 
 577:Middlewares/ST/STM32_USB_Host_Library/Core/Src/usbh_ctlreq.c ****   /* Make sure that wMaxPacketSize is different from 0 */
 578:Middlewares/ST/STM32_USB_Host_Library/Core/Src/usbh_ctlreq.c ****   if ((ep_descriptor->wMaxPacketSize == 0x00U) ||
 313              		.loc 1 578 3 is_stmt 1 view .LVU105
 579:Middlewares/ST/STM32_USB_Host_Library/Core/Src/usbh_ctlreq.c ****       (ep_descriptor->wMaxPacketSize > USBH_MAX_EP_PACKET_SIZE) ||
 314              		.loc 1 579 65 is_stmt 0 view .LVU106
 315 0026 5A1E     		subs	r2, r3, #1
 316              	.LVL13:
 317              		.loc 1 579 65 view .LVU107
 318 0028 92B2     		uxth	r2, r2
 578:Middlewares/ST/STM32_USB_Host_Library/Core/Src/usbh_ctlreq.c ****       (ep_descriptor->wMaxPacketSize > USBH_MAX_EP_PACKET_SIZE) ||
 319              		.loc 1 578 6 view .LVU108
 320 002a B2F5007F 		cmp	r2, #512
 321 002e 0CD2     		bcs	.L30
 568:Middlewares/ST/STM32_USB_Host_Library/Core/Src/usbh_ctlreq.c **** 
ARM GAS  /tmp/ccxHAzXl.s 			page 17


 322              		.loc 1 568 22 view .LVU109
 323 0030 0020     		movs	r0, #0
 324              	.L19:
 325              	.LVL14:
 580:Middlewares/ST/STM32_USB_Host_Library/Core/Src/usbh_ctlreq.c ****       (ep_descriptor->wMaxPacketSize > USBH_MAX_DATA_BUFFER))
 581:Middlewares/ST/STM32_USB_Host_Library/Core/Src/usbh_ctlreq.c ****   {
 582:Middlewares/ST/STM32_USB_Host_Library/Core/Src/usbh_ctlreq.c ****     status = USBH_NOT_SUPPORTED;
 583:Middlewares/ST/STM32_USB_Host_Library/Core/Src/usbh_ctlreq.c ****   }
 584:Middlewares/ST/STM32_USB_Host_Library/Core/Src/usbh_ctlreq.c **** 
 585:Middlewares/ST/STM32_USB_Host_Library/Core/Src/usbh_ctlreq.c ****   if (phost->device.speed == (uint8_t)USBH_SPEED_HIGH)
 326              		.loc 1 585 3 is_stmt 1 view .LVU110
 327              		.loc 1 585 20 is_stmt 0 view .LVU111
 328 0032 9EF81D23 		ldrb	r2, [lr, #797]	@ zero_extendqisi2
 329              		.loc 1 585 6 view .LVU112
 330 0036 DAB9     		cbnz	r2, .L20
 586:Middlewares/ST/STM32_USB_Host_Library/Core/Src/usbh_ctlreq.c ****   {
 587:Middlewares/ST/STM32_USB_Host_Library/Core/Src/usbh_ctlreq.c ****     if ((ep_descriptor->bmAttributes & EP_TYPE_MSK) == EP_TYPE_BULK)
 331              		.loc 1 587 5 is_stmt 1 view .LVU113
 332 0038 0CF00302 		and	r2, ip, #3
 333              		.loc 1 587 8 is_stmt 0 view .LVU114
 334 003c 022A     		cmp	r2, #2
 335 003e 06D0     		beq	.L47
 588:Middlewares/ST/STM32_USB_Host_Library/Core/Src/usbh_ctlreq.c ****     {
 589:Middlewares/ST/STM32_USB_Host_Library/Core/Src/usbh_ctlreq.c ****       if (ep_descriptor->wMaxPacketSize > 512U)
 590:Middlewares/ST/STM32_USB_Host_Library/Core/Src/usbh_ctlreq.c ****       {
 591:Middlewares/ST/STM32_USB_Host_Library/Core/Src/usbh_ctlreq.c ****         status = USBH_NOT_SUPPORTED;
 592:Middlewares/ST/STM32_USB_Host_Library/Core/Src/usbh_ctlreq.c ****       }
 593:Middlewares/ST/STM32_USB_Host_Library/Core/Src/usbh_ctlreq.c ****     }
 594:Middlewares/ST/STM32_USB_Host_Library/Core/Src/usbh_ctlreq.c ****     else if ((ep_descriptor->bmAttributes & EP_TYPE_MSK) == EP_TYPE_CTRL)
 336              		.loc 1 594 10 is_stmt 1 view .LVU115
 337              		.loc 1 594 13 is_stmt 0 view .LVU116
 338 0040 52B9     		cbnz	r2, .L23
 595:Middlewares/ST/STM32_USB_Host_Library/Core/Src/usbh_ctlreq.c ****     {
 596:Middlewares/ST/STM32_USB_Host_Library/Core/Src/usbh_ctlreq.c ****       if (ep_descriptor->wMaxPacketSize > 64U)
 339              		.loc 1 596 7 is_stmt 1 view .LVU117
 340              		.loc 1 596 10 is_stmt 0 view .LVU118
 341 0042 402B     		cmp	r3, #64
 342 0044 19D9     		bls	.L22
 597:Middlewares/ST/STM32_USB_Host_Library/Core/Src/usbh_ctlreq.c ****       {
 598:Middlewares/ST/STM32_USB_Host_Library/Core/Src/usbh_ctlreq.c ****         status = USBH_NOT_SUPPORTED;
 343              		.loc 1 598 16 view .LVU119
 344 0046 0320     		movs	r0, #3
 345              	.LVL15:
 346              		.loc 1 598 16 view .LVU120
 347 0048 17E0     		b	.L22
 348              	.LVL16:
 349              	.L30:
 582:Middlewares/ST/STM32_USB_Host_Library/Core/Src/usbh_ctlreq.c ****   }
 350              		.loc 1 582 12 view .LVU121
 351 004a 0320     		movs	r0, #3
 352 004c F1E7     		b	.L19
 353              	.LVL17:
 354              	.L47:
 589:Middlewares/ST/STM32_USB_Host_Library/Core/Src/usbh_ctlreq.c ****       {
 355              		.loc 1 589 7 is_stmt 1 view .LVU122
 589:Middlewares/ST/STM32_USB_Host_Library/Core/Src/usbh_ctlreq.c ****       {
 356              		.loc 1 589 10 is_stmt 0 view .LVU123
ARM GAS  /tmp/ccxHAzXl.s 			page 18


 357 004e B3F5007F 		cmp	r3, #512
 358 0052 12D9     		bls	.L22
 591:Middlewares/ST/STM32_USB_Host_Library/Core/Src/usbh_ctlreq.c ****       }
 359              		.loc 1 591 16 view .LVU124
 360 0054 0320     		movs	r0, #3
 361              	.LVL18:
 591:Middlewares/ST/STM32_USB_Host_Library/Core/Src/usbh_ctlreq.c ****       }
 362              		.loc 1 591 16 view .LVU125
 363 0056 10E0     		b	.L22
 364              	.LVL19:
 365              	.L23:
 599:Middlewares/ST/STM32_USB_Host_Library/Core/Src/usbh_ctlreq.c ****       }
 600:Middlewares/ST/STM32_USB_Host_Library/Core/Src/usbh_ctlreq.c ****     }
 601:Middlewares/ST/STM32_USB_Host_Library/Core/Src/usbh_ctlreq.c ****     /* For high-speed interrupt/isochronous endpoints, bInterval can vary from 1 to 16 */
 602:Middlewares/ST/STM32_USB_Host_Library/Core/Src/usbh_ctlreq.c ****     else if (((ep_descriptor->bmAttributes & EP_TYPE_MSK) == EP_TYPE_ISOC) ||
 366              		.loc 1 602 10 is_stmt 1 view .LVU126
 367              		.loc 1 602 13 is_stmt 0 view .LVU127
 368 0058 012A     		cmp	r2, #1
 369 005a 03D0     		beq	.L24
 370              		.loc 1 602 76 discriminator 1 view .LVU128
 371 005c 032A     		cmp	r2, #3
 372 005e 01D0     		beq	.L24
 603:Middlewares/ST/STM32_USB_Host_Library/Core/Src/usbh_ctlreq.c ****         ((ep_descriptor->bmAttributes & EP_TYPE_MSK) == EP_TYPE_INTR))
 604:Middlewares/ST/STM32_USB_Host_Library/Core/Src/usbh_ctlreq.c ****     {
 605:Middlewares/ST/STM32_USB_Host_Library/Core/Src/usbh_ctlreq.c ****       if ((ep_descriptor->bInterval == 0U) || (ep_descriptor->bInterval > 0x10U))
 606:Middlewares/ST/STM32_USB_Host_Library/Core/Src/usbh_ctlreq.c ****       {
 607:Middlewares/ST/STM32_USB_Host_Library/Core/Src/usbh_ctlreq.c ****         status = USBH_NOT_SUPPORTED;
 608:Middlewares/ST/STM32_USB_Host_Library/Core/Src/usbh_ctlreq.c ****       }
 609:Middlewares/ST/STM32_USB_Host_Library/Core/Src/usbh_ctlreq.c ****     }
 610:Middlewares/ST/STM32_USB_Host_Library/Core/Src/usbh_ctlreq.c ****     else
 611:Middlewares/ST/STM32_USB_Host_Library/Core/Src/usbh_ctlreq.c ****     {
 612:Middlewares/ST/STM32_USB_Host_Library/Core/Src/usbh_ctlreq.c ****       status = USBH_NOT_SUPPORTED;
 373              		.loc 1 612 14 view .LVU129
 374 0060 0320     		movs	r0, #3
 375              	.LVL20:
 376              		.loc 1 612 14 view .LVU130
 377 0062 0AE0     		b	.L22
 378              	.LVL21:
 379              	.L24:
 605:Middlewares/ST/STM32_USB_Host_Library/Core/Src/usbh_ctlreq.c ****       {
 380              		.loc 1 605 7 is_stmt 1 view .LVU131
 605:Middlewares/ST/STM32_USB_Host_Library/Core/Src/usbh_ctlreq.c ****       {
 381              		.loc 1 605 44 is_stmt 0 view .LVU132
 382 0064 013C     		subs	r4, r4, #1
 383 0066 E4B2     		uxtb	r4, r4
 605:Middlewares/ST/STM32_USB_Host_Library/Core/Src/usbh_ctlreq.c ****       {
 384              		.loc 1 605 10 view .LVU133
 385 0068 0F2C     		cmp	r4, #15
 386 006a 06D9     		bls	.L22
 607:Middlewares/ST/STM32_USB_Host_Library/Core/Src/usbh_ctlreq.c ****       }
 387              		.loc 1 607 16 view .LVU134
 388 006c 0320     		movs	r0, #3
 389              	.LVL22:
 607:Middlewares/ST/STM32_USB_Host_Library/Core/Src/usbh_ctlreq.c ****       }
 390              		.loc 1 607 16 view .LVU135
 391 006e 04E0     		b	.L22
 392              	.LVL23:
ARM GAS  /tmp/ccxHAzXl.s 			page 19


 393              	.L20:
 613:Middlewares/ST/STM32_USB_Host_Library/Core/Src/usbh_ctlreq.c ****     }
 614:Middlewares/ST/STM32_USB_Host_Library/Core/Src/usbh_ctlreq.c ****   }
 615:Middlewares/ST/STM32_USB_Host_Library/Core/Src/usbh_ctlreq.c ****   else if (phost->device.speed == (uint8_t)USBH_SPEED_FULL)
 394              		.loc 1 615 8 is_stmt 1 view .LVU136
 395              		.loc 1 615 11 is_stmt 0 view .LVU137
 396 0070 012A     		cmp	r2, #1
 397 0072 03D0     		beq	.L48
 616:Middlewares/ST/STM32_USB_Host_Library/Core/Src/usbh_ctlreq.c ****   {
 617:Middlewares/ST/STM32_USB_Host_Library/Core/Src/usbh_ctlreq.c ****     if (((ep_descriptor->bmAttributes & EP_TYPE_MSK) == EP_TYPE_BULK) ||
 618:Middlewares/ST/STM32_USB_Host_Library/Core/Src/usbh_ctlreq.c ****         ((ep_descriptor->bmAttributes & EP_TYPE_MSK) == EP_TYPE_CTRL))
 619:Middlewares/ST/STM32_USB_Host_Library/Core/Src/usbh_ctlreq.c ****     {
 620:Middlewares/ST/STM32_USB_Host_Library/Core/Src/usbh_ctlreq.c ****       if (ep_descriptor->wMaxPacketSize > 64U)
 621:Middlewares/ST/STM32_USB_Host_Library/Core/Src/usbh_ctlreq.c ****       {
 622:Middlewares/ST/STM32_USB_Host_Library/Core/Src/usbh_ctlreq.c ****         status = USBH_NOT_SUPPORTED;
 623:Middlewares/ST/STM32_USB_Host_Library/Core/Src/usbh_ctlreq.c ****       }
 624:Middlewares/ST/STM32_USB_Host_Library/Core/Src/usbh_ctlreq.c ****     }
 625:Middlewares/ST/STM32_USB_Host_Library/Core/Src/usbh_ctlreq.c ****     /* For full-speed isochronous endpoints, the value of bInterval must be in the range from 1 to 
 626:Middlewares/ST/STM32_USB_Host_Library/Core/Src/usbh_ctlreq.c ****     else if ((ep_descriptor->bmAttributes & EP_TYPE_MSK) == EP_TYPE_ISOC)
 627:Middlewares/ST/STM32_USB_Host_Library/Core/Src/usbh_ctlreq.c ****     {
 628:Middlewares/ST/STM32_USB_Host_Library/Core/Src/usbh_ctlreq.c ****       if ((ep_descriptor->bInterval == 0U) ||
 629:Middlewares/ST/STM32_USB_Host_Library/Core/Src/usbh_ctlreq.c ****           (ep_descriptor->bInterval > 0x10U) ||
 630:Middlewares/ST/STM32_USB_Host_Library/Core/Src/usbh_ctlreq.c ****           (ep_descriptor->wMaxPacketSize > 64U))
 631:Middlewares/ST/STM32_USB_Host_Library/Core/Src/usbh_ctlreq.c ****       {
 632:Middlewares/ST/STM32_USB_Host_Library/Core/Src/usbh_ctlreq.c ****         status = USBH_NOT_SUPPORTED;
 633:Middlewares/ST/STM32_USB_Host_Library/Core/Src/usbh_ctlreq.c ****       }
 634:Middlewares/ST/STM32_USB_Host_Library/Core/Src/usbh_ctlreq.c ****     }
 635:Middlewares/ST/STM32_USB_Host_Library/Core/Src/usbh_ctlreq.c ****     /* For full-speed interrupt endpoints, the value of bInterval may be from 1 to 255.*/
 636:Middlewares/ST/STM32_USB_Host_Library/Core/Src/usbh_ctlreq.c ****     else if ((ep_descriptor->bmAttributes & EP_TYPE_MSK) == EP_TYPE_INTR)
 637:Middlewares/ST/STM32_USB_Host_Library/Core/Src/usbh_ctlreq.c ****     {
 638:Middlewares/ST/STM32_USB_Host_Library/Core/Src/usbh_ctlreq.c ****       if ((ep_descriptor->bInterval == 0U) || (ep_descriptor->wMaxPacketSize > 1023U))
 639:Middlewares/ST/STM32_USB_Host_Library/Core/Src/usbh_ctlreq.c ****       {
 640:Middlewares/ST/STM32_USB_Host_Library/Core/Src/usbh_ctlreq.c ****         status = USBH_NOT_SUPPORTED;
 641:Middlewares/ST/STM32_USB_Host_Library/Core/Src/usbh_ctlreq.c ****       }
 642:Middlewares/ST/STM32_USB_Host_Library/Core/Src/usbh_ctlreq.c ****     }
 643:Middlewares/ST/STM32_USB_Host_Library/Core/Src/usbh_ctlreq.c ****     else
 644:Middlewares/ST/STM32_USB_Host_Library/Core/Src/usbh_ctlreq.c ****     {
 645:Middlewares/ST/STM32_USB_Host_Library/Core/Src/usbh_ctlreq.c ****       status = USBH_NOT_SUPPORTED;
 646:Middlewares/ST/STM32_USB_Host_Library/Core/Src/usbh_ctlreq.c ****     }
 647:Middlewares/ST/STM32_USB_Host_Library/Core/Src/usbh_ctlreq.c ****   }
 648:Middlewares/ST/STM32_USB_Host_Library/Core/Src/usbh_ctlreq.c ****   else if (phost->device.speed == (uint8_t)USBH_SPEED_LOW)
 398              		.loc 1 648 8 is_stmt 1 view .LVU138
 399              		.loc 1 648 11 is_stmt 0 view .LVU139
 400 0074 022A     		cmp	r2, #2
 401 0076 1ED0     		beq	.L49
 649:Middlewares/ST/STM32_USB_Host_Library/Core/Src/usbh_ctlreq.c ****   {
 650:Middlewares/ST/STM32_USB_Host_Library/Core/Src/usbh_ctlreq.c ****     if ((ep_descriptor->bmAttributes & EP_TYPE_MSK) == EP_TYPE_CTRL)
 651:Middlewares/ST/STM32_USB_Host_Library/Core/Src/usbh_ctlreq.c ****     {
 652:Middlewares/ST/STM32_USB_Host_Library/Core/Src/usbh_ctlreq.c ****       if (ep_descriptor->wMaxPacketSize != 8U)
 653:Middlewares/ST/STM32_USB_Host_Library/Core/Src/usbh_ctlreq.c ****       {
 654:Middlewares/ST/STM32_USB_Host_Library/Core/Src/usbh_ctlreq.c ****         status = USBH_NOT_SUPPORTED;
 655:Middlewares/ST/STM32_USB_Host_Library/Core/Src/usbh_ctlreq.c ****       }
 656:Middlewares/ST/STM32_USB_Host_Library/Core/Src/usbh_ctlreq.c ****     }
 657:Middlewares/ST/STM32_USB_Host_Library/Core/Src/usbh_ctlreq.c ****     /* For low-speed interrupt endpoints, the value of bInterval may be from 1 to 255.*/
 658:Middlewares/ST/STM32_USB_Host_Library/Core/Src/usbh_ctlreq.c ****     else if ((ep_descriptor->bmAttributes & EP_TYPE_MSK) == EP_TYPE_INTR)
 659:Middlewares/ST/STM32_USB_Host_Library/Core/Src/usbh_ctlreq.c ****     {
 660:Middlewares/ST/STM32_USB_Host_Library/Core/Src/usbh_ctlreq.c ****       if ((ep_descriptor->bInterval == 0U) || (ep_descriptor->wMaxPacketSize > 8U))
ARM GAS  /tmp/ccxHAzXl.s 			page 20


 661:Middlewares/ST/STM32_USB_Host_Library/Core/Src/usbh_ctlreq.c ****       {
 662:Middlewares/ST/STM32_USB_Host_Library/Core/Src/usbh_ctlreq.c ****         status = USBH_NOT_SUPPORTED;
 663:Middlewares/ST/STM32_USB_Host_Library/Core/Src/usbh_ctlreq.c ****       }
 664:Middlewares/ST/STM32_USB_Host_Library/Core/Src/usbh_ctlreq.c ****     }
 665:Middlewares/ST/STM32_USB_Host_Library/Core/Src/usbh_ctlreq.c ****     else
 666:Middlewares/ST/STM32_USB_Host_Library/Core/Src/usbh_ctlreq.c ****     {
 667:Middlewares/ST/STM32_USB_Host_Library/Core/Src/usbh_ctlreq.c ****       status = USBH_NOT_SUPPORTED;
 668:Middlewares/ST/STM32_USB_Host_Library/Core/Src/usbh_ctlreq.c ****     }
 669:Middlewares/ST/STM32_USB_Host_Library/Core/Src/usbh_ctlreq.c ****   }
 670:Middlewares/ST/STM32_USB_Host_Library/Core/Src/usbh_ctlreq.c ****   else
 671:Middlewares/ST/STM32_USB_Host_Library/Core/Src/usbh_ctlreq.c ****   {
 672:Middlewares/ST/STM32_USB_Host_Library/Core/Src/usbh_ctlreq.c ****     status = USBH_NOT_SUPPORTED;
 402              		.loc 1 672 12 view .LVU140
 403 0078 0320     		movs	r0, #3
 404              	.LVL24:
 405              	.L22:
 673:Middlewares/ST/STM32_USB_Host_Library/Core/Src/usbh_ctlreq.c ****   }
 674:Middlewares/ST/STM32_USB_Host_Library/Core/Src/usbh_ctlreq.c **** 
 675:Middlewares/ST/STM32_USB_Host_Library/Core/Src/usbh_ctlreq.c ****   return status;
 406              		.loc 1 675 3 is_stmt 1 view .LVU141
 676:Middlewares/ST/STM32_USB_Host_Library/Core/Src/usbh_ctlreq.c **** }
 407              		.loc 1 676 1 is_stmt 0 view .LVU142
 408 007a 10BD     		pop	{r4, pc}
 409              	.L48:
 617:Middlewares/ST/STM32_USB_Host_Library/Core/Src/usbh_ctlreq.c ****         ((ep_descriptor->bmAttributes & EP_TYPE_MSK) == EP_TYPE_CTRL))
 410              		.loc 1 617 5 is_stmt 1 view .LVU143
 411 007c 0CF00302 		and	r2, ip, #3
 617:Middlewares/ST/STM32_USB_Host_Library/Core/Src/usbh_ctlreq.c ****         ((ep_descriptor->bmAttributes & EP_TYPE_MSK) == EP_TYPE_CTRL))
 412              		.loc 1 617 8 is_stmt 0 view .LVU144
 413 0080 022A     		cmp	r2, #2
 414 0082 00D0     		beq	.L26
 617:Middlewares/ST/STM32_USB_Host_Library/Core/Src/usbh_ctlreq.c ****         ((ep_descriptor->bmAttributes & EP_TYPE_MSK) == EP_TYPE_CTRL))
 415              		.loc 1 617 71 discriminator 1 view .LVU145
 416 0084 1AB9     		cbnz	r2, .L27
 417              	.L26:
 620:Middlewares/ST/STM32_USB_Host_Library/Core/Src/usbh_ctlreq.c ****       {
 418              		.loc 1 620 7 is_stmt 1 view .LVU146
 620:Middlewares/ST/STM32_USB_Host_Library/Core/Src/usbh_ctlreq.c ****       {
 419              		.loc 1 620 10 is_stmt 0 view .LVU147
 420 0086 402B     		cmp	r3, #64
 421 0088 F7D9     		bls	.L22
 622:Middlewares/ST/STM32_USB_Host_Library/Core/Src/usbh_ctlreq.c ****       }
 422              		.loc 1 622 16 view .LVU148
 423 008a 0320     		movs	r0, #3
 424              	.LVL25:
 622:Middlewares/ST/STM32_USB_Host_Library/Core/Src/usbh_ctlreq.c ****       }
 425              		.loc 1 622 16 view .LVU149
 426 008c F5E7     		b	.L22
 427              	.LVL26:
 428              	.L27:
 626:Middlewares/ST/STM32_USB_Host_Library/Core/Src/usbh_ctlreq.c ****     {
 429              		.loc 1 626 10 is_stmt 1 view .LVU150
 626:Middlewares/ST/STM32_USB_Host_Library/Core/Src/usbh_ctlreq.c ****     {
 430              		.loc 1 626 13 is_stmt 0 view .LVU151
 431 008e 012A     		cmp	r2, #1
 432 0090 03D0     		beq	.L50
 636:Middlewares/ST/STM32_USB_Host_Library/Core/Src/usbh_ctlreq.c ****     {
ARM GAS  /tmp/ccxHAzXl.s 			page 21


 433              		.loc 1 636 10 is_stmt 1 view .LVU152
 636:Middlewares/ST/STM32_USB_Host_Library/Core/Src/usbh_ctlreq.c ****     {
 434              		.loc 1 636 13 is_stmt 0 view .LVU153
 435 0092 032A     		cmp	r2, #3
 436 0094 09D0     		beq	.L51
 645:Middlewares/ST/STM32_USB_Host_Library/Core/Src/usbh_ctlreq.c ****     }
 437              		.loc 1 645 14 view .LVU154
 438 0096 0320     		movs	r0, #3
 439              	.LVL27:
 645:Middlewares/ST/STM32_USB_Host_Library/Core/Src/usbh_ctlreq.c ****     }
 440              		.loc 1 645 14 view .LVU155
 441 0098 EFE7     		b	.L22
 442              	.LVL28:
 443              	.L50:
 628:Middlewares/ST/STM32_USB_Host_Library/Core/Src/usbh_ctlreq.c ****           (ep_descriptor->bInterval > 0x10U) ||
 444              		.loc 1 628 7 is_stmt 1 view .LVU156
 628:Middlewares/ST/STM32_USB_Host_Library/Core/Src/usbh_ctlreq.c ****           (ep_descriptor->bInterval > 0x10U) ||
 445              		.loc 1 628 44 is_stmt 0 view .LVU157
 446 009a 013C     		subs	r4, r4, #1
 447 009c E4B2     		uxtb	r4, r4
 628:Middlewares/ST/STM32_USB_Host_Library/Core/Src/usbh_ctlreq.c ****           (ep_descriptor->bInterval > 0x10U) ||
 448              		.loc 1 628 10 view .LVU158
 449 009e 0F2C     		cmp	r4, #15
 450 00a0 1AD8     		bhi	.L36
 629:Middlewares/ST/STM32_USB_Host_Library/Core/Src/usbh_ctlreq.c ****           (ep_descriptor->wMaxPacketSize > 64U))
 451              		.loc 1 629 46 view .LVU159
 452 00a2 402B     		cmp	r3, #64
 453 00a4 E9D9     		bls	.L22
 632:Middlewares/ST/STM32_USB_Host_Library/Core/Src/usbh_ctlreq.c ****       }
 454              		.loc 1 632 16 view .LVU160
 455 00a6 0320     		movs	r0, #3
 456              	.LVL29:
 632:Middlewares/ST/STM32_USB_Host_Library/Core/Src/usbh_ctlreq.c ****       }
 457              		.loc 1 632 16 view .LVU161
 458 00a8 E7E7     		b	.L22
 459              	.LVL30:
 460              	.L51:
 638:Middlewares/ST/STM32_USB_Host_Library/Core/Src/usbh_ctlreq.c ****       {
 461              		.loc 1 638 7 is_stmt 1 view .LVU162
 638:Middlewares/ST/STM32_USB_Host_Library/Core/Src/usbh_ctlreq.c ****       {
 462              		.loc 1 638 10 is_stmt 0 view .LVU163
 463 00aa BCB1     		cbz	r4, .L39
 638:Middlewares/ST/STM32_USB_Host_Library/Core/Src/usbh_ctlreq.c ****       {
 464              		.loc 1 638 44 discriminator 1 view .LVU164
 465 00ac B3F5806F 		cmp	r3, #1024
 466 00b0 E3D3     		bcc	.L22
 640:Middlewares/ST/STM32_USB_Host_Library/Core/Src/usbh_ctlreq.c ****       }
 467              		.loc 1 640 16 view .LVU165
 468 00b2 1046     		mov	r0, r2
 469              	.LVL31:
 640:Middlewares/ST/STM32_USB_Host_Library/Core/Src/usbh_ctlreq.c ****       }
 470              		.loc 1 640 16 view .LVU166
 471 00b4 E1E7     		b	.L22
 472              	.LVL32:
 473              	.L49:
 650:Middlewares/ST/STM32_USB_Host_Library/Core/Src/usbh_ctlreq.c ****     {
 474              		.loc 1 650 5 is_stmt 1 view .LVU167
ARM GAS  /tmp/ccxHAzXl.s 			page 22


 650:Middlewares/ST/STM32_USB_Host_Library/Core/Src/usbh_ctlreq.c ****     {
 475              		.loc 1 650 8 is_stmt 0 view .LVU168
 476 00b6 1CF0030C 		ands	ip, ip, #3
 477 00ba 03D1     		bne	.L29
 652:Middlewares/ST/STM32_USB_Host_Library/Core/Src/usbh_ctlreq.c ****       {
 478              		.loc 1 652 7 is_stmt 1 view .LVU169
 652:Middlewares/ST/STM32_USB_Host_Library/Core/Src/usbh_ctlreq.c ****       {
 479              		.loc 1 652 10 is_stmt 0 view .LVU170
 480 00bc 082B     		cmp	r3, #8
 481 00be DCD0     		beq	.L22
 654:Middlewares/ST/STM32_USB_Host_Library/Core/Src/usbh_ctlreq.c ****       }
 482              		.loc 1 654 16 view .LVU171
 483 00c0 0320     		movs	r0, #3
 484              	.LVL33:
 654:Middlewares/ST/STM32_USB_Host_Library/Core/Src/usbh_ctlreq.c ****       }
 485              		.loc 1 654 16 view .LVU172
 486 00c2 DAE7     		b	.L22
 487              	.LVL34:
 488              	.L29:
 658:Middlewares/ST/STM32_USB_Host_Library/Core/Src/usbh_ctlreq.c ****     {
 489              		.loc 1 658 10 is_stmt 1 view .LVU173
 658:Middlewares/ST/STM32_USB_Host_Library/Core/Src/usbh_ctlreq.c ****     {
 490              		.loc 1 658 13 is_stmt 0 view .LVU174
 491 00c4 BCF1030F 		cmp	ip, #3
 492 00c8 01D0     		beq	.L52
 667:Middlewares/ST/STM32_USB_Host_Library/Core/Src/usbh_ctlreq.c ****     }
 493              		.loc 1 667 14 view .LVU175
 494 00ca 0320     		movs	r0, #3
 495              	.LVL35:
 667:Middlewares/ST/STM32_USB_Host_Library/Core/Src/usbh_ctlreq.c ****     }
 496              		.loc 1 667 14 view .LVU176
 497 00cc D5E7     		b	.L22
 498              	.LVL36:
 499              	.L52:
 660:Middlewares/ST/STM32_USB_Host_Library/Core/Src/usbh_ctlreq.c ****       {
 500              		.loc 1 660 7 is_stmt 1 view .LVU177
 660:Middlewares/ST/STM32_USB_Host_Library/Core/Src/usbh_ctlreq.c ****       {
 501              		.loc 1 660 10 is_stmt 0 view .LVU178
 502 00ce 3CB1     		cbz	r4, .L44
 660:Middlewares/ST/STM32_USB_Host_Library/Core/Src/usbh_ctlreq.c ****       {
 503              		.loc 1 660 44 discriminator 1 view .LVU179
 504 00d0 082B     		cmp	r3, #8
 505 00d2 D2D9     		bls	.L22
 662:Middlewares/ST/STM32_USB_Host_Library/Core/Src/usbh_ctlreq.c ****       }
 506              		.loc 1 662 16 view .LVU180
 507 00d4 6046     		mov	r0, ip
 508              	.LVL37:
 662:Middlewares/ST/STM32_USB_Host_Library/Core/Src/usbh_ctlreq.c ****       }
 509              		.loc 1 662 16 view .LVU181
 510 00d6 D0E7     		b	.L22
 511              	.LVL38:
 512              	.L36:
 632:Middlewares/ST/STM32_USB_Host_Library/Core/Src/usbh_ctlreq.c ****       }
 513              		.loc 1 632 16 view .LVU182
 514 00d8 0320     		movs	r0, #3
 515              	.LVL39:
 632:Middlewares/ST/STM32_USB_Host_Library/Core/Src/usbh_ctlreq.c ****       }
ARM GAS  /tmp/ccxHAzXl.s 			page 23


 516              		.loc 1 632 16 view .LVU183
 517 00da CEE7     		b	.L22
 518              	.LVL40:
 519              	.L39:
 640:Middlewares/ST/STM32_USB_Host_Library/Core/Src/usbh_ctlreq.c ****       }
 520              		.loc 1 640 16 view .LVU184
 521 00dc 1046     		mov	r0, r2
 522              	.LVL41:
 640:Middlewares/ST/STM32_USB_Host_Library/Core/Src/usbh_ctlreq.c ****       }
 523              		.loc 1 640 16 view .LVU185
 524 00de CCE7     		b	.L22
 525              	.LVL42:
 526              	.L44:
 662:Middlewares/ST/STM32_USB_Host_Library/Core/Src/usbh_ctlreq.c ****       }
 527              		.loc 1 662 16 view .LVU186
 528 00e0 6046     		mov	r0, ip
 529              	.LVL43:
 662:Middlewares/ST/STM32_USB_Host_Library/Core/Src/usbh_ctlreq.c ****       }
 530              		.loc 1 662 16 view .LVU187
 531 00e2 CAE7     		b	.L22
 532              		.cfi_endproc
 533              	.LFE149:
 535              		.section	.text.USBH_ParseStringDesc,"ax",%progbits
 536              		.align	1
 537              		.syntax unified
 538              		.thumb
 539              		.thumb_func
 541              	USBH_ParseStringDesc:
 542              	.LVL44:
 543              	.LFB150:
 677:Middlewares/ST/STM32_USB_Host_Library/Core/Src/usbh_ctlreq.c **** 
 678:Middlewares/ST/STM32_USB_Host_Library/Core/Src/usbh_ctlreq.c **** 
 679:Middlewares/ST/STM32_USB_Host_Library/Core/Src/usbh_ctlreq.c **** /**
 680:Middlewares/ST/STM32_USB_Host_Library/Core/Src/usbh_ctlreq.c ****   * @brief  USBH_ParseStringDesc
 681:Middlewares/ST/STM32_USB_Host_Library/Core/Src/usbh_ctlreq.c ****   *         This function Parses the string descriptor
 682:Middlewares/ST/STM32_USB_Host_Library/Core/Src/usbh_ctlreq.c ****   * @param  psrc: Source pointer containing the descriptor data
 683:Middlewares/ST/STM32_USB_Host_Library/Core/Src/usbh_ctlreq.c ****   * @param  pdest: Destination address pointer
 684:Middlewares/ST/STM32_USB_Host_Library/Core/Src/usbh_ctlreq.c ****   * @param  length: Length of the descriptor
 685:Middlewares/ST/STM32_USB_Host_Library/Core/Src/usbh_ctlreq.c ****   * @retval None
 686:Middlewares/ST/STM32_USB_Host_Library/Core/Src/usbh_ctlreq.c ****   */
 687:Middlewares/ST/STM32_USB_Host_Library/Core/Src/usbh_ctlreq.c **** static void USBH_ParseStringDesc(uint8_t *psrc, uint8_t *pdest, uint16_t length)
 688:Middlewares/ST/STM32_USB_Host_Library/Core/Src/usbh_ctlreq.c **** {
 544              		.loc 1 688 1 is_stmt 1 view -0
 545              		.cfi_startproc
 546              		@ args = 0, pretend = 0, frame = 0
 547              		@ frame_needed = 0, uses_anonymous_args = 0
 548              		@ link register save eliminated.
 689:Middlewares/ST/STM32_USB_Host_Library/Core/Src/usbh_ctlreq.c ****   uint16_t strlength;
 549              		.loc 1 689 3 view .LVU189
 690:Middlewares/ST/STM32_USB_Host_Library/Core/Src/usbh_ctlreq.c ****   uint16_t idx;
 550              		.loc 1 690 3 view .LVU190
 691:Middlewares/ST/STM32_USB_Host_Library/Core/Src/usbh_ctlreq.c **** 
 692:Middlewares/ST/STM32_USB_Host_Library/Core/Src/usbh_ctlreq.c ****   /* The UNICODE string descriptor is not NULL-terminated. The string length is
 693:Middlewares/ST/STM32_USB_Host_Library/Core/Src/usbh_ctlreq.c ****   computed by subtracting two from the value of the first byte of the descriptor.
 694:Middlewares/ST/STM32_USB_Host_Library/Core/Src/usbh_ctlreq.c ****   */
 695:Middlewares/ST/STM32_USB_Host_Library/Core/Src/usbh_ctlreq.c **** 
 696:Middlewares/ST/STM32_USB_Host_Library/Core/Src/usbh_ctlreq.c ****   /* Check which is lower size, the Size of string or the length of bytes read
ARM GAS  /tmp/ccxHAzXl.s 			page 24


 697:Middlewares/ST/STM32_USB_Host_Library/Core/Src/usbh_ctlreq.c ****   from the device */
 698:Middlewares/ST/STM32_USB_Host_Library/Core/Src/usbh_ctlreq.c **** 
 699:Middlewares/ST/STM32_USB_Host_Library/Core/Src/usbh_ctlreq.c ****   if (psrc[1] == USB_DESC_TYPE_STRING)
 551              		.loc 1 699 3 view .LVU191
 552              		.loc 1 699 11 is_stmt 0 view .LVU192
 553 0000 4378     		ldrb	r3, [r0, #1]	@ zero_extendqisi2
 554              		.loc 1 699 6 view .LVU193
 555 0002 032B     		cmp	r3, #3
 556 0004 00D0     		beq	.L57
 557              	.LVL45:
 558              	.L53:
 700:Middlewares/ST/STM32_USB_Host_Library/Core/Src/usbh_ctlreq.c ****   {
 701:Middlewares/ST/STM32_USB_Host_Library/Core/Src/usbh_ctlreq.c ****     /* Make sure the Descriptor is String Type */
 702:Middlewares/ST/STM32_USB_Host_Library/Core/Src/usbh_ctlreq.c **** 
 703:Middlewares/ST/STM32_USB_Host_Library/Core/Src/usbh_ctlreq.c ****     /* psrc[0] contains Size of Descriptor, subtract 2 to get the length of string */
 704:Middlewares/ST/STM32_USB_Host_Library/Core/Src/usbh_ctlreq.c ****     strlength = ((((uint16_t)psrc[0] - 2U) <= length) ? ((uint16_t)psrc[0] - 2U) : length);
 705:Middlewares/ST/STM32_USB_Host_Library/Core/Src/usbh_ctlreq.c **** 
 706:Middlewares/ST/STM32_USB_Host_Library/Core/Src/usbh_ctlreq.c ****     /* Adjust the offset ignoring the String Len and Descriptor type */
 707:Middlewares/ST/STM32_USB_Host_Library/Core/Src/usbh_ctlreq.c ****     psrc += 2U;
 708:Middlewares/ST/STM32_USB_Host_Library/Core/Src/usbh_ctlreq.c **** 
 709:Middlewares/ST/STM32_USB_Host_Library/Core/Src/usbh_ctlreq.c ****     for (idx = 0U; idx < strlength; idx += 2U)
 710:Middlewares/ST/STM32_USB_Host_Library/Core/Src/usbh_ctlreq.c ****     {
 711:Middlewares/ST/STM32_USB_Host_Library/Core/Src/usbh_ctlreq.c ****       /* Copy Only the string and ignore the UNICODE ID, hence add the src */
 712:Middlewares/ST/STM32_USB_Host_Library/Core/Src/usbh_ctlreq.c ****       *pdest =  psrc[idx];
 713:Middlewares/ST/STM32_USB_Host_Library/Core/Src/usbh_ctlreq.c ****       pdest++;
 714:Middlewares/ST/STM32_USB_Host_Library/Core/Src/usbh_ctlreq.c ****     }
 715:Middlewares/ST/STM32_USB_Host_Library/Core/Src/usbh_ctlreq.c ****     *pdest = 0U; /* mark end of string */
 716:Middlewares/ST/STM32_USB_Host_Library/Core/Src/usbh_ctlreq.c ****   }
 717:Middlewares/ST/STM32_USB_Host_Library/Core/Src/usbh_ctlreq.c **** }
 559              		.loc 1 717 1 view .LVU194
 560 0006 7047     		bx	lr
 561              	.LVL46:
 562              	.L57:
 704:Middlewares/ST/STM32_USB_Host_Library/Core/Src/usbh_ctlreq.c **** 
 563              		.loc 1 704 5 is_stmt 1 view .LVU195
 704:Middlewares/ST/STM32_USB_Host_Library/Core/Src/usbh_ctlreq.c **** 
 564              		.loc 1 704 34 is_stmt 0 view .LVU196
 565 0008 0378     		ldrb	r3, [r0]	@ zero_extendqisi2
 704:Middlewares/ST/STM32_USB_Host_Library/Core/Src/usbh_ctlreq.c **** 
 566              		.loc 1 704 38 view .LVU197
 567 000a 023B     		subs	r3, r3, #2
 704:Middlewares/ST/STM32_USB_Host_Library/Core/Src/usbh_ctlreq.c **** 
 568              		.loc 1 704 82 view .LVU198
 569 000c 9A42     		cmp	r2, r3
 570 000e 28BF     		it	cs
 571 0010 1A46     		movcs	r2, r3
 572              	.LVL47:
 704:Middlewares/ST/STM32_USB_Host_Library/Core/Src/usbh_ctlreq.c **** 
 573              		.loc 1 704 15 view .LVU199
 574 0012 92B2     		uxth	r2, r2
 575              	.LVL48:
 707:Middlewares/ST/STM32_USB_Host_Library/Core/Src/usbh_ctlreq.c **** 
 576              		.loc 1 707 5 is_stmt 1 view .LVU200
 709:Middlewares/ST/STM32_USB_Host_Library/Core/Src/usbh_ctlreq.c ****     {
 577              		.loc 1 709 5 view .LVU201
 709:Middlewares/ST/STM32_USB_Host_Library/Core/Src/usbh_ctlreq.c ****     {
 578              		.loc 1 709 14 is_stmt 0 view .LVU202
ARM GAS  /tmp/ccxHAzXl.s 			page 25


 579 0014 0023     		movs	r3, #0
 709:Middlewares/ST/STM32_USB_Host_Library/Core/Src/usbh_ctlreq.c ****     {
 580              		.loc 1 709 5 view .LVU203
 581 0016 07E0     		b	.L55
 582              	.LVL49:
 583              	.L56:
 712:Middlewares/ST/STM32_USB_Host_Library/Core/Src/usbh_ctlreq.c ****       pdest++;
 584              		.loc 1 712 7 is_stmt 1 discriminator 3 view .LVU204
 712:Middlewares/ST/STM32_USB_Host_Library/Core/Src/usbh_ctlreq.c ****       pdest++;
 585              		.loc 1 712 21 is_stmt 0 discriminator 3 view .LVU205
 586 0018 00EB030C 		add	ip, r0, r3
 587 001c 9CF802C0 		ldrb	ip, [ip, #2]	@ zero_extendqisi2
 712:Middlewares/ST/STM32_USB_Host_Library/Core/Src/usbh_ctlreq.c ****       pdest++;
 588              		.loc 1 712 14 discriminator 3 view .LVU206
 589 0020 01F801CB 		strb	ip, [r1], #1
 590              	.LVL50:
 713:Middlewares/ST/STM32_USB_Host_Library/Core/Src/usbh_ctlreq.c ****     }
 591              		.loc 1 713 7 is_stmt 1 discriminator 3 view .LVU207
 709:Middlewares/ST/STM32_USB_Host_Library/Core/Src/usbh_ctlreq.c ****     {
 592              		.loc 1 709 41 discriminator 3 view .LVU208
 593 0024 0233     		adds	r3, r3, #2
 594              	.LVL51:
 709:Middlewares/ST/STM32_USB_Host_Library/Core/Src/usbh_ctlreq.c ****     {
 595              		.loc 1 709 41 is_stmt 0 discriminator 3 view .LVU209
 596 0026 9BB2     		uxth	r3, r3
 597              	.LVL52:
 598              	.L55:
 709:Middlewares/ST/STM32_USB_Host_Library/Core/Src/usbh_ctlreq.c ****     {
 599              		.loc 1 709 24 is_stmt 1 discriminator 1 view .LVU210
 600 0028 9342     		cmp	r3, r2
 601 002a F5D3     		bcc	.L56
 715:Middlewares/ST/STM32_USB_Host_Library/Core/Src/usbh_ctlreq.c ****   }
 602              		.loc 1 715 5 view .LVU211
 715:Middlewares/ST/STM32_USB_Host_Library/Core/Src/usbh_ctlreq.c ****   }
 603              		.loc 1 715 12 is_stmt 0 view .LVU212
 604 002c 0023     		movs	r3, #0
 605              	.LVL53:
 715:Middlewares/ST/STM32_USB_Host_Library/Core/Src/usbh_ctlreq.c ****   }
 606              		.loc 1 715 12 view .LVU213
 607 002e 0B70     		strb	r3, [r1]
 608              		.loc 1 717 1 view .LVU214
 609 0030 E9E7     		b	.L53
 610              		.cfi_endproc
 611              	.LFE150:
 613              		.section	.text.USBH_HandleControl,"ax",%progbits
 614              		.align	1
 615              		.syntax unified
 616              		.thumb
 617              		.thumb_func
 619              	USBH_HandleControl:
 620              	.LVL54:
 621              	.LFB153:
 718:Middlewares/ST/STM32_USB_Host_Library/Core/Src/usbh_ctlreq.c **** 
 719:Middlewares/ST/STM32_USB_Host_Library/Core/Src/usbh_ctlreq.c **** 
 720:Middlewares/ST/STM32_USB_Host_Library/Core/Src/usbh_ctlreq.c **** /**
 721:Middlewares/ST/STM32_USB_Host_Library/Core/Src/usbh_ctlreq.c ****   * @brief  USBH_GetNextDesc
 722:Middlewares/ST/STM32_USB_Host_Library/Core/Src/usbh_ctlreq.c ****   *         This function return the next descriptor header
ARM GAS  /tmp/ccxHAzXl.s 			page 26


 723:Middlewares/ST/STM32_USB_Host_Library/Core/Src/usbh_ctlreq.c ****   * @param  buf: Buffer where the cfg descriptor is available
 724:Middlewares/ST/STM32_USB_Host_Library/Core/Src/usbh_ctlreq.c ****   * @param  ptr: data pointer inside the cfg descriptor
 725:Middlewares/ST/STM32_USB_Host_Library/Core/Src/usbh_ctlreq.c ****   * @retval next header
 726:Middlewares/ST/STM32_USB_Host_Library/Core/Src/usbh_ctlreq.c ****   */
 727:Middlewares/ST/STM32_USB_Host_Library/Core/Src/usbh_ctlreq.c **** USBH_DescHeader_t *USBH_GetNextDesc(uint8_t *pbuf, uint16_t *ptr)
 728:Middlewares/ST/STM32_USB_Host_Library/Core/Src/usbh_ctlreq.c **** {
 729:Middlewares/ST/STM32_USB_Host_Library/Core/Src/usbh_ctlreq.c ****   USBH_DescHeader_t *pnext;
 730:Middlewares/ST/STM32_USB_Host_Library/Core/Src/usbh_ctlreq.c **** 
 731:Middlewares/ST/STM32_USB_Host_Library/Core/Src/usbh_ctlreq.c ****   *ptr += ((USBH_DescHeader_t *)(void *)pbuf)->bLength;
 732:Middlewares/ST/STM32_USB_Host_Library/Core/Src/usbh_ctlreq.c ****   pnext = (USBH_DescHeader_t *)(void *)((uint8_t *)(void *)pbuf + \
 733:Middlewares/ST/STM32_USB_Host_Library/Core/Src/usbh_ctlreq.c ****                                         ((USBH_DescHeader_t *)(void *)pbuf)->bLength);
 734:Middlewares/ST/STM32_USB_Host_Library/Core/Src/usbh_ctlreq.c **** 
 735:Middlewares/ST/STM32_USB_Host_Library/Core/Src/usbh_ctlreq.c ****   return (pnext);
 736:Middlewares/ST/STM32_USB_Host_Library/Core/Src/usbh_ctlreq.c **** }
 737:Middlewares/ST/STM32_USB_Host_Library/Core/Src/usbh_ctlreq.c **** 
 738:Middlewares/ST/STM32_USB_Host_Library/Core/Src/usbh_ctlreq.c **** 
 739:Middlewares/ST/STM32_USB_Host_Library/Core/Src/usbh_ctlreq.c **** /**
 740:Middlewares/ST/STM32_USB_Host_Library/Core/Src/usbh_ctlreq.c ****   * @brief  USBH_CtlReq
 741:Middlewares/ST/STM32_USB_Host_Library/Core/Src/usbh_ctlreq.c ****   *         USBH_CtlReq sends a control request and provide the status after
 742:Middlewares/ST/STM32_USB_Host_Library/Core/Src/usbh_ctlreq.c ****   *            completion of the request
 743:Middlewares/ST/STM32_USB_Host_Library/Core/Src/usbh_ctlreq.c ****   * @param  phost: Host Handle
 744:Middlewares/ST/STM32_USB_Host_Library/Core/Src/usbh_ctlreq.c ****   * @param  req: Setup Request Structure
 745:Middlewares/ST/STM32_USB_Host_Library/Core/Src/usbh_ctlreq.c ****   * @param  buff: data buffer address to store the response
 746:Middlewares/ST/STM32_USB_Host_Library/Core/Src/usbh_ctlreq.c ****   * @param  length: length of the response
 747:Middlewares/ST/STM32_USB_Host_Library/Core/Src/usbh_ctlreq.c ****   * @retval USBH Status
 748:Middlewares/ST/STM32_USB_Host_Library/Core/Src/usbh_ctlreq.c ****   */
 749:Middlewares/ST/STM32_USB_Host_Library/Core/Src/usbh_ctlreq.c **** USBH_StatusTypeDef USBH_CtlReq(USBH_HandleTypeDef *phost, uint8_t *buff,
 750:Middlewares/ST/STM32_USB_Host_Library/Core/Src/usbh_ctlreq.c ****                                uint16_t length)
 751:Middlewares/ST/STM32_USB_Host_Library/Core/Src/usbh_ctlreq.c **** {
 752:Middlewares/ST/STM32_USB_Host_Library/Core/Src/usbh_ctlreq.c ****   USBH_StatusTypeDef status;
 753:Middlewares/ST/STM32_USB_Host_Library/Core/Src/usbh_ctlreq.c ****   status = USBH_BUSY;
 754:Middlewares/ST/STM32_USB_Host_Library/Core/Src/usbh_ctlreq.c **** 
 755:Middlewares/ST/STM32_USB_Host_Library/Core/Src/usbh_ctlreq.c ****   switch (phost->RequestState)
 756:Middlewares/ST/STM32_USB_Host_Library/Core/Src/usbh_ctlreq.c ****   {
 757:Middlewares/ST/STM32_USB_Host_Library/Core/Src/usbh_ctlreq.c ****     case CMD_SEND:
 758:Middlewares/ST/STM32_USB_Host_Library/Core/Src/usbh_ctlreq.c ****       /* Start a SETUP transfer */
 759:Middlewares/ST/STM32_USB_Host_Library/Core/Src/usbh_ctlreq.c ****       phost->Control.buff = buff;
 760:Middlewares/ST/STM32_USB_Host_Library/Core/Src/usbh_ctlreq.c ****       phost->Control.length = length;
 761:Middlewares/ST/STM32_USB_Host_Library/Core/Src/usbh_ctlreq.c ****       phost->Control.state = CTRL_SETUP;
 762:Middlewares/ST/STM32_USB_Host_Library/Core/Src/usbh_ctlreq.c ****       phost->RequestState = CMD_WAIT;
 763:Middlewares/ST/STM32_USB_Host_Library/Core/Src/usbh_ctlreq.c ****       status = USBH_BUSY;
 764:Middlewares/ST/STM32_USB_Host_Library/Core/Src/usbh_ctlreq.c **** 
 765:Middlewares/ST/STM32_USB_Host_Library/Core/Src/usbh_ctlreq.c **** #if (USBH_USE_OS == 1U)
 766:Middlewares/ST/STM32_USB_Host_Library/Core/Src/usbh_ctlreq.c ****       phost->os_msg = (uint32_t)USBH_CONTROL_EVENT;
 767:Middlewares/ST/STM32_USB_Host_Library/Core/Src/usbh_ctlreq.c **** #if (osCMSIS < 0x20000U)
 768:Middlewares/ST/STM32_USB_Host_Library/Core/Src/usbh_ctlreq.c ****       (void)osMessagePut(phost->os_event, phost->os_msg, 0U);
 769:Middlewares/ST/STM32_USB_Host_Library/Core/Src/usbh_ctlreq.c **** #else
 770:Middlewares/ST/STM32_USB_Host_Library/Core/Src/usbh_ctlreq.c ****       (void)osMessageQueuePut(phost->os_event, &phost->os_msg, 0U, 0U);
 771:Middlewares/ST/STM32_USB_Host_Library/Core/Src/usbh_ctlreq.c **** #endif
 772:Middlewares/ST/STM32_USB_Host_Library/Core/Src/usbh_ctlreq.c **** #endif
 773:Middlewares/ST/STM32_USB_Host_Library/Core/Src/usbh_ctlreq.c ****       break;
 774:Middlewares/ST/STM32_USB_Host_Library/Core/Src/usbh_ctlreq.c **** 
 775:Middlewares/ST/STM32_USB_Host_Library/Core/Src/usbh_ctlreq.c ****     case CMD_WAIT:
 776:Middlewares/ST/STM32_USB_Host_Library/Core/Src/usbh_ctlreq.c ****       status = USBH_HandleControl(phost);
 777:Middlewares/ST/STM32_USB_Host_Library/Core/Src/usbh_ctlreq.c ****       if ((status == USBH_OK) || (status == USBH_NOT_SUPPORTED))
 778:Middlewares/ST/STM32_USB_Host_Library/Core/Src/usbh_ctlreq.c ****       {
 779:Middlewares/ST/STM32_USB_Host_Library/Core/Src/usbh_ctlreq.c ****         /* Transaction completed, move control state to idle */
ARM GAS  /tmp/ccxHAzXl.s 			page 27


 780:Middlewares/ST/STM32_USB_Host_Library/Core/Src/usbh_ctlreq.c ****         phost->RequestState = CMD_SEND;
 781:Middlewares/ST/STM32_USB_Host_Library/Core/Src/usbh_ctlreq.c ****         phost->Control.state = CTRL_IDLE;
 782:Middlewares/ST/STM32_USB_Host_Library/Core/Src/usbh_ctlreq.c ****       }
 783:Middlewares/ST/STM32_USB_Host_Library/Core/Src/usbh_ctlreq.c ****       else if (status == USBH_FAIL)
 784:Middlewares/ST/STM32_USB_Host_Library/Core/Src/usbh_ctlreq.c ****       {
 785:Middlewares/ST/STM32_USB_Host_Library/Core/Src/usbh_ctlreq.c ****         /* Failure Mode */
 786:Middlewares/ST/STM32_USB_Host_Library/Core/Src/usbh_ctlreq.c ****         phost->RequestState = CMD_SEND;
 787:Middlewares/ST/STM32_USB_Host_Library/Core/Src/usbh_ctlreq.c ****       }
 788:Middlewares/ST/STM32_USB_Host_Library/Core/Src/usbh_ctlreq.c ****       else
 789:Middlewares/ST/STM32_USB_Host_Library/Core/Src/usbh_ctlreq.c ****       {
 790:Middlewares/ST/STM32_USB_Host_Library/Core/Src/usbh_ctlreq.c ****         /* .. */
 791:Middlewares/ST/STM32_USB_Host_Library/Core/Src/usbh_ctlreq.c ****       }
 792:Middlewares/ST/STM32_USB_Host_Library/Core/Src/usbh_ctlreq.c **** #if (USBH_USE_OS == 1U)
 793:Middlewares/ST/STM32_USB_Host_Library/Core/Src/usbh_ctlreq.c ****       phost->os_msg = (uint32_t)USBH_CONTROL_EVENT;
 794:Middlewares/ST/STM32_USB_Host_Library/Core/Src/usbh_ctlreq.c **** #if (osCMSIS < 0x20000U)
 795:Middlewares/ST/STM32_USB_Host_Library/Core/Src/usbh_ctlreq.c ****       (void)osMessagePut(phost->os_event, phost->os_msg, 0U);
 796:Middlewares/ST/STM32_USB_Host_Library/Core/Src/usbh_ctlreq.c **** #else
 797:Middlewares/ST/STM32_USB_Host_Library/Core/Src/usbh_ctlreq.c ****       (void)osMessageQueuePut(phost->os_event, &phost->os_msg, 0U, 0U);
 798:Middlewares/ST/STM32_USB_Host_Library/Core/Src/usbh_ctlreq.c **** #endif
 799:Middlewares/ST/STM32_USB_Host_Library/Core/Src/usbh_ctlreq.c **** #endif
 800:Middlewares/ST/STM32_USB_Host_Library/Core/Src/usbh_ctlreq.c ****       break;
 801:Middlewares/ST/STM32_USB_Host_Library/Core/Src/usbh_ctlreq.c **** 
 802:Middlewares/ST/STM32_USB_Host_Library/Core/Src/usbh_ctlreq.c ****     default:
 803:Middlewares/ST/STM32_USB_Host_Library/Core/Src/usbh_ctlreq.c ****       break;
 804:Middlewares/ST/STM32_USB_Host_Library/Core/Src/usbh_ctlreq.c ****   }
 805:Middlewares/ST/STM32_USB_Host_Library/Core/Src/usbh_ctlreq.c ****   return status;
 806:Middlewares/ST/STM32_USB_Host_Library/Core/Src/usbh_ctlreq.c **** }
 807:Middlewares/ST/STM32_USB_Host_Library/Core/Src/usbh_ctlreq.c **** 
 808:Middlewares/ST/STM32_USB_Host_Library/Core/Src/usbh_ctlreq.c **** 
 809:Middlewares/ST/STM32_USB_Host_Library/Core/Src/usbh_ctlreq.c **** /**
 810:Middlewares/ST/STM32_USB_Host_Library/Core/Src/usbh_ctlreq.c ****   * @brief  USBH_HandleControl
 811:Middlewares/ST/STM32_USB_Host_Library/Core/Src/usbh_ctlreq.c ****   *         Handles the USB control transfer state machine
 812:Middlewares/ST/STM32_USB_Host_Library/Core/Src/usbh_ctlreq.c ****   * @param  phost: Host Handle
 813:Middlewares/ST/STM32_USB_Host_Library/Core/Src/usbh_ctlreq.c ****   * @retval USBH Status
 814:Middlewares/ST/STM32_USB_Host_Library/Core/Src/usbh_ctlreq.c ****   */
 815:Middlewares/ST/STM32_USB_Host_Library/Core/Src/usbh_ctlreq.c **** static USBH_StatusTypeDef USBH_HandleControl(USBH_HandleTypeDef *phost)
 816:Middlewares/ST/STM32_USB_Host_Library/Core/Src/usbh_ctlreq.c **** {
 622              		.loc 1 816 1 is_stmt 1 view -0
 623              		.cfi_startproc
 624              		@ args = 0, pretend = 0, frame = 0
 625              		@ frame_needed = 0, uses_anonymous_args = 0
 626              		.loc 1 816 1 is_stmt 0 view .LVU216
 627 0000 30B5     		push	{r4, r5, lr}
 628              	.LCFI1:
 629              		.cfi_def_cfa_offset 12
 630              		.cfi_offset 4, -12
 631              		.cfi_offset 5, -8
 632              		.cfi_offset 14, -4
 633 0002 83B0     		sub	sp, sp, #12
 634              	.LCFI2:
 635              		.cfi_def_cfa_offset 24
 636 0004 0446     		mov	r4, r0
 817:Middlewares/ST/STM32_USB_Host_Library/Core/Src/usbh_ctlreq.c ****   uint8_t direction;
 637              		.loc 1 817 3 is_stmt 1 view .LVU217
 818:Middlewares/ST/STM32_USB_Host_Library/Core/Src/usbh_ctlreq.c ****   USBH_StatusTypeDef status = USBH_BUSY;
 638              		.loc 1 818 3 view .LVU218
 639              	.LVL55:
ARM GAS  /tmp/ccxHAzXl.s 			page 28


 819:Middlewares/ST/STM32_USB_Host_Library/Core/Src/usbh_ctlreq.c ****   USBH_URBStateTypeDef URB_Status = USBH_URB_IDLE;
 640              		.loc 1 819 3 view .LVU219
 820:Middlewares/ST/STM32_USB_Host_Library/Core/Src/usbh_ctlreq.c **** 
 821:Middlewares/ST/STM32_USB_Host_Library/Core/Src/usbh_ctlreq.c ****   switch (phost->Control.state)
 641              		.loc 1 821 3 view .LVU220
 642              		.loc 1 821 25 is_stmt 0 view .LVU221
 643 0006 057E     		ldrb	r5, [r0, #24]	@ zero_extendqisi2
 644              		.loc 1 821 3 view .LVU222
 645 0008 6B1E     		subs	r3, r5, #1
 646 000a 0A2B     		cmp	r3, #10
 647 000c 00F2DE80 		bhi	.L87
 648 0010 DFE803F0 		tbb	[pc, r3]
 649              	.L61:
 650 0014 06       		.byte	(.L71-.L61)/2
 651 0015 10       		.byte	(.L70-.L61)/2
 652 0016 35       		.byte	(.L69-.L61)/2
 653 0017 41       		.byte	(.L68-.L61)/2
 654 0018 54       		.byte	(.L67-.L61)/2
 655 0019 61       		.byte	(.L66-.L61)/2
 656 001a 7E       		.byte	(.L65-.L61)/2
 657 001b 8A       		.byte	(.L64-.L61)/2
 658 001c 9D       		.byte	(.L63-.L61)/2
 659 001d AA       		.byte	(.L62-.L61)/2
 660 001e C1       		.byte	(.L60-.L61)/2
 661 001f 00       		.p2align 1
 662              	.L71:
 822:Middlewares/ST/STM32_USB_Host_Library/Core/Src/usbh_ctlreq.c ****   {
 823:Middlewares/ST/STM32_USB_Host_Library/Core/Src/usbh_ctlreq.c ****     case CTRL_SETUP:
 824:Middlewares/ST/STM32_USB_Host_Library/Core/Src/usbh_ctlreq.c ****       /* send a SETUP packet */
 825:Middlewares/ST/STM32_USB_Host_Library/Core/Src/usbh_ctlreq.c ****       (void)USBH_CtlSendSetup(phost, (uint8_t *)(void *)phost->Control.setup.d8,
 663              		.loc 1 825 7 is_stmt 1 view .LVU223
 664              		.loc 1 825 13 is_stmt 0 view .LVU224
 665 0020 4279     		ldrb	r2, [r0, #5]	@ zero_extendqisi2
 666 0022 00F11001 		add	r1, r0, #16
 667 0026 FFF7FEFF 		bl	USBH_CtlSendSetup
 668              	.LVL56:
 826:Middlewares/ST/STM32_USB_Host_Library/Core/Src/usbh_ctlreq.c ****                               phost->Control.pipe_out);
 827:Middlewares/ST/STM32_USB_Host_Library/Core/Src/usbh_ctlreq.c **** 
 828:Middlewares/ST/STM32_USB_Host_Library/Core/Src/usbh_ctlreq.c ****       phost->Control.state = CTRL_SETUP_WAIT;
 669              		.loc 1 828 7 is_stmt 1 view .LVU225
 670              		.loc 1 828 28 is_stmt 0 view .LVU226
 671 002a 0223     		movs	r3, #2
 672 002c 2376     		strb	r3, [r4, #24]
 829:Middlewares/ST/STM32_USB_Host_Library/Core/Src/usbh_ctlreq.c ****       break;
 673              		.loc 1 829 7 is_stmt 1 view .LVU227
 674              	.LVL57:
 675              	.L59:
 830:Middlewares/ST/STM32_USB_Host_Library/Core/Src/usbh_ctlreq.c **** 
 831:Middlewares/ST/STM32_USB_Host_Library/Core/Src/usbh_ctlreq.c ****     case CTRL_SETUP_WAIT:
 832:Middlewares/ST/STM32_USB_Host_Library/Core/Src/usbh_ctlreq.c **** 
 833:Middlewares/ST/STM32_USB_Host_Library/Core/Src/usbh_ctlreq.c ****       URB_Status = USBH_LL_GetURBState(phost, phost->Control.pipe_out);
 834:Middlewares/ST/STM32_USB_Host_Library/Core/Src/usbh_ctlreq.c ****       /* case SETUP packet sent successfully */
 835:Middlewares/ST/STM32_USB_Host_Library/Core/Src/usbh_ctlreq.c ****       if (URB_Status == USBH_URB_DONE)
 836:Middlewares/ST/STM32_USB_Host_Library/Core/Src/usbh_ctlreq.c ****       {
 837:Middlewares/ST/STM32_USB_Host_Library/Core/Src/usbh_ctlreq.c ****         direction = (phost->Control.setup.b.bmRequestType & USB_REQ_DIR_MASK);
 838:Middlewares/ST/STM32_USB_Host_Library/Core/Src/usbh_ctlreq.c **** 
 839:Middlewares/ST/STM32_USB_Host_Library/Core/Src/usbh_ctlreq.c ****         /* check if there is a data stage */
ARM GAS  /tmp/ccxHAzXl.s 			page 29


 840:Middlewares/ST/STM32_USB_Host_Library/Core/Src/usbh_ctlreq.c ****         if (phost->Control.setup.b.wLength.w != 0U)
 841:Middlewares/ST/STM32_USB_Host_Library/Core/Src/usbh_ctlreq.c ****         {
 842:Middlewares/ST/STM32_USB_Host_Library/Core/Src/usbh_ctlreq.c ****           if (direction == USB_D2H)
 843:Middlewares/ST/STM32_USB_Host_Library/Core/Src/usbh_ctlreq.c ****           {
 844:Middlewares/ST/STM32_USB_Host_Library/Core/Src/usbh_ctlreq.c ****             /* Data Direction is IN */
 845:Middlewares/ST/STM32_USB_Host_Library/Core/Src/usbh_ctlreq.c ****             phost->Control.state = CTRL_DATA_IN;
 846:Middlewares/ST/STM32_USB_Host_Library/Core/Src/usbh_ctlreq.c ****           }
 847:Middlewares/ST/STM32_USB_Host_Library/Core/Src/usbh_ctlreq.c ****           else
 848:Middlewares/ST/STM32_USB_Host_Library/Core/Src/usbh_ctlreq.c ****           {
 849:Middlewares/ST/STM32_USB_Host_Library/Core/Src/usbh_ctlreq.c ****             /* Data Direction is OUT */
 850:Middlewares/ST/STM32_USB_Host_Library/Core/Src/usbh_ctlreq.c ****             phost->Control.state = CTRL_DATA_OUT;
 851:Middlewares/ST/STM32_USB_Host_Library/Core/Src/usbh_ctlreq.c ****           }
 852:Middlewares/ST/STM32_USB_Host_Library/Core/Src/usbh_ctlreq.c ****         }
 853:Middlewares/ST/STM32_USB_Host_Library/Core/Src/usbh_ctlreq.c ****         /* No DATA stage */
 854:Middlewares/ST/STM32_USB_Host_Library/Core/Src/usbh_ctlreq.c ****         else
 855:Middlewares/ST/STM32_USB_Host_Library/Core/Src/usbh_ctlreq.c ****         {
 856:Middlewares/ST/STM32_USB_Host_Library/Core/Src/usbh_ctlreq.c ****           /* If there is No Data Transfer Stage */
 857:Middlewares/ST/STM32_USB_Host_Library/Core/Src/usbh_ctlreq.c ****           if (direction == USB_D2H)
 858:Middlewares/ST/STM32_USB_Host_Library/Core/Src/usbh_ctlreq.c ****           {
 859:Middlewares/ST/STM32_USB_Host_Library/Core/Src/usbh_ctlreq.c ****             /* Data Direction is IN */
 860:Middlewares/ST/STM32_USB_Host_Library/Core/Src/usbh_ctlreq.c ****             phost->Control.state = CTRL_STATUS_OUT;
 861:Middlewares/ST/STM32_USB_Host_Library/Core/Src/usbh_ctlreq.c ****           }
 862:Middlewares/ST/STM32_USB_Host_Library/Core/Src/usbh_ctlreq.c ****           else
 863:Middlewares/ST/STM32_USB_Host_Library/Core/Src/usbh_ctlreq.c ****           {
 864:Middlewares/ST/STM32_USB_Host_Library/Core/Src/usbh_ctlreq.c ****             /* Data Direction is OUT */
 865:Middlewares/ST/STM32_USB_Host_Library/Core/Src/usbh_ctlreq.c ****             phost->Control.state = CTRL_STATUS_IN;
 866:Middlewares/ST/STM32_USB_Host_Library/Core/Src/usbh_ctlreq.c ****           }
 867:Middlewares/ST/STM32_USB_Host_Library/Core/Src/usbh_ctlreq.c ****         }
 868:Middlewares/ST/STM32_USB_Host_Library/Core/Src/usbh_ctlreq.c **** 
 869:Middlewares/ST/STM32_USB_Host_Library/Core/Src/usbh_ctlreq.c **** #if (USBH_USE_OS == 1U)
 870:Middlewares/ST/STM32_USB_Host_Library/Core/Src/usbh_ctlreq.c ****         phost->os_msg = (uint32_t)USBH_CONTROL_EVENT;
 871:Middlewares/ST/STM32_USB_Host_Library/Core/Src/usbh_ctlreq.c **** #if (osCMSIS < 0x20000U)
 872:Middlewares/ST/STM32_USB_Host_Library/Core/Src/usbh_ctlreq.c ****         (void)osMessagePut(phost->os_event, phost->os_msg, 0U);
 873:Middlewares/ST/STM32_USB_Host_Library/Core/Src/usbh_ctlreq.c **** #else
 874:Middlewares/ST/STM32_USB_Host_Library/Core/Src/usbh_ctlreq.c ****         (void)osMessageQueuePut(phost->os_event, &phost->os_msg, 0U, 0U);
 875:Middlewares/ST/STM32_USB_Host_Library/Core/Src/usbh_ctlreq.c **** #endif
 876:Middlewares/ST/STM32_USB_Host_Library/Core/Src/usbh_ctlreq.c **** #endif
 877:Middlewares/ST/STM32_USB_Host_Library/Core/Src/usbh_ctlreq.c ****       }
 878:Middlewares/ST/STM32_USB_Host_Library/Core/Src/usbh_ctlreq.c ****       else
 879:Middlewares/ST/STM32_USB_Host_Library/Core/Src/usbh_ctlreq.c ****       {
 880:Middlewares/ST/STM32_USB_Host_Library/Core/Src/usbh_ctlreq.c ****         if ((URB_Status == USBH_URB_ERROR) || (URB_Status == USBH_URB_NOTREADY))
 881:Middlewares/ST/STM32_USB_Host_Library/Core/Src/usbh_ctlreq.c ****         {
 882:Middlewares/ST/STM32_USB_Host_Library/Core/Src/usbh_ctlreq.c ****           phost->Control.state = CTRL_ERROR;
 883:Middlewares/ST/STM32_USB_Host_Library/Core/Src/usbh_ctlreq.c **** 
 884:Middlewares/ST/STM32_USB_Host_Library/Core/Src/usbh_ctlreq.c **** #if (USBH_USE_OS == 1U)
 885:Middlewares/ST/STM32_USB_Host_Library/Core/Src/usbh_ctlreq.c ****           phost->os_msg = (uint32_t)USBH_CONTROL_EVENT;
 886:Middlewares/ST/STM32_USB_Host_Library/Core/Src/usbh_ctlreq.c **** #if (osCMSIS < 0x20000U)
 887:Middlewares/ST/STM32_USB_Host_Library/Core/Src/usbh_ctlreq.c ****           (void)osMessagePut(phost->os_event, phost->os_msg, 0U);
 888:Middlewares/ST/STM32_USB_Host_Library/Core/Src/usbh_ctlreq.c **** #else
 889:Middlewares/ST/STM32_USB_Host_Library/Core/Src/usbh_ctlreq.c ****           (void)osMessageQueuePut(phost->os_event, &phost->os_msg, 0U, 0U);
 890:Middlewares/ST/STM32_USB_Host_Library/Core/Src/usbh_ctlreq.c **** #endif
 891:Middlewares/ST/STM32_USB_Host_Library/Core/Src/usbh_ctlreq.c **** #endif
 892:Middlewares/ST/STM32_USB_Host_Library/Core/Src/usbh_ctlreq.c ****         }
 893:Middlewares/ST/STM32_USB_Host_Library/Core/Src/usbh_ctlreq.c ****       }
 894:Middlewares/ST/STM32_USB_Host_Library/Core/Src/usbh_ctlreq.c ****       break;
 895:Middlewares/ST/STM32_USB_Host_Library/Core/Src/usbh_ctlreq.c **** 
 896:Middlewares/ST/STM32_USB_Host_Library/Core/Src/usbh_ctlreq.c ****     case CTRL_DATA_IN:
ARM GAS  /tmp/ccxHAzXl.s 			page 30


 897:Middlewares/ST/STM32_USB_Host_Library/Core/Src/usbh_ctlreq.c ****       /* Issue an IN token */
 898:Middlewares/ST/STM32_USB_Host_Library/Core/Src/usbh_ctlreq.c ****       phost->Control.timer = (uint16_t)phost->Timer;
 899:Middlewares/ST/STM32_USB_Host_Library/Core/Src/usbh_ctlreq.c ****       (void)USBH_CtlReceiveData(phost, phost->Control.buff,
 900:Middlewares/ST/STM32_USB_Host_Library/Core/Src/usbh_ctlreq.c ****                                 phost->Control.length, phost->Control.pipe_in);
 901:Middlewares/ST/STM32_USB_Host_Library/Core/Src/usbh_ctlreq.c **** 
 902:Middlewares/ST/STM32_USB_Host_Library/Core/Src/usbh_ctlreq.c ****       phost->Control.state = CTRL_DATA_IN_WAIT;
 903:Middlewares/ST/STM32_USB_Host_Library/Core/Src/usbh_ctlreq.c ****       break;
 904:Middlewares/ST/STM32_USB_Host_Library/Core/Src/usbh_ctlreq.c **** 
 905:Middlewares/ST/STM32_USB_Host_Library/Core/Src/usbh_ctlreq.c ****     case CTRL_DATA_IN_WAIT:
 906:Middlewares/ST/STM32_USB_Host_Library/Core/Src/usbh_ctlreq.c **** 
 907:Middlewares/ST/STM32_USB_Host_Library/Core/Src/usbh_ctlreq.c ****       URB_Status = USBH_LL_GetURBState(phost, phost->Control.pipe_in);
 908:Middlewares/ST/STM32_USB_Host_Library/Core/Src/usbh_ctlreq.c **** 
 909:Middlewares/ST/STM32_USB_Host_Library/Core/Src/usbh_ctlreq.c ****       /* check is DATA packet transferred successfully */
 910:Middlewares/ST/STM32_USB_Host_Library/Core/Src/usbh_ctlreq.c ****       if (URB_Status == USBH_URB_DONE)
 911:Middlewares/ST/STM32_USB_Host_Library/Core/Src/usbh_ctlreq.c ****       {
 912:Middlewares/ST/STM32_USB_Host_Library/Core/Src/usbh_ctlreq.c ****         phost->Control.state = CTRL_STATUS_OUT;
 913:Middlewares/ST/STM32_USB_Host_Library/Core/Src/usbh_ctlreq.c **** 
 914:Middlewares/ST/STM32_USB_Host_Library/Core/Src/usbh_ctlreq.c **** #if (USBH_USE_OS == 1U)
 915:Middlewares/ST/STM32_USB_Host_Library/Core/Src/usbh_ctlreq.c ****         phost->os_msg = (uint32_t)USBH_CONTROL_EVENT;
 916:Middlewares/ST/STM32_USB_Host_Library/Core/Src/usbh_ctlreq.c **** #if (osCMSIS < 0x20000U)
 917:Middlewares/ST/STM32_USB_Host_Library/Core/Src/usbh_ctlreq.c ****         (void)osMessagePut(phost->os_event, phost->os_msg, 0U);
 918:Middlewares/ST/STM32_USB_Host_Library/Core/Src/usbh_ctlreq.c **** #else
 919:Middlewares/ST/STM32_USB_Host_Library/Core/Src/usbh_ctlreq.c ****         (void)osMessageQueuePut(phost->os_event, &phost->os_msg, 0U, 0U);
 920:Middlewares/ST/STM32_USB_Host_Library/Core/Src/usbh_ctlreq.c **** #endif
 921:Middlewares/ST/STM32_USB_Host_Library/Core/Src/usbh_ctlreq.c **** #endif
 922:Middlewares/ST/STM32_USB_Host_Library/Core/Src/usbh_ctlreq.c ****       }
 923:Middlewares/ST/STM32_USB_Host_Library/Core/Src/usbh_ctlreq.c **** 
 924:Middlewares/ST/STM32_USB_Host_Library/Core/Src/usbh_ctlreq.c ****       /* manage error cases*/
 925:Middlewares/ST/STM32_USB_Host_Library/Core/Src/usbh_ctlreq.c ****       if (URB_Status == USBH_URB_STALL)
 926:Middlewares/ST/STM32_USB_Host_Library/Core/Src/usbh_ctlreq.c ****       {
 927:Middlewares/ST/STM32_USB_Host_Library/Core/Src/usbh_ctlreq.c ****         /* In stall case, return to previous machine state*/
 928:Middlewares/ST/STM32_USB_Host_Library/Core/Src/usbh_ctlreq.c ****         status = USBH_NOT_SUPPORTED;
 929:Middlewares/ST/STM32_USB_Host_Library/Core/Src/usbh_ctlreq.c **** 
 930:Middlewares/ST/STM32_USB_Host_Library/Core/Src/usbh_ctlreq.c **** #if (USBH_USE_OS == 1U)
 931:Middlewares/ST/STM32_USB_Host_Library/Core/Src/usbh_ctlreq.c ****         phost->os_msg = (uint32_t)USBH_CONTROL_EVENT;
 932:Middlewares/ST/STM32_USB_Host_Library/Core/Src/usbh_ctlreq.c **** #if (osCMSIS < 0x20000U)
 933:Middlewares/ST/STM32_USB_Host_Library/Core/Src/usbh_ctlreq.c ****         (void)osMessagePut(phost->os_event, phost->os_msg, 0U);
 934:Middlewares/ST/STM32_USB_Host_Library/Core/Src/usbh_ctlreq.c **** #else
 935:Middlewares/ST/STM32_USB_Host_Library/Core/Src/usbh_ctlreq.c ****         (void)osMessageQueuePut(phost->os_event, &phost->os_msg, 0U, 0U);
 936:Middlewares/ST/STM32_USB_Host_Library/Core/Src/usbh_ctlreq.c **** #endif
 937:Middlewares/ST/STM32_USB_Host_Library/Core/Src/usbh_ctlreq.c **** #endif
 938:Middlewares/ST/STM32_USB_Host_Library/Core/Src/usbh_ctlreq.c ****       }
 939:Middlewares/ST/STM32_USB_Host_Library/Core/Src/usbh_ctlreq.c ****       else
 940:Middlewares/ST/STM32_USB_Host_Library/Core/Src/usbh_ctlreq.c ****       {
 941:Middlewares/ST/STM32_USB_Host_Library/Core/Src/usbh_ctlreq.c ****         if (URB_Status == USBH_URB_ERROR)
 942:Middlewares/ST/STM32_USB_Host_Library/Core/Src/usbh_ctlreq.c ****         {
 943:Middlewares/ST/STM32_USB_Host_Library/Core/Src/usbh_ctlreq.c ****           /* Device error */
 944:Middlewares/ST/STM32_USB_Host_Library/Core/Src/usbh_ctlreq.c ****           phost->Control.state = CTRL_ERROR;
 945:Middlewares/ST/STM32_USB_Host_Library/Core/Src/usbh_ctlreq.c **** 
 946:Middlewares/ST/STM32_USB_Host_Library/Core/Src/usbh_ctlreq.c **** #if (USBH_USE_OS == 1U)
 947:Middlewares/ST/STM32_USB_Host_Library/Core/Src/usbh_ctlreq.c ****           phost->os_msg = (uint32_t)USBH_CONTROL_EVENT;
 948:Middlewares/ST/STM32_USB_Host_Library/Core/Src/usbh_ctlreq.c **** #if (osCMSIS < 0x20000U)
 949:Middlewares/ST/STM32_USB_Host_Library/Core/Src/usbh_ctlreq.c ****           (void)osMessagePut(phost->os_event, phost->os_msg, 0U);
 950:Middlewares/ST/STM32_USB_Host_Library/Core/Src/usbh_ctlreq.c **** #else
 951:Middlewares/ST/STM32_USB_Host_Library/Core/Src/usbh_ctlreq.c ****           (void)osMessageQueuePut(phost->os_event, &phost->os_msg, 0U, 0U);
 952:Middlewares/ST/STM32_USB_Host_Library/Core/Src/usbh_ctlreq.c **** #endif
 953:Middlewares/ST/STM32_USB_Host_Library/Core/Src/usbh_ctlreq.c **** #endif
ARM GAS  /tmp/ccxHAzXl.s 			page 31


 954:Middlewares/ST/STM32_USB_Host_Library/Core/Src/usbh_ctlreq.c ****         }
 955:Middlewares/ST/STM32_USB_Host_Library/Core/Src/usbh_ctlreq.c ****       }
 956:Middlewares/ST/STM32_USB_Host_Library/Core/Src/usbh_ctlreq.c ****       break;
 957:Middlewares/ST/STM32_USB_Host_Library/Core/Src/usbh_ctlreq.c **** 
 958:Middlewares/ST/STM32_USB_Host_Library/Core/Src/usbh_ctlreq.c ****     case CTRL_DATA_OUT:
 959:Middlewares/ST/STM32_USB_Host_Library/Core/Src/usbh_ctlreq.c **** 
 960:Middlewares/ST/STM32_USB_Host_Library/Core/Src/usbh_ctlreq.c ****       (void)USBH_CtlSendData(phost, phost->Control.buff, phost->Control.length,
 961:Middlewares/ST/STM32_USB_Host_Library/Core/Src/usbh_ctlreq.c ****                              phost->Control.pipe_out, 1U);
 962:Middlewares/ST/STM32_USB_Host_Library/Core/Src/usbh_ctlreq.c **** 
 963:Middlewares/ST/STM32_USB_Host_Library/Core/Src/usbh_ctlreq.c ****       phost->Control.timer = (uint16_t)phost->Timer;
 964:Middlewares/ST/STM32_USB_Host_Library/Core/Src/usbh_ctlreq.c ****       phost->Control.state = CTRL_DATA_OUT_WAIT;
 965:Middlewares/ST/STM32_USB_Host_Library/Core/Src/usbh_ctlreq.c ****       break;
 966:Middlewares/ST/STM32_USB_Host_Library/Core/Src/usbh_ctlreq.c **** 
 967:Middlewares/ST/STM32_USB_Host_Library/Core/Src/usbh_ctlreq.c ****     case CTRL_DATA_OUT_WAIT:
 968:Middlewares/ST/STM32_USB_Host_Library/Core/Src/usbh_ctlreq.c **** 
 969:Middlewares/ST/STM32_USB_Host_Library/Core/Src/usbh_ctlreq.c ****       URB_Status = USBH_LL_GetURBState(phost, phost->Control.pipe_out);
 970:Middlewares/ST/STM32_USB_Host_Library/Core/Src/usbh_ctlreq.c **** 
 971:Middlewares/ST/STM32_USB_Host_Library/Core/Src/usbh_ctlreq.c ****       if (URB_Status == USBH_URB_DONE)
 972:Middlewares/ST/STM32_USB_Host_Library/Core/Src/usbh_ctlreq.c ****       {
 973:Middlewares/ST/STM32_USB_Host_Library/Core/Src/usbh_ctlreq.c ****         /* If the Setup Pkt is sent successful, then change the state */
 974:Middlewares/ST/STM32_USB_Host_Library/Core/Src/usbh_ctlreq.c ****         phost->Control.state = CTRL_STATUS_IN;
 975:Middlewares/ST/STM32_USB_Host_Library/Core/Src/usbh_ctlreq.c **** 
 976:Middlewares/ST/STM32_USB_Host_Library/Core/Src/usbh_ctlreq.c **** #if (USBH_USE_OS == 1U)
 977:Middlewares/ST/STM32_USB_Host_Library/Core/Src/usbh_ctlreq.c ****         phost->os_msg = (uint32_t)USBH_CONTROL_EVENT;
 978:Middlewares/ST/STM32_USB_Host_Library/Core/Src/usbh_ctlreq.c **** #if (osCMSIS < 0x20000U)
 979:Middlewares/ST/STM32_USB_Host_Library/Core/Src/usbh_ctlreq.c ****         (void)osMessagePut(phost->os_event, phost->os_msg, 0U);
 980:Middlewares/ST/STM32_USB_Host_Library/Core/Src/usbh_ctlreq.c **** #else
 981:Middlewares/ST/STM32_USB_Host_Library/Core/Src/usbh_ctlreq.c ****         (void)osMessageQueuePut(phost->os_event, &phost->os_msg, 0U, 0U);
 982:Middlewares/ST/STM32_USB_Host_Library/Core/Src/usbh_ctlreq.c **** #endif
 983:Middlewares/ST/STM32_USB_Host_Library/Core/Src/usbh_ctlreq.c **** #endif
 984:Middlewares/ST/STM32_USB_Host_Library/Core/Src/usbh_ctlreq.c ****       }
 985:Middlewares/ST/STM32_USB_Host_Library/Core/Src/usbh_ctlreq.c **** 
 986:Middlewares/ST/STM32_USB_Host_Library/Core/Src/usbh_ctlreq.c ****       /* handle error cases */
 987:Middlewares/ST/STM32_USB_Host_Library/Core/Src/usbh_ctlreq.c ****       else if (URB_Status == USBH_URB_STALL)
 988:Middlewares/ST/STM32_USB_Host_Library/Core/Src/usbh_ctlreq.c ****       {
 989:Middlewares/ST/STM32_USB_Host_Library/Core/Src/usbh_ctlreq.c ****         /* In stall case, return to previous machine state*/
 990:Middlewares/ST/STM32_USB_Host_Library/Core/Src/usbh_ctlreq.c ****         phost->Control.state = CTRL_STALLED;
 991:Middlewares/ST/STM32_USB_Host_Library/Core/Src/usbh_ctlreq.c ****         status = USBH_NOT_SUPPORTED;
 992:Middlewares/ST/STM32_USB_Host_Library/Core/Src/usbh_ctlreq.c **** 
 993:Middlewares/ST/STM32_USB_Host_Library/Core/Src/usbh_ctlreq.c **** #if (USBH_USE_OS == 1U)
 994:Middlewares/ST/STM32_USB_Host_Library/Core/Src/usbh_ctlreq.c ****         phost->os_msg = (uint32_t)USBH_CONTROL_EVENT;
 995:Middlewares/ST/STM32_USB_Host_Library/Core/Src/usbh_ctlreq.c **** #if (osCMSIS < 0x20000U)
 996:Middlewares/ST/STM32_USB_Host_Library/Core/Src/usbh_ctlreq.c ****         (void)osMessagePut(phost->os_event, phost->os_msg, 0U);
 997:Middlewares/ST/STM32_USB_Host_Library/Core/Src/usbh_ctlreq.c **** #else
 998:Middlewares/ST/STM32_USB_Host_Library/Core/Src/usbh_ctlreq.c ****         (void)osMessageQueuePut(phost->os_event, &phost->os_msg, 0U, 0U);
 999:Middlewares/ST/STM32_USB_Host_Library/Core/Src/usbh_ctlreq.c **** #endif
1000:Middlewares/ST/STM32_USB_Host_Library/Core/Src/usbh_ctlreq.c **** #endif
1001:Middlewares/ST/STM32_USB_Host_Library/Core/Src/usbh_ctlreq.c ****       }
1002:Middlewares/ST/STM32_USB_Host_Library/Core/Src/usbh_ctlreq.c ****       else if (URB_Status == USBH_URB_NOTREADY)
1003:Middlewares/ST/STM32_USB_Host_Library/Core/Src/usbh_ctlreq.c ****       {
1004:Middlewares/ST/STM32_USB_Host_Library/Core/Src/usbh_ctlreq.c ****         /* Nack received from device */
1005:Middlewares/ST/STM32_USB_Host_Library/Core/Src/usbh_ctlreq.c ****         phost->Control.state = CTRL_DATA_OUT;
1006:Middlewares/ST/STM32_USB_Host_Library/Core/Src/usbh_ctlreq.c **** 
1007:Middlewares/ST/STM32_USB_Host_Library/Core/Src/usbh_ctlreq.c **** #if (USBH_USE_OS == 1U)
1008:Middlewares/ST/STM32_USB_Host_Library/Core/Src/usbh_ctlreq.c ****         phost->os_msg = (uint32_t)USBH_CONTROL_EVENT;
1009:Middlewares/ST/STM32_USB_Host_Library/Core/Src/usbh_ctlreq.c **** #if (osCMSIS < 0x20000U)
1010:Middlewares/ST/STM32_USB_Host_Library/Core/Src/usbh_ctlreq.c ****         (void)osMessagePut(phost->os_event, phost->os_msg, 0U);
ARM GAS  /tmp/ccxHAzXl.s 			page 32


1011:Middlewares/ST/STM32_USB_Host_Library/Core/Src/usbh_ctlreq.c **** #else
1012:Middlewares/ST/STM32_USB_Host_Library/Core/Src/usbh_ctlreq.c ****         (void)osMessageQueuePut(phost->os_event, &phost->os_msg, 0U, 0U);
1013:Middlewares/ST/STM32_USB_Host_Library/Core/Src/usbh_ctlreq.c **** #endif
1014:Middlewares/ST/STM32_USB_Host_Library/Core/Src/usbh_ctlreq.c **** #endif
1015:Middlewares/ST/STM32_USB_Host_Library/Core/Src/usbh_ctlreq.c ****       }
1016:Middlewares/ST/STM32_USB_Host_Library/Core/Src/usbh_ctlreq.c ****       else
1017:Middlewares/ST/STM32_USB_Host_Library/Core/Src/usbh_ctlreq.c ****       {
1018:Middlewares/ST/STM32_USB_Host_Library/Core/Src/usbh_ctlreq.c ****         if (URB_Status == USBH_URB_ERROR)
1019:Middlewares/ST/STM32_USB_Host_Library/Core/Src/usbh_ctlreq.c ****         {
1020:Middlewares/ST/STM32_USB_Host_Library/Core/Src/usbh_ctlreq.c ****           /* device error */
1021:Middlewares/ST/STM32_USB_Host_Library/Core/Src/usbh_ctlreq.c ****           phost->Control.state = CTRL_ERROR;
1022:Middlewares/ST/STM32_USB_Host_Library/Core/Src/usbh_ctlreq.c ****           status = USBH_FAIL;
1023:Middlewares/ST/STM32_USB_Host_Library/Core/Src/usbh_ctlreq.c **** 
1024:Middlewares/ST/STM32_USB_Host_Library/Core/Src/usbh_ctlreq.c **** #if (USBH_USE_OS == 1U)
1025:Middlewares/ST/STM32_USB_Host_Library/Core/Src/usbh_ctlreq.c ****           phost->os_msg = (uint32_t)USBH_CONTROL_EVENT;
1026:Middlewares/ST/STM32_USB_Host_Library/Core/Src/usbh_ctlreq.c **** #if (osCMSIS < 0x20000U)
1027:Middlewares/ST/STM32_USB_Host_Library/Core/Src/usbh_ctlreq.c ****           (void)osMessagePut(phost->os_event, phost->os_msg, 0U);
1028:Middlewares/ST/STM32_USB_Host_Library/Core/Src/usbh_ctlreq.c **** #else
1029:Middlewares/ST/STM32_USB_Host_Library/Core/Src/usbh_ctlreq.c ****           (void)osMessageQueuePut(phost->os_event, &phost->os_msg, 0U, 0U);
1030:Middlewares/ST/STM32_USB_Host_Library/Core/Src/usbh_ctlreq.c **** #endif
1031:Middlewares/ST/STM32_USB_Host_Library/Core/Src/usbh_ctlreq.c **** #endif
1032:Middlewares/ST/STM32_USB_Host_Library/Core/Src/usbh_ctlreq.c ****         }
1033:Middlewares/ST/STM32_USB_Host_Library/Core/Src/usbh_ctlreq.c ****       }
1034:Middlewares/ST/STM32_USB_Host_Library/Core/Src/usbh_ctlreq.c ****       break;
1035:Middlewares/ST/STM32_USB_Host_Library/Core/Src/usbh_ctlreq.c **** 
1036:Middlewares/ST/STM32_USB_Host_Library/Core/Src/usbh_ctlreq.c ****     case CTRL_STATUS_IN:
1037:Middlewares/ST/STM32_USB_Host_Library/Core/Src/usbh_ctlreq.c ****       /* Send 0 bytes out packet */
1038:Middlewares/ST/STM32_USB_Host_Library/Core/Src/usbh_ctlreq.c ****       (void)USBH_CtlReceiveData(phost, NULL, 0U, phost->Control.pipe_in);
1039:Middlewares/ST/STM32_USB_Host_Library/Core/Src/usbh_ctlreq.c **** 
1040:Middlewares/ST/STM32_USB_Host_Library/Core/Src/usbh_ctlreq.c ****       phost->Control.timer = (uint16_t)phost->Timer;
1041:Middlewares/ST/STM32_USB_Host_Library/Core/Src/usbh_ctlreq.c ****       phost->Control.state = CTRL_STATUS_IN_WAIT;
1042:Middlewares/ST/STM32_USB_Host_Library/Core/Src/usbh_ctlreq.c **** 
1043:Middlewares/ST/STM32_USB_Host_Library/Core/Src/usbh_ctlreq.c ****       break;
1044:Middlewares/ST/STM32_USB_Host_Library/Core/Src/usbh_ctlreq.c **** 
1045:Middlewares/ST/STM32_USB_Host_Library/Core/Src/usbh_ctlreq.c ****     case CTRL_STATUS_IN_WAIT:
1046:Middlewares/ST/STM32_USB_Host_Library/Core/Src/usbh_ctlreq.c **** 
1047:Middlewares/ST/STM32_USB_Host_Library/Core/Src/usbh_ctlreq.c ****       URB_Status = USBH_LL_GetURBState(phost, phost->Control.pipe_in);
1048:Middlewares/ST/STM32_USB_Host_Library/Core/Src/usbh_ctlreq.c **** 
1049:Middlewares/ST/STM32_USB_Host_Library/Core/Src/usbh_ctlreq.c ****       if (URB_Status == USBH_URB_DONE)
1050:Middlewares/ST/STM32_USB_Host_Library/Core/Src/usbh_ctlreq.c ****       {
1051:Middlewares/ST/STM32_USB_Host_Library/Core/Src/usbh_ctlreq.c ****         /* Control transfers completed, Exit the State Machine */
1052:Middlewares/ST/STM32_USB_Host_Library/Core/Src/usbh_ctlreq.c ****         phost->Control.state = CTRL_COMPLETE;
1053:Middlewares/ST/STM32_USB_Host_Library/Core/Src/usbh_ctlreq.c ****         status = USBH_OK;
1054:Middlewares/ST/STM32_USB_Host_Library/Core/Src/usbh_ctlreq.c **** 
1055:Middlewares/ST/STM32_USB_Host_Library/Core/Src/usbh_ctlreq.c **** #if (USBH_USE_OS == 1U)
1056:Middlewares/ST/STM32_USB_Host_Library/Core/Src/usbh_ctlreq.c ****         phost->os_msg = (uint32_t)USBH_CONTROL_EVENT;
1057:Middlewares/ST/STM32_USB_Host_Library/Core/Src/usbh_ctlreq.c **** #if (osCMSIS < 0x20000U)
1058:Middlewares/ST/STM32_USB_Host_Library/Core/Src/usbh_ctlreq.c ****         (void)osMessagePut(phost->os_event, phost->os_msg, 0U);
1059:Middlewares/ST/STM32_USB_Host_Library/Core/Src/usbh_ctlreq.c **** #else
1060:Middlewares/ST/STM32_USB_Host_Library/Core/Src/usbh_ctlreq.c ****         (void)osMessageQueuePut(phost->os_event, &phost->os_msg, 0U, 0U);
1061:Middlewares/ST/STM32_USB_Host_Library/Core/Src/usbh_ctlreq.c **** #endif
1062:Middlewares/ST/STM32_USB_Host_Library/Core/Src/usbh_ctlreq.c **** #endif
1063:Middlewares/ST/STM32_USB_Host_Library/Core/Src/usbh_ctlreq.c ****       }
1064:Middlewares/ST/STM32_USB_Host_Library/Core/Src/usbh_ctlreq.c ****       else if (URB_Status == USBH_URB_ERROR)
1065:Middlewares/ST/STM32_USB_Host_Library/Core/Src/usbh_ctlreq.c ****       {
1066:Middlewares/ST/STM32_USB_Host_Library/Core/Src/usbh_ctlreq.c ****         phost->Control.state = CTRL_ERROR;
1067:Middlewares/ST/STM32_USB_Host_Library/Core/Src/usbh_ctlreq.c **** 
ARM GAS  /tmp/ccxHAzXl.s 			page 33


1068:Middlewares/ST/STM32_USB_Host_Library/Core/Src/usbh_ctlreq.c **** #if (USBH_USE_OS == 1U)
1069:Middlewares/ST/STM32_USB_Host_Library/Core/Src/usbh_ctlreq.c ****         phost->os_msg = (uint32_t)USBH_CONTROL_EVENT;
1070:Middlewares/ST/STM32_USB_Host_Library/Core/Src/usbh_ctlreq.c **** #if (osCMSIS < 0x20000U)
1071:Middlewares/ST/STM32_USB_Host_Library/Core/Src/usbh_ctlreq.c ****         (void)osMessagePut(phost->os_event, phost->os_msg, 0U);
1072:Middlewares/ST/STM32_USB_Host_Library/Core/Src/usbh_ctlreq.c **** #else
1073:Middlewares/ST/STM32_USB_Host_Library/Core/Src/usbh_ctlreq.c ****         (void)osMessageQueuePut(phost->os_event, &phost->os_msg, 0U, 0U);
1074:Middlewares/ST/STM32_USB_Host_Library/Core/Src/usbh_ctlreq.c **** #endif
1075:Middlewares/ST/STM32_USB_Host_Library/Core/Src/usbh_ctlreq.c **** #endif
1076:Middlewares/ST/STM32_USB_Host_Library/Core/Src/usbh_ctlreq.c ****       }
1077:Middlewares/ST/STM32_USB_Host_Library/Core/Src/usbh_ctlreq.c ****       else
1078:Middlewares/ST/STM32_USB_Host_Library/Core/Src/usbh_ctlreq.c ****       {
1079:Middlewares/ST/STM32_USB_Host_Library/Core/Src/usbh_ctlreq.c ****         if (URB_Status == USBH_URB_STALL)
1080:Middlewares/ST/STM32_USB_Host_Library/Core/Src/usbh_ctlreq.c ****         {
1081:Middlewares/ST/STM32_USB_Host_Library/Core/Src/usbh_ctlreq.c ****           /* Control transfers completed, Exit the State Machine */
1082:Middlewares/ST/STM32_USB_Host_Library/Core/Src/usbh_ctlreq.c ****           status = USBH_NOT_SUPPORTED;
1083:Middlewares/ST/STM32_USB_Host_Library/Core/Src/usbh_ctlreq.c **** 
1084:Middlewares/ST/STM32_USB_Host_Library/Core/Src/usbh_ctlreq.c **** #if (USBH_USE_OS == 1U)
1085:Middlewares/ST/STM32_USB_Host_Library/Core/Src/usbh_ctlreq.c ****           phost->os_msg = (uint32_t)USBH_CONTROL_EVENT;
1086:Middlewares/ST/STM32_USB_Host_Library/Core/Src/usbh_ctlreq.c **** #if (osCMSIS < 0x20000U)
1087:Middlewares/ST/STM32_USB_Host_Library/Core/Src/usbh_ctlreq.c ****           (void)osMessagePut(phost->os_event, phost->os_msg, 0U);
1088:Middlewares/ST/STM32_USB_Host_Library/Core/Src/usbh_ctlreq.c **** #else
1089:Middlewares/ST/STM32_USB_Host_Library/Core/Src/usbh_ctlreq.c ****           (void)osMessageQueuePut(phost->os_event, &phost->os_msg, 0U, 0U);
1090:Middlewares/ST/STM32_USB_Host_Library/Core/Src/usbh_ctlreq.c **** #endif
1091:Middlewares/ST/STM32_USB_Host_Library/Core/Src/usbh_ctlreq.c **** #endif
1092:Middlewares/ST/STM32_USB_Host_Library/Core/Src/usbh_ctlreq.c ****         }
1093:Middlewares/ST/STM32_USB_Host_Library/Core/Src/usbh_ctlreq.c ****       }
1094:Middlewares/ST/STM32_USB_Host_Library/Core/Src/usbh_ctlreq.c ****       break;
1095:Middlewares/ST/STM32_USB_Host_Library/Core/Src/usbh_ctlreq.c **** 
1096:Middlewares/ST/STM32_USB_Host_Library/Core/Src/usbh_ctlreq.c ****     case CTRL_STATUS_OUT:
1097:Middlewares/ST/STM32_USB_Host_Library/Core/Src/usbh_ctlreq.c ****       (void)USBH_CtlSendData(phost, NULL, 0U, phost->Control.pipe_out, 1U);
1098:Middlewares/ST/STM32_USB_Host_Library/Core/Src/usbh_ctlreq.c **** 
1099:Middlewares/ST/STM32_USB_Host_Library/Core/Src/usbh_ctlreq.c ****       phost->Control.timer = (uint16_t)phost->Timer;
1100:Middlewares/ST/STM32_USB_Host_Library/Core/Src/usbh_ctlreq.c ****       phost->Control.state = CTRL_STATUS_OUT_WAIT;
1101:Middlewares/ST/STM32_USB_Host_Library/Core/Src/usbh_ctlreq.c ****       break;
1102:Middlewares/ST/STM32_USB_Host_Library/Core/Src/usbh_ctlreq.c **** 
1103:Middlewares/ST/STM32_USB_Host_Library/Core/Src/usbh_ctlreq.c ****     case CTRL_STATUS_OUT_WAIT:
1104:Middlewares/ST/STM32_USB_Host_Library/Core/Src/usbh_ctlreq.c ****       URB_Status = USBH_LL_GetURBState(phost, phost->Control.pipe_out);
1105:Middlewares/ST/STM32_USB_Host_Library/Core/Src/usbh_ctlreq.c ****       if (URB_Status == USBH_URB_DONE)
1106:Middlewares/ST/STM32_USB_Host_Library/Core/Src/usbh_ctlreq.c ****       {
1107:Middlewares/ST/STM32_USB_Host_Library/Core/Src/usbh_ctlreq.c ****         status = USBH_OK;
1108:Middlewares/ST/STM32_USB_Host_Library/Core/Src/usbh_ctlreq.c ****         phost->Control.state = CTRL_COMPLETE;
1109:Middlewares/ST/STM32_USB_Host_Library/Core/Src/usbh_ctlreq.c **** 
1110:Middlewares/ST/STM32_USB_Host_Library/Core/Src/usbh_ctlreq.c **** #if (USBH_USE_OS == 1U)
1111:Middlewares/ST/STM32_USB_Host_Library/Core/Src/usbh_ctlreq.c ****         phost->os_msg = (uint32_t)USBH_CONTROL_EVENT;
1112:Middlewares/ST/STM32_USB_Host_Library/Core/Src/usbh_ctlreq.c **** #if (osCMSIS < 0x20000U)
1113:Middlewares/ST/STM32_USB_Host_Library/Core/Src/usbh_ctlreq.c ****         (void)osMessagePut(phost->os_event, phost->os_msg, 0U);
1114:Middlewares/ST/STM32_USB_Host_Library/Core/Src/usbh_ctlreq.c **** #else
1115:Middlewares/ST/STM32_USB_Host_Library/Core/Src/usbh_ctlreq.c ****         (void)osMessageQueuePut(phost->os_event, &phost->os_msg, 0U, 0U);
1116:Middlewares/ST/STM32_USB_Host_Library/Core/Src/usbh_ctlreq.c **** #endif
1117:Middlewares/ST/STM32_USB_Host_Library/Core/Src/usbh_ctlreq.c **** #endif
1118:Middlewares/ST/STM32_USB_Host_Library/Core/Src/usbh_ctlreq.c ****       }
1119:Middlewares/ST/STM32_USB_Host_Library/Core/Src/usbh_ctlreq.c ****       else if (URB_Status == USBH_URB_NOTREADY)
1120:Middlewares/ST/STM32_USB_Host_Library/Core/Src/usbh_ctlreq.c ****       {
1121:Middlewares/ST/STM32_USB_Host_Library/Core/Src/usbh_ctlreq.c ****         phost->Control.state = CTRL_STATUS_OUT;
1122:Middlewares/ST/STM32_USB_Host_Library/Core/Src/usbh_ctlreq.c **** 
1123:Middlewares/ST/STM32_USB_Host_Library/Core/Src/usbh_ctlreq.c **** #if (USBH_USE_OS == 1U)
1124:Middlewares/ST/STM32_USB_Host_Library/Core/Src/usbh_ctlreq.c ****         phost->os_msg = (uint32_t)USBH_CONTROL_EVENT;
ARM GAS  /tmp/ccxHAzXl.s 			page 34


1125:Middlewares/ST/STM32_USB_Host_Library/Core/Src/usbh_ctlreq.c **** #if (osCMSIS < 0x20000U)
1126:Middlewares/ST/STM32_USB_Host_Library/Core/Src/usbh_ctlreq.c ****         (void)osMessagePut(phost->os_event, phost->os_msg, 0U);
1127:Middlewares/ST/STM32_USB_Host_Library/Core/Src/usbh_ctlreq.c **** #else
1128:Middlewares/ST/STM32_USB_Host_Library/Core/Src/usbh_ctlreq.c ****         (void)osMessageQueuePut(phost->os_event, &phost->os_msg, 0U, 0U);
1129:Middlewares/ST/STM32_USB_Host_Library/Core/Src/usbh_ctlreq.c **** #endif
1130:Middlewares/ST/STM32_USB_Host_Library/Core/Src/usbh_ctlreq.c **** #endif
1131:Middlewares/ST/STM32_USB_Host_Library/Core/Src/usbh_ctlreq.c ****       }
1132:Middlewares/ST/STM32_USB_Host_Library/Core/Src/usbh_ctlreq.c ****       else
1133:Middlewares/ST/STM32_USB_Host_Library/Core/Src/usbh_ctlreq.c ****       {
1134:Middlewares/ST/STM32_USB_Host_Library/Core/Src/usbh_ctlreq.c ****         if (URB_Status == USBH_URB_ERROR)
1135:Middlewares/ST/STM32_USB_Host_Library/Core/Src/usbh_ctlreq.c ****         {
1136:Middlewares/ST/STM32_USB_Host_Library/Core/Src/usbh_ctlreq.c ****           phost->Control.state = CTRL_ERROR;
1137:Middlewares/ST/STM32_USB_Host_Library/Core/Src/usbh_ctlreq.c **** 
1138:Middlewares/ST/STM32_USB_Host_Library/Core/Src/usbh_ctlreq.c **** #if (USBH_USE_OS == 1U)
1139:Middlewares/ST/STM32_USB_Host_Library/Core/Src/usbh_ctlreq.c ****           phost->os_msg = (uint32_t)USBH_CONTROL_EVENT;
1140:Middlewares/ST/STM32_USB_Host_Library/Core/Src/usbh_ctlreq.c **** #if (osCMSIS < 0x20000U)
1141:Middlewares/ST/STM32_USB_Host_Library/Core/Src/usbh_ctlreq.c ****           (void)osMessagePut(phost->os_event, phost->os_msg, 0U);
1142:Middlewares/ST/STM32_USB_Host_Library/Core/Src/usbh_ctlreq.c **** #else
1143:Middlewares/ST/STM32_USB_Host_Library/Core/Src/usbh_ctlreq.c ****           (void)osMessageQueuePut(phost->os_event, &phost->os_msg, 0U, 0U);
1144:Middlewares/ST/STM32_USB_Host_Library/Core/Src/usbh_ctlreq.c **** #endif
1145:Middlewares/ST/STM32_USB_Host_Library/Core/Src/usbh_ctlreq.c **** #endif
1146:Middlewares/ST/STM32_USB_Host_Library/Core/Src/usbh_ctlreq.c ****         }
1147:Middlewares/ST/STM32_USB_Host_Library/Core/Src/usbh_ctlreq.c ****       }
1148:Middlewares/ST/STM32_USB_Host_Library/Core/Src/usbh_ctlreq.c ****       break;
1149:Middlewares/ST/STM32_USB_Host_Library/Core/Src/usbh_ctlreq.c **** 
1150:Middlewares/ST/STM32_USB_Host_Library/Core/Src/usbh_ctlreq.c ****     case CTRL_ERROR:
1151:Middlewares/ST/STM32_USB_Host_Library/Core/Src/usbh_ctlreq.c ****       /*
1152:Middlewares/ST/STM32_USB_Host_Library/Core/Src/usbh_ctlreq.c ****       After a halt condition is encountered or an error is detected by the
1153:Middlewares/ST/STM32_USB_Host_Library/Core/Src/usbh_ctlreq.c ****       host, a control endpoint is allowed to recover by accepting the next Setup
1154:Middlewares/ST/STM32_USB_Host_Library/Core/Src/usbh_ctlreq.c ****       PID; i.e., recovery actions via some other pipe are not required for control
1155:Middlewares/ST/STM32_USB_Host_Library/Core/Src/usbh_ctlreq.c ****       endpoints. For the Default Control Pipe, a device reset will ultimately be
1156:Middlewares/ST/STM32_USB_Host_Library/Core/Src/usbh_ctlreq.c ****       required to clear the halt or error condition if the next Setup PID is not
1157:Middlewares/ST/STM32_USB_Host_Library/Core/Src/usbh_ctlreq.c ****       accepted.
1158:Middlewares/ST/STM32_USB_Host_Library/Core/Src/usbh_ctlreq.c ****       */
1159:Middlewares/ST/STM32_USB_Host_Library/Core/Src/usbh_ctlreq.c ****       if (++phost->Control.errorcount <= USBH_MAX_ERROR_COUNT)
1160:Middlewares/ST/STM32_USB_Host_Library/Core/Src/usbh_ctlreq.c ****       {
1161:Middlewares/ST/STM32_USB_Host_Library/Core/Src/usbh_ctlreq.c ****         /* Do the transmission again, starting from SETUP Packet */
1162:Middlewares/ST/STM32_USB_Host_Library/Core/Src/usbh_ctlreq.c ****         phost->Control.state = CTRL_SETUP;
1163:Middlewares/ST/STM32_USB_Host_Library/Core/Src/usbh_ctlreq.c ****         phost->RequestState = CMD_SEND;
1164:Middlewares/ST/STM32_USB_Host_Library/Core/Src/usbh_ctlreq.c ****       }
1165:Middlewares/ST/STM32_USB_Host_Library/Core/Src/usbh_ctlreq.c ****       else
1166:Middlewares/ST/STM32_USB_Host_Library/Core/Src/usbh_ctlreq.c ****       {
1167:Middlewares/ST/STM32_USB_Host_Library/Core/Src/usbh_ctlreq.c ****         phost->pUser(phost, HOST_USER_UNRECOVERED_ERROR);
1168:Middlewares/ST/STM32_USB_Host_Library/Core/Src/usbh_ctlreq.c ****         phost->Control.errorcount = 0U;
1169:Middlewares/ST/STM32_USB_Host_Library/Core/Src/usbh_ctlreq.c ****         USBH_ErrLog("Control error: Device not responding");
1170:Middlewares/ST/STM32_USB_Host_Library/Core/Src/usbh_ctlreq.c **** 
1171:Middlewares/ST/STM32_USB_Host_Library/Core/Src/usbh_ctlreq.c ****         /* Free control pipes */
1172:Middlewares/ST/STM32_USB_Host_Library/Core/Src/usbh_ctlreq.c ****         (void)USBH_FreePipe(phost, phost->Control.pipe_out);
1173:Middlewares/ST/STM32_USB_Host_Library/Core/Src/usbh_ctlreq.c ****         (void)USBH_FreePipe(phost, phost->Control.pipe_in);
1174:Middlewares/ST/STM32_USB_Host_Library/Core/Src/usbh_ctlreq.c **** 
1175:Middlewares/ST/STM32_USB_Host_Library/Core/Src/usbh_ctlreq.c ****         phost->gState = HOST_IDLE;
1176:Middlewares/ST/STM32_USB_Host_Library/Core/Src/usbh_ctlreq.c ****         status = USBH_FAIL;
1177:Middlewares/ST/STM32_USB_Host_Library/Core/Src/usbh_ctlreq.c ****       }
1178:Middlewares/ST/STM32_USB_Host_Library/Core/Src/usbh_ctlreq.c ****       break;
1179:Middlewares/ST/STM32_USB_Host_Library/Core/Src/usbh_ctlreq.c **** 
1180:Middlewares/ST/STM32_USB_Host_Library/Core/Src/usbh_ctlreq.c ****     default:
1181:Middlewares/ST/STM32_USB_Host_Library/Core/Src/usbh_ctlreq.c ****       break;
ARM GAS  /tmp/ccxHAzXl.s 			page 35


1182:Middlewares/ST/STM32_USB_Host_Library/Core/Src/usbh_ctlreq.c ****   }
1183:Middlewares/ST/STM32_USB_Host_Library/Core/Src/usbh_ctlreq.c **** 
1184:Middlewares/ST/STM32_USB_Host_Library/Core/Src/usbh_ctlreq.c ****   return status;
 676              		.loc 1 1184 3 view .LVU228
1185:Middlewares/ST/STM32_USB_Host_Library/Core/Src/usbh_ctlreq.c **** }
 677              		.loc 1 1185 1 is_stmt 0 view .LVU229
 678 002e 2846     		mov	r0, r5
 679 0030 03B0     		add	sp, sp, #12
 680              	.LCFI3:
 681              		.cfi_remember_state
 682              		.cfi_def_cfa_offset 12
 683              		@ sp needed
 684 0032 30BD     		pop	{r4, r5, pc}
 685              	.LVL58:
 686              	.L70:
 687              	.LCFI4:
 688              		.cfi_restore_state
 833:Middlewares/ST/STM32_USB_Host_Library/Core/Src/usbh_ctlreq.c ****       /* case SETUP packet sent successfully */
 689              		.loc 1 833 7 is_stmt 1 view .LVU230
 833:Middlewares/ST/STM32_USB_Host_Library/Core/Src/usbh_ctlreq.c ****       /* case SETUP packet sent successfully */
 690              		.loc 1 833 20 is_stmt 0 view .LVU231
 691 0034 4179     		ldrb	r1, [r0, #5]	@ zero_extendqisi2
 692 0036 FFF7FEFF 		bl	USBH_LL_GetURBState
 693              	.LVL59:
 833:Middlewares/ST/STM32_USB_Host_Library/Core/Src/usbh_ctlreq.c ****       /* case SETUP packet sent successfully */
 694              		.loc 1 833 20 view .LVU232
 695 003a 0546     		mov	r5, r0
 696              	.LVL60:
 835:Middlewares/ST/STM32_USB_Host_Library/Core/Src/usbh_ctlreq.c ****       {
 697              		.loc 1 835 7 is_stmt 1 view .LVU233
 835:Middlewares/ST/STM32_USB_Host_Library/Core/Src/usbh_ctlreq.c ****       {
 698              		.loc 1 835 10 is_stmt 0 view .LVU234
 699 003c 0128     		cmp	r0, #1
 700 003e 05D0     		beq	.L95
 880:Middlewares/ST/STM32_USB_Host_Library/Core/Src/usbh_ctlreq.c ****         {
 701              		.loc 1 880 9 is_stmt 1 view .LVU235
 880:Middlewares/ST/STM32_USB_Host_Library/Core/Src/usbh_ctlreq.c ****         {
 702              		.loc 1 880 12 is_stmt 0 view .LVU236
 703 0040 0428     		cmp	r0, #4
 704 0042 18D0     		beq	.L76
 880:Middlewares/ST/STM32_USB_Host_Library/Core/Src/usbh_ctlreq.c ****         {
 705              		.loc 1 880 44 discriminator 1 view .LVU237
 706 0044 0228     		cmp	r0, #2
 707 0046 16D0     		beq	.L76
 818:Middlewares/ST/STM32_USB_Host_Library/Core/Src/usbh_ctlreq.c ****   USBH_URBStateTypeDef URB_Status = USBH_URB_IDLE;
 708              		.loc 1 818 22 view .LVU238
 709 0048 0125     		movs	r5, #1
 710 004a F0E7     		b	.L59
 711              	.L95:
 837:Middlewares/ST/STM32_USB_Host_Library/Core/Src/usbh_ctlreq.c **** 
 712              		.loc 1 837 9 is_stmt 1 view .LVU239
 837:Middlewares/ST/STM32_USB_Host_Library/Core/Src/usbh_ctlreq.c **** 
 713              		.loc 1 837 44 is_stmt 0 view .LVU240
 714 004c 237C     		ldrb	r3, [r4, #16]	@ zero_extendqisi2
 715              	.LVL61:
 840:Middlewares/ST/STM32_USB_Host_Library/Core/Src/usbh_ctlreq.c ****         {
 716              		.loc 1 840 9 is_stmt 1 view .LVU241
ARM GAS  /tmp/ccxHAzXl.s 			page 36


 840:Middlewares/ST/STM32_USB_Host_Library/Core/Src/usbh_ctlreq.c ****         {
 717              		.loc 1 840 43 is_stmt 0 view .LVU242
 718 004e E28A     		ldrh	r2, [r4, #22]
 840:Middlewares/ST/STM32_USB_Host_Library/Core/Src/usbh_ctlreq.c ****         {
 719              		.loc 1 840 12 view .LVU243
 720 0050 42B1     		cbz	r2, .L73
 842:Middlewares/ST/STM32_USB_Host_Library/Core/Src/usbh_ctlreq.c ****           {
 721              		.loc 1 842 11 is_stmt 1 view .LVU244
 842:Middlewares/ST/STM32_USB_Host_Library/Core/Src/usbh_ctlreq.c ****           {
 722              		.loc 1 842 14 is_stmt 0 view .LVU245
 723 0052 13F0800F 		tst	r3, #128
 724 0056 02D1     		bne	.L96
 850:Middlewares/ST/STM32_USB_Host_Library/Core/Src/usbh_ctlreq.c ****           }
 725              		.loc 1 850 13 is_stmt 1 view .LVU246
 850:Middlewares/ST/STM32_USB_Host_Library/Core/Src/usbh_ctlreq.c ****           }
 726              		.loc 1 850 34 is_stmt 0 view .LVU247
 727 0058 0523     		movs	r3, #5
 728              	.LVL62:
 850:Middlewares/ST/STM32_USB_Host_Library/Core/Src/usbh_ctlreq.c ****           }
 729              		.loc 1 850 34 view .LVU248
 730 005a 2376     		strb	r3, [r4, #24]
 731 005c E7E7     		b	.L59
 732              	.LVL63:
 733              	.L96:
 845:Middlewares/ST/STM32_USB_Host_Library/Core/Src/usbh_ctlreq.c ****           }
 734              		.loc 1 845 13 is_stmt 1 view .LVU249
 845:Middlewares/ST/STM32_USB_Host_Library/Core/Src/usbh_ctlreq.c ****           }
 735              		.loc 1 845 34 is_stmt 0 view .LVU250
 736 005e 0323     		movs	r3, #3
 737              	.LVL64:
 845:Middlewares/ST/STM32_USB_Host_Library/Core/Src/usbh_ctlreq.c ****           }
 738              		.loc 1 845 34 view .LVU251
 739 0060 2376     		strb	r3, [r4, #24]
 740 0062 E4E7     		b	.L59
 741              	.LVL65:
 742              	.L73:
 857:Middlewares/ST/STM32_USB_Host_Library/Core/Src/usbh_ctlreq.c ****           {
 743              		.loc 1 857 11 is_stmt 1 view .LVU252
 857:Middlewares/ST/STM32_USB_Host_Library/Core/Src/usbh_ctlreq.c ****           {
 744              		.loc 1 857 14 is_stmt 0 view .LVU253
 745 0064 13F0800F 		tst	r3, #128
 746 0068 02D1     		bne	.L97
 865:Middlewares/ST/STM32_USB_Host_Library/Core/Src/usbh_ctlreq.c ****           }
 747              		.loc 1 865 13 is_stmt 1 view .LVU254
 865:Middlewares/ST/STM32_USB_Host_Library/Core/Src/usbh_ctlreq.c ****           }
 748              		.loc 1 865 34 is_stmt 0 view .LVU255
 749 006a 0723     		movs	r3, #7
 750              	.LVL66:
 865:Middlewares/ST/STM32_USB_Host_Library/Core/Src/usbh_ctlreq.c ****           }
 751              		.loc 1 865 34 view .LVU256
 752 006c 2376     		strb	r3, [r4, #24]
 753 006e DEE7     		b	.L59
 754              	.LVL67:
 755              	.L97:
 860:Middlewares/ST/STM32_USB_Host_Library/Core/Src/usbh_ctlreq.c ****           }
 756              		.loc 1 860 13 is_stmt 1 view .LVU257
 860:Middlewares/ST/STM32_USB_Host_Library/Core/Src/usbh_ctlreq.c ****           }
ARM GAS  /tmp/ccxHAzXl.s 			page 37


 757              		.loc 1 860 34 is_stmt 0 view .LVU258
 758 0070 0923     		movs	r3, #9
 759              	.LVL68:
 860:Middlewares/ST/STM32_USB_Host_Library/Core/Src/usbh_ctlreq.c ****           }
 760              		.loc 1 860 34 view .LVU259
 761 0072 2376     		strb	r3, [r4, #24]
 762 0074 DBE7     		b	.L59
 763              	.LVL69:
 764              	.L76:
 882:Middlewares/ST/STM32_USB_Host_Library/Core/Src/usbh_ctlreq.c **** 
 765              		.loc 1 882 11 is_stmt 1 view .LVU260
 882:Middlewares/ST/STM32_USB_Host_Library/Core/Src/usbh_ctlreq.c **** 
 766              		.loc 1 882 32 is_stmt 0 view .LVU261
 767 0076 0B23     		movs	r3, #11
 768 0078 2376     		strb	r3, [r4, #24]
 818:Middlewares/ST/STM32_USB_Host_Library/Core/Src/usbh_ctlreq.c ****   USBH_URBStateTypeDef URB_Status = USBH_URB_IDLE;
 769              		.loc 1 818 22 view .LVU262
 770 007a 0125     		movs	r5, #1
 771 007c D7E7     		b	.L59
 772              	.LVL70:
 773              	.L69:
 898:Middlewares/ST/STM32_USB_Host_Library/Core/Src/usbh_ctlreq.c ****       (void)USBH_CtlReceiveData(phost, phost->Control.buff,
 774              		.loc 1 898 7 is_stmt 1 view .LVU263
 898:Middlewares/ST/STM32_USB_Host_Library/Core/Src/usbh_ctlreq.c ****       (void)USBH_CtlReceiveData(phost, phost->Control.buff,
 775              		.loc 1 898 45 is_stmt 0 view .LVU264
 776 007e D0F8C433 		ldr	r3, [r0, #964]
 898:Middlewares/ST/STM32_USB_Host_Library/Core/Src/usbh_ctlreq.c ****       (void)USBH_CtlReceiveData(phost, phost->Control.buff,
 777              		.loc 1 898 28 view .LVU265
 778 0082 C381     		strh	r3, [r0, #14]	@ movhi
 899:Middlewares/ST/STM32_USB_Host_Library/Core/Src/usbh_ctlreq.c ****                                 phost->Control.length, phost->Control.pipe_in);
 779              		.loc 1 899 7 is_stmt 1 view .LVU266
 899:Middlewares/ST/STM32_USB_Host_Library/Core/Src/usbh_ctlreq.c ****                                 phost->Control.length, phost->Control.pipe_in);
 780              		.loc 1 899 13 is_stmt 0 view .LVU267
 781 0084 0379     		ldrb	r3, [r0, #4]	@ zero_extendqisi2
 782 0086 8289     		ldrh	r2, [r0, #12]
 783 0088 8168     		ldr	r1, [r0, #8]
 784 008a FFF7FEFF 		bl	USBH_CtlReceiveData
 785              	.LVL71:
 902:Middlewares/ST/STM32_USB_Host_Library/Core/Src/usbh_ctlreq.c ****       break;
 786              		.loc 1 902 7 is_stmt 1 view .LVU268
 902:Middlewares/ST/STM32_USB_Host_Library/Core/Src/usbh_ctlreq.c ****       break;
 787              		.loc 1 902 28 is_stmt 0 view .LVU269
 788 008e 0423     		movs	r3, #4
 789 0090 2376     		strb	r3, [r4, #24]
 903:Middlewares/ST/STM32_USB_Host_Library/Core/Src/usbh_ctlreq.c **** 
 790              		.loc 1 903 7 is_stmt 1 view .LVU270
 818:Middlewares/ST/STM32_USB_Host_Library/Core/Src/usbh_ctlreq.c ****   USBH_URBStateTypeDef URB_Status = USBH_URB_IDLE;
 791              		.loc 1 818 22 is_stmt 0 view .LVU271
 792 0092 0125     		movs	r5, #1
 903:Middlewares/ST/STM32_USB_Host_Library/Core/Src/usbh_ctlreq.c **** 
 793              		.loc 1 903 7 view .LVU272
 794 0094 CBE7     		b	.L59
 795              	.LVL72:
 796              	.L68:
 907:Middlewares/ST/STM32_USB_Host_Library/Core/Src/usbh_ctlreq.c **** 
 797              		.loc 1 907 7 is_stmt 1 view .LVU273
 907:Middlewares/ST/STM32_USB_Host_Library/Core/Src/usbh_ctlreq.c **** 
ARM GAS  /tmp/ccxHAzXl.s 			page 38


 798              		.loc 1 907 20 is_stmt 0 view .LVU274
 799 0096 0179     		ldrb	r1, [r0, #4]	@ zero_extendqisi2
 800 0098 FFF7FEFF 		bl	USBH_LL_GetURBState
 801              	.LVL73:
 910:Middlewares/ST/STM32_USB_Host_Library/Core/Src/usbh_ctlreq.c ****       {
 802              		.loc 1 910 7 is_stmt 1 view .LVU275
 910:Middlewares/ST/STM32_USB_Host_Library/Core/Src/usbh_ctlreq.c ****       {
 803              		.loc 1 910 10 is_stmt 0 view .LVU276
 804 009c 0128     		cmp	r0, #1
 805 009e 06D0     		beq	.L98
 925:Middlewares/ST/STM32_USB_Host_Library/Core/Src/usbh_ctlreq.c ****       {
 806              		.loc 1 925 7 is_stmt 1 view .LVU277
 925:Middlewares/ST/STM32_USB_Host_Library/Core/Src/usbh_ctlreq.c ****       {
 807              		.loc 1 925 10 is_stmt 0 view .LVU278
 808 00a0 0528     		cmp	r0, #5
 809 00a2 00F09580 		beq	.L89
 810              	.L78:
 941:Middlewares/ST/STM32_USB_Host_Library/Core/Src/usbh_ctlreq.c ****         {
 811              		.loc 1 941 9 is_stmt 1 view .LVU279
 941:Middlewares/ST/STM32_USB_Host_Library/Core/Src/usbh_ctlreq.c ****         {
 812              		.loc 1 941 12 is_stmt 0 view .LVU280
 813 00a6 0428     		cmp	r0, #4
 814 00a8 04D0     		beq	.L99
 818:Middlewares/ST/STM32_USB_Host_Library/Core/Src/usbh_ctlreq.c ****   USBH_URBStateTypeDef URB_Status = USBH_URB_IDLE;
 815              		.loc 1 818 22 view .LVU281
 816 00aa 0125     		movs	r5, #1
 817 00ac BFE7     		b	.L59
 818              	.L98:
 912:Middlewares/ST/STM32_USB_Host_Library/Core/Src/usbh_ctlreq.c **** 
 819              		.loc 1 912 9 is_stmt 1 view .LVU282
 912:Middlewares/ST/STM32_USB_Host_Library/Core/Src/usbh_ctlreq.c **** 
 820              		.loc 1 912 30 is_stmt 0 view .LVU283
 821 00ae 0923     		movs	r3, #9
 822 00b0 2376     		strb	r3, [r4, #24]
 925:Middlewares/ST/STM32_USB_Host_Library/Core/Src/usbh_ctlreq.c ****       {
 823              		.loc 1 925 7 is_stmt 1 view .LVU284
 824 00b2 F8E7     		b	.L78
 825              	.L99:
 944:Middlewares/ST/STM32_USB_Host_Library/Core/Src/usbh_ctlreq.c **** 
 826              		.loc 1 944 11 view .LVU285
 944:Middlewares/ST/STM32_USB_Host_Library/Core/Src/usbh_ctlreq.c **** 
 827              		.loc 1 944 32 is_stmt 0 view .LVU286
 828 00b4 0B23     		movs	r3, #11
 829 00b6 2376     		strb	r3, [r4, #24]
 818:Middlewares/ST/STM32_USB_Host_Library/Core/Src/usbh_ctlreq.c ****   USBH_URBStateTypeDef URB_Status = USBH_URB_IDLE;
 830              		.loc 1 818 22 view .LVU287
 831 00b8 0125     		movs	r5, #1
 832 00ba B8E7     		b	.L59
 833              	.LVL74:
 834              	.L67:
 960:Middlewares/ST/STM32_USB_Host_Library/Core/Src/usbh_ctlreq.c ****                              phost->Control.pipe_out, 1U);
 835              		.loc 1 960 7 is_stmt 1 view .LVU288
 960:Middlewares/ST/STM32_USB_Host_Library/Core/Src/usbh_ctlreq.c ****                              phost->Control.pipe_out, 1U);
 836              		.loc 1 960 13 is_stmt 0 view .LVU289
 837 00bc 0125     		movs	r5, #1
 838 00be 0095     		str	r5, [sp]
 839 00c0 4379     		ldrb	r3, [r0, #5]	@ zero_extendqisi2
ARM GAS  /tmp/ccxHAzXl.s 			page 39


 840 00c2 8289     		ldrh	r2, [r0, #12]
 841 00c4 8168     		ldr	r1, [r0, #8]
 842 00c6 FFF7FEFF 		bl	USBH_CtlSendData
 843              	.LVL75:
 963:Middlewares/ST/STM32_USB_Host_Library/Core/Src/usbh_ctlreq.c ****       phost->Control.state = CTRL_DATA_OUT_WAIT;
 844              		.loc 1 963 7 is_stmt 1 view .LVU290
 963:Middlewares/ST/STM32_USB_Host_Library/Core/Src/usbh_ctlreq.c ****       phost->Control.state = CTRL_DATA_OUT_WAIT;
 845              		.loc 1 963 45 is_stmt 0 view .LVU291
 846 00ca D4F8C433 		ldr	r3, [r4, #964]
 963:Middlewares/ST/STM32_USB_Host_Library/Core/Src/usbh_ctlreq.c ****       phost->Control.state = CTRL_DATA_OUT_WAIT;
 847              		.loc 1 963 28 view .LVU292
 848 00ce E381     		strh	r3, [r4, #14]	@ movhi
 964:Middlewares/ST/STM32_USB_Host_Library/Core/Src/usbh_ctlreq.c ****       break;
 849              		.loc 1 964 7 is_stmt 1 view .LVU293
 964:Middlewares/ST/STM32_USB_Host_Library/Core/Src/usbh_ctlreq.c ****       break;
 850              		.loc 1 964 28 is_stmt 0 view .LVU294
 851 00d0 0623     		movs	r3, #6
 852 00d2 2376     		strb	r3, [r4, #24]
 965:Middlewares/ST/STM32_USB_Host_Library/Core/Src/usbh_ctlreq.c **** 
 853              		.loc 1 965 7 is_stmt 1 view .LVU295
 854 00d4 ABE7     		b	.L59
 855              	.LVL76:
 856              	.L66:
 969:Middlewares/ST/STM32_USB_Host_Library/Core/Src/usbh_ctlreq.c **** 
 857              		.loc 1 969 7 view .LVU296
 969:Middlewares/ST/STM32_USB_Host_Library/Core/Src/usbh_ctlreq.c **** 
 858              		.loc 1 969 20 is_stmt 0 view .LVU297
 859 00d6 4179     		ldrb	r1, [r0, #5]	@ zero_extendqisi2
 860 00d8 FFF7FEFF 		bl	USBH_LL_GetURBState
 861              	.LVL77:
 969:Middlewares/ST/STM32_USB_Host_Library/Core/Src/usbh_ctlreq.c **** 
 862              		.loc 1 969 20 view .LVU298
 863 00dc 0546     		mov	r5, r0
 864              	.LVL78:
 971:Middlewares/ST/STM32_USB_Host_Library/Core/Src/usbh_ctlreq.c ****       {
 865              		.loc 1 971 7 is_stmt 1 view .LVU299
 971:Middlewares/ST/STM32_USB_Host_Library/Core/Src/usbh_ctlreq.c ****       {
 866              		.loc 1 971 10 is_stmt 0 view .LVU300
 867 00de 0128     		cmp	r0, #1
 868 00e0 07D0     		beq	.L100
 987:Middlewares/ST/STM32_USB_Host_Library/Core/Src/usbh_ctlreq.c ****       {
 869              		.loc 1 987 12 is_stmt 1 view .LVU301
 987:Middlewares/ST/STM32_USB_Host_Library/Core/Src/usbh_ctlreq.c ****       {
 870              		.loc 1 987 15 is_stmt 0 view .LVU302
 871 00e2 0528     		cmp	r0, #5
 872 00e4 08D0     		beq	.L101
1002:Middlewares/ST/STM32_USB_Host_Library/Core/Src/usbh_ctlreq.c ****       {
 873              		.loc 1 1002 12 is_stmt 1 view .LVU303
1002:Middlewares/ST/STM32_USB_Host_Library/Core/Src/usbh_ctlreq.c ****       {
 874              		.loc 1 1002 15 is_stmt 0 view .LVU304
 875 00e6 0228     		cmp	r0, #2
 876 00e8 0AD0     		beq	.L102
1018:Middlewares/ST/STM32_USB_Host_Library/Core/Src/usbh_ctlreq.c ****         {
 877              		.loc 1 1018 9 is_stmt 1 view .LVU305
1018:Middlewares/ST/STM32_USB_Host_Library/Core/Src/usbh_ctlreq.c ****         {
 878              		.loc 1 1018 12 is_stmt 0 view .LVU306
 879 00ea 0428     		cmp	r0, #4
ARM GAS  /tmp/ccxHAzXl.s 			page 40


 880 00ec 0CD0     		beq	.L103
 818:Middlewares/ST/STM32_USB_Host_Library/Core/Src/usbh_ctlreq.c ****   USBH_URBStateTypeDef URB_Status = USBH_URB_IDLE;
 881              		.loc 1 818 22 view .LVU307
 882 00ee 0125     		movs	r5, #1
 883 00f0 9DE7     		b	.L59
 884              	.L100:
 974:Middlewares/ST/STM32_USB_Host_Library/Core/Src/usbh_ctlreq.c **** 
 885              		.loc 1 974 9 is_stmt 1 view .LVU308
 974:Middlewares/ST/STM32_USB_Host_Library/Core/Src/usbh_ctlreq.c **** 
 886              		.loc 1 974 30 is_stmt 0 view .LVU309
 887 00f2 0723     		movs	r3, #7
 888 00f4 2376     		strb	r3, [r4, #24]
 889 00f6 9AE7     		b	.L59
 890              	.L101:
 990:Middlewares/ST/STM32_USB_Host_Library/Core/Src/usbh_ctlreq.c ****         status = USBH_NOT_SUPPORTED;
 891              		.loc 1 990 9 is_stmt 1 view .LVU310
 990:Middlewares/ST/STM32_USB_Host_Library/Core/Src/usbh_ctlreq.c ****         status = USBH_NOT_SUPPORTED;
 892              		.loc 1 990 30 is_stmt 0 view .LVU311
 893 00f8 0C23     		movs	r3, #12
 894 00fa 2376     		strb	r3, [r4, #24]
 991:Middlewares/ST/STM32_USB_Host_Library/Core/Src/usbh_ctlreq.c **** 
 895              		.loc 1 991 9 is_stmt 1 view .LVU312
 896              	.LVL79:
 991:Middlewares/ST/STM32_USB_Host_Library/Core/Src/usbh_ctlreq.c **** 
 897              		.loc 1 991 16 is_stmt 0 view .LVU313
 898 00fc 0325     		movs	r5, #3
 899 00fe 96E7     		b	.L59
 900              	.LVL80:
 901              	.L102:
1005:Middlewares/ST/STM32_USB_Host_Library/Core/Src/usbh_ctlreq.c **** 
 902              		.loc 1 1005 9 is_stmt 1 view .LVU314
1005:Middlewares/ST/STM32_USB_Host_Library/Core/Src/usbh_ctlreq.c **** 
 903              		.loc 1 1005 30 is_stmt 0 view .LVU315
 904 0100 0523     		movs	r3, #5
 905 0102 2376     		strb	r3, [r4, #24]
 818:Middlewares/ST/STM32_USB_Host_Library/Core/Src/usbh_ctlreq.c ****   USBH_URBStateTypeDef URB_Status = USBH_URB_IDLE;
 906              		.loc 1 818 22 view .LVU316
 907 0104 0125     		movs	r5, #1
 908 0106 92E7     		b	.L59
 909              	.L103:
1021:Middlewares/ST/STM32_USB_Host_Library/Core/Src/usbh_ctlreq.c ****           status = USBH_FAIL;
 910              		.loc 1 1021 11 is_stmt 1 view .LVU317
1021:Middlewares/ST/STM32_USB_Host_Library/Core/Src/usbh_ctlreq.c ****           status = USBH_FAIL;
 911              		.loc 1 1021 32 is_stmt 0 view .LVU318
 912 0108 0B23     		movs	r3, #11
 913 010a 2376     		strb	r3, [r4, #24]
1022:Middlewares/ST/STM32_USB_Host_Library/Core/Src/usbh_ctlreq.c **** 
 914              		.loc 1 1022 11 is_stmt 1 view .LVU319
 915              	.LVL81:
1022:Middlewares/ST/STM32_USB_Host_Library/Core/Src/usbh_ctlreq.c **** 
 916              		.loc 1 1022 18 is_stmt 0 view .LVU320
 917 010c 0225     		movs	r5, #2
 918 010e 8EE7     		b	.L59
 919              	.LVL82:
 920              	.L65:
1038:Middlewares/ST/STM32_USB_Host_Library/Core/Src/usbh_ctlreq.c **** 
 921              		.loc 1 1038 7 is_stmt 1 view .LVU321
ARM GAS  /tmp/ccxHAzXl.s 			page 41


1038:Middlewares/ST/STM32_USB_Host_Library/Core/Src/usbh_ctlreq.c **** 
 922              		.loc 1 1038 13 is_stmt 0 view .LVU322
 923 0110 0379     		ldrb	r3, [r0, #4]	@ zero_extendqisi2
 924 0112 0022     		movs	r2, #0
 925 0114 1146     		mov	r1, r2
 926 0116 FFF7FEFF 		bl	USBH_CtlReceiveData
 927              	.LVL83:
1040:Middlewares/ST/STM32_USB_Host_Library/Core/Src/usbh_ctlreq.c ****       phost->Control.state = CTRL_STATUS_IN_WAIT;
 928              		.loc 1 1040 7 is_stmt 1 view .LVU323
1040:Middlewares/ST/STM32_USB_Host_Library/Core/Src/usbh_ctlreq.c ****       phost->Control.state = CTRL_STATUS_IN_WAIT;
 929              		.loc 1 1040 45 is_stmt 0 view .LVU324
 930 011a D4F8C433 		ldr	r3, [r4, #964]
1040:Middlewares/ST/STM32_USB_Host_Library/Core/Src/usbh_ctlreq.c ****       phost->Control.state = CTRL_STATUS_IN_WAIT;
 931              		.loc 1 1040 28 view .LVU325
 932 011e E381     		strh	r3, [r4, #14]	@ movhi
1041:Middlewares/ST/STM32_USB_Host_Library/Core/Src/usbh_ctlreq.c **** 
 933              		.loc 1 1041 7 is_stmt 1 view .LVU326
1041:Middlewares/ST/STM32_USB_Host_Library/Core/Src/usbh_ctlreq.c **** 
 934              		.loc 1 1041 28 is_stmt 0 view .LVU327
 935 0120 0823     		movs	r3, #8
 936 0122 2376     		strb	r3, [r4, #24]
1043:Middlewares/ST/STM32_USB_Host_Library/Core/Src/usbh_ctlreq.c **** 
 937              		.loc 1 1043 7 is_stmt 1 view .LVU328
 818:Middlewares/ST/STM32_USB_Host_Library/Core/Src/usbh_ctlreq.c ****   USBH_URBStateTypeDef URB_Status = USBH_URB_IDLE;
 938              		.loc 1 818 22 is_stmt 0 view .LVU329
 939 0124 0125     		movs	r5, #1
1043:Middlewares/ST/STM32_USB_Host_Library/Core/Src/usbh_ctlreq.c **** 
 940              		.loc 1 1043 7 view .LVU330
 941 0126 82E7     		b	.L59
 942              	.LVL84:
 943              	.L64:
1047:Middlewares/ST/STM32_USB_Host_Library/Core/Src/usbh_ctlreq.c **** 
 944              		.loc 1 1047 7 is_stmt 1 view .LVU331
1047:Middlewares/ST/STM32_USB_Host_Library/Core/Src/usbh_ctlreq.c **** 
 945              		.loc 1 1047 20 is_stmt 0 view .LVU332
 946 0128 0179     		ldrb	r1, [r0, #4]	@ zero_extendqisi2
 947 012a FFF7FEFF 		bl	USBH_LL_GetURBState
 948              	.LVL85:
1049:Middlewares/ST/STM32_USB_Host_Library/Core/Src/usbh_ctlreq.c ****       {
 949              		.loc 1 1049 7 is_stmt 1 view .LVU333
1049:Middlewares/ST/STM32_USB_Host_Library/Core/Src/usbh_ctlreq.c ****       {
 950              		.loc 1 1049 10 is_stmt 0 view .LVU334
 951 012e 0128     		cmp	r0, #1
 952 0130 05D0     		beq	.L104
1064:Middlewares/ST/STM32_USB_Host_Library/Core/Src/usbh_ctlreq.c ****       {
 953              		.loc 1 1064 12 is_stmt 1 view .LVU335
1064:Middlewares/ST/STM32_USB_Host_Library/Core/Src/usbh_ctlreq.c ****       {
 954              		.loc 1 1064 15 is_stmt 0 view .LVU336
 955 0132 0428     		cmp	r0, #4
 956 0134 07D0     		beq	.L105
1079:Middlewares/ST/STM32_USB_Host_Library/Core/Src/usbh_ctlreq.c ****         {
 957              		.loc 1 1079 9 is_stmt 1 view .LVU337
1079:Middlewares/ST/STM32_USB_Host_Library/Core/Src/usbh_ctlreq.c ****         {
 958              		.loc 1 1079 12 is_stmt 0 view .LVU338
 959 0136 0528     		cmp	r0, #5
 960 0138 4CD0     		beq	.L92
 818:Middlewares/ST/STM32_USB_Host_Library/Core/Src/usbh_ctlreq.c ****   USBH_URBStateTypeDef URB_Status = USBH_URB_IDLE;
ARM GAS  /tmp/ccxHAzXl.s 			page 42


 961              		.loc 1 818 22 view .LVU339
 962 013a 0125     		movs	r5, #1
 963 013c 77E7     		b	.L59
 964              	.L104:
1052:Middlewares/ST/STM32_USB_Host_Library/Core/Src/usbh_ctlreq.c ****         status = USBH_OK;
 965              		.loc 1 1052 9 is_stmt 1 view .LVU340
1052:Middlewares/ST/STM32_USB_Host_Library/Core/Src/usbh_ctlreq.c ****         status = USBH_OK;
 966              		.loc 1 1052 30 is_stmt 0 view .LVU341
 967 013e 0D23     		movs	r3, #13
 968 0140 2376     		strb	r3, [r4, #24]
1053:Middlewares/ST/STM32_USB_Host_Library/Core/Src/usbh_ctlreq.c **** 
 969              		.loc 1 1053 9 is_stmt 1 view .LVU342
 970              	.LVL86:
1053:Middlewares/ST/STM32_USB_Host_Library/Core/Src/usbh_ctlreq.c **** 
 971              		.loc 1 1053 16 is_stmt 0 view .LVU343
 972 0142 0025     		movs	r5, #0
 973 0144 73E7     		b	.L59
 974              	.LVL87:
 975              	.L105:
1066:Middlewares/ST/STM32_USB_Host_Library/Core/Src/usbh_ctlreq.c **** 
 976              		.loc 1 1066 9 is_stmt 1 view .LVU344
1066:Middlewares/ST/STM32_USB_Host_Library/Core/Src/usbh_ctlreq.c **** 
 977              		.loc 1 1066 30 is_stmt 0 view .LVU345
 978 0146 0B23     		movs	r3, #11
 979 0148 2376     		strb	r3, [r4, #24]
 818:Middlewares/ST/STM32_USB_Host_Library/Core/Src/usbh_ctlreq.c ****   USBH_URBStateTypeDef URB_Status = USBH_URB_IDLE;
 980              		.loc 1 818 22 view .LVU346
 981 014a 0125     		movs	r5, #1
 982 014c 6FE7     		b	.L59
 983              	.LVL88:
 984              	.L63:
1097:Middlewares/ST/STM32_USB_Host_Library/Core/Src/usbh_ctlreq.c **** 
 985              		.loc 1 1097 7 is_stmt 1 view .LVU347
1097:Middlewares/ST/STM32_USB_Host_Library/Core/Src/usbh_ctlreq.c **** 
 986              		.loc 1 1097 13 is_stmt 0 view .LVU348
 987 014e 0125     		movs	r5, #1
 988 0150 0095     		str	r5, [sp]
 989 0152 4379     		ldrb	r3, [r0, #5]	@ zero_extendqisi2
 990 0154 0022     		movs	r2, #0
 991 0156 1146     		mov	r1, r2
 992 0158 FFF7FEFF 		bl	USBH_CtlSendData
 993              	.LVL89:
1099:Middlewares/ST/STM32_USB_Host_Library/Core/Src/usbh_ctlreq.c ****       phost->Control.state = CTRL_STATUS_OUT_WAIT;
 994              		.loc 1 1099 7 is_stmt 1 view .LVU349
1099:Middlewares/ST/STM32_USB_Host_Library/Core/Src/usbh_ctlreq.c ****       phost->Control.state = CTRL_STATUS_OUT_WAIT;
 995              		.loc 1 1099 45 is_stmt 0 view .LVU350
 996 015c D4F8C433 		ldr	r3, [r4, #964]
1099:Middlewares/ST/STM32_USB_Host_Library/Core/Src/usbh_ctlreq.c ****       phost->Control.state = CTRL_STATUS_OUT_WAIT;
 997              		.loc 1 1099 28 view .LVU351
 998 0160 E381     		strh	r3, [r4, #14]	@ movhi
1100:Middlewares/ST/STM32_USB_Host_Library/Core/Src/usbh_ctlreq.c ****       break;
 999              		.loc 1 1100 7 is_stmt 1 view .LVU352
1100:Middlewares/ST/STM32_USB_Host_Library/Core/Src/usbh_ctlreq.c ****       break;
 1000              		.loc 1 1100 28 is_stmt 0 view .LVU353
 1001 0162 0A23     		movs	r3, #10
 1002 0164 2376     		strb	r3, [r4, #24]
1101:Middlewares/ST/STM32_USB_Host_Library/Core/Src/usbh_ctlreq.c **** 
ARM GAS  /tmp/ccxHAzXl.s 			page 43


 1003              		.loc 1 1101 7 is_stmt 1 view .LVU354
 1004 0166 62E7     		b	.L59
 1005              	.LVL90:
 1006              	.L62:
1104:Middlewares/ST/STM32_USB_Host_Library/Core/Src/usbh_ctlreq.c ****       if (URB_Status == USBH_URB_DONE)
 1007              		.loc 1 1104 7 view .LVU355
1104:Middlewares/ST/STM32_USB_Host_Library/Core/Src/usbh_ctlreq.c ****       if (URB_Status == USBH_URB_DONE)
 1008              		.loc 1 1104 20 is_stmt 0 view .LVU356
 1009 0168 4179     		ldrb	r1, [r0, #5]	@ zero_extendqisi2
 1010 016a FFF7FEFF 		bl	USBH_LL_GetURBState
 1011              	.LVL91:
1105:Middlewares/ST/STM32_USB_Host_Library/Core/Src/usbh_ctlreq.c ****       {
 1012              		.loc 1 1105 7 is_stmt 1 view .LVU357
1105:Middlewares/ST/STM32_USB_Host_Library/Core/Src/usbh_ctlreq.c ****       {
 1013              		.loc 1 1105 10 is_stmt 0 view .LVU358
 1014 016e 0128     		cmp	r0, #1
 1015 0170 05D0     		beq	.L106
1119:Middlewares/ST/STM32_USB_Host_Library/Core/Src/usbh_ctlreq.c ****       {
 1016              		.loc 1 1119 12 is_stmt 1 view .LVU359
1119:Middlewares/ST/STM32_USB_Host_Library/Core/Src/usbh_ctlreq.c ****       {
 1017              		.loc 1 1119 15 is_stmt 0 view .LVU360
 1018 0172 0228     		cmp	r0, #2
 1019 0174 07D0     		beq	.L107
1134:Middlewares/ST/STM32_USB_Host_Library/Core/Src/usbh_ctlreq.c ****         {
 1020              		.loc 1 1134 9 is_stmt 1 view .LVU361
1134:Middlewares/ST/STM32_USB_Host_Library/Core/Src/usbh_ctlreq.c ****         {
 1021              		.loc 1 1134 12 is_stmt 0 view .LVU362
 1022 0176 0428     		cmp	r0, #4
 1023 0178 09D0     		beq	.L108
 818:Middlewares/ST/STM32_USB_Host_Library/Core/Src/usbh_ctlreq.c ****   USBH_URBStateTypeDef URB_Status = USBH_URB_IDLE;
 1024              		.loc 1 818 22 view .LVU363
 1025 017a 0125     		movs	r5, #1
 1026 017c 57E7     		b	.L59
 1027              	.L106:
1107:Middlewares/ST/STM32_USB_Host_Library/Core/Src/usbh_ctlreq.c ****         phost->Control.state = CTRL_COMPLETE;
 1028              		.loc 1 1107 9 is_stmt 1 view .LVU364
 1029              	.LVL92:
1108:Middlewares/ST/STM32_USB_Host_Library/Core/Src/usbh_ctlreq.c **** 
 1030              		.loc 1 1108 9 view .LVU365
1108:Middlewares/ST/STM32_USB_Host_Library/Core/Src/usbh_ctlreq.c **** 
 1031              		.loc 1 1108 30 is_stmt 0 view .LVU366
 1032 017e 0D23     		movs	r3, #13
 1033 0180 2376     		strb	r3, [r4, #24]
1107:Middlewares/ST/STM32_USB_Host_Library/Core/Src/usbh_ctlreq.c ****         phost->Control.state = CTRL_COMPLETE;
 1034              		.loc 1 1107 16 view .LVU367
 1035 0182 0025     		movs	r5, #0
 1036 0184 53E7     		b	.L59
 1037              	.LVL93:
 1038              	.L107:
1121:Middlewares/ST/STM32_USB_Host_Library/Core/Src/usbh_ctlreq.c **** 
 1039              		.loc 1 1121 9 is_stmt 1 view .LVU368
1121:Middlewares/ST/STM32_USB_Host_Library/Core/Src/usbh_ctlreq.c **** 
 1040              		.loc 1 1121 30 is_stmt 0 view .LVU369
 1041 0186 0923     		movs	r3, #9
 1042 0188 2376     		strb	r3, [r4, #24]
 818:Middlewares/ST/STM32_USB_Host_Library/Core/Src/usbh_ctlreq.c ****   USBH_URBStateTypeDef URB_Status = USBH_URB_IDLE;
 1043              		.loc 1 818 22 view .LVU370
ARM GAS  /tmp/ccxHAzXl.s 			page 44


 1044 018a 0125     		movs	r5, #1
 1045 018c 4FE7     		b	.L59
 1046              	.L108:
1136:Middlewares/ST/STM32_USB_Host_Library/Core/Src/usbh_ctlreq.c **** 
 1047              		.loc 1 1136 11 is_stmt 1 view .LVU371
1136:Middlewares/ST/STM32_USB_Host_Library/Core/Src/usbh_ctlreq.c **** 
 1048              		.loc 1 1136 32 is_stmt 0 view .LVU372
 1049 018e 0B23     		movs	r3, #11
 1050 0190 2376     		strb	r3, [r4, #24]
 818:Middlewares/ST/STM32_USB_Host_Library/Core/Src/usbh_ctlreq.c ****   USBH_URBStateTypeDef URB_Status = USBH_URB_IDLE;
 1051              		.loc 1 818 22 view .LVU373
 1052 0192 0125     		movs	r5, #1
 1053 0194 4BE7     		b	.L59
 1054              	.LVL94:
 1055              	.L60:
1159:Middlewares/ST/STM32_USB_Host_Library/Core/Src/usbh_ctlreq.c ****       {
 1056              		.loc 1 1159 7 is_stmt 1 view .LVU374
1159:Middlewares/ST/STM32_USB_Host_Library/Core/Src/usbh_ctlreq.c ****       {
 1057              		.loc 1 1159 27 is_stmt 0 view .LVU375
 1058 0196 437E     		ldrb	r3, [r0, #25]	@ zero_extendqisi2
1159:Middlewares/ST/STM32_USB_Host_Library/Core/Src/usbh_ctlreq.c ****       {
 1059              		.loc 1 1159 11 view .LVU376
 1060 0198 0133     		adds	r3, r3, #1
 1061 019a DBB2     		uxtb	r3, r3
1159:Middlewares/ST/STM32_USB_Host_Library/Core/Src/usbh_ctlreq.c ****       {
 1062              		.loc 1 1159 10 view .LVU377
 1063 019c 4376     		strb	r3, [r0, #25]
 1064 019e 022B     		cmp	r3, #2
 1065 01a0 03D8     		bhi	.L86
1162:Middlewares/ST/STM32_USB_Host_Library/Core/Src/usbh_ctlreq.c ****         phost->RequestState = CMD_SEND;
 1066              		.loc 1 1162 9 is_stmt 1 view .LVU378
1162:Middlewares/ST/STM32_USB_Host_Library/Core/Src/usbh_ctlreq.c ****         phost->RequestState = CMD_SEND;
 1067              		.loc 1 1162 30 is_stmt 0 view .LVU379
 1068 01a2 0125     		movs	r5, #1
 1069 01a4 0576     		strb	r5, [r0, #24]
1163:Middlewares/ST/STM32_USB_Host_Library/Core/Src/usbh_ctlreq.c ****       }
 1070              		.loc 1 1163 9 is_stmt 1 view .LVU380
1163:Middlewares/ST/STM32_USB_Host_Library/Core/Src/usbh_ctlreq.c ****       }
 1071              		.loc 1 1163 29 is_stmt 0 view .LVU381
 1072 01a6 8570     		strb	r5, [r0, #2]
 1073 01a8 41E7     		b	.L59
 1074              	.L86:
1167:Middlewares/ST/STM32_USB_Host_Library/Core/Src/usbh_ctlreq.c ****         phost->Control.errorcount = 0U;
 1075              		.loc 1 1167 9 is_stmt 1 view .LVU382
1167:Middlewares/ST/STM32_USB_Host_Library/Core/Src/usbh_ctlreq.c ****         phost->Control.errorcount = 0U;
 1076              		.loc 1 1167 14 is_stmt 0 view .LVU383
 1077 01aa D0F8D433 		ldr	r3, [r0, #980]
1167:Middlewares/ST/STM32_USB_Host_Library/Core/Src/usbh_ctlreq.c ****         phost->Control.errorcount = 0U;
 1078              		.loc 1 1167 9 view .LVU384
 1079 01ae 0621     		movs	r1, #6
 1080 01b0 9847     		blx	r3
 1081              	.LVL95:
1168:Middlewares/ST/STM32_USB_Host_Library/Core/Src/usbh_ctlreq.c ****         USBH_ErrLog("Control error: Device not responding");
 1082              		.loc 1 1168 9 is_stmt 1 view .LVU385
1168:Middlewares/ST/STM32_USB_Host_Library/Core/Src/usbh_ctlreq.c ****         USBH_ErrLog("Control error: Device not responding");
 1083              		.loc 1 1168 35 is_stmt 0 view .LVU386
 1084 01b2 0025     		movs	r5, #0
ARM GAS  /tmp/ccxHAzXl.s 			page 45


 1085 01b4 6576     		strb	r5, [r4, #25]
1169:Middlewares/ST/STM32_USB_Host_Library/Core/Src/usbh_ctlreq.c **** 
 1086              		.loc 1 1169 9 is_stmt 1 view .LVU387
1169:Middlewares/ST/STM32_USB_Host_Library/Core/Src/usbh_ctlreq.c **** 
 1087              		.loc 1 1169 9 view .LVU388
1169:Middlewares/ST/STM32_USB_Host_Library/Core/Src/usbh_ctlreq.c **** 
 1088              		.loc 1 1169 9 view .LVU389
1172:Middlewares/ST/STM32_USB_Host_Library/Core/Src/usbh_ctlreq.c ****         (void)USBH_FreePipe(phost, phost->Control.pipe_in);
 1089              		.loc 1 1172 9 view .LVU390
1172:Middlewares/ST/STM32_USB_Host_Library/Core/Src/usbh_ctlreq.c ****         (void)USBH_FreePipe(phost, phost->Control.pipe_in);
 1090              		.loc 1 1172 15 is_stmt 0 view .LVU391
 1091 01b6 6179     		ldrb	r1, [r4, #5]	@ zero_extendqisi2
 1092 01b8 2046     		mov	r0, r4
 1093 01ba FFF7FEFF 		bl	USBH_FreePipe
 1094              	.LVL96:
1173:Middlewares/ST/STM32_USB_Host_Library/Core/Src/usbh_ctlreq.c **** 
 1095              		.loc 1 1173 9 is_stmt 1 view .LVU392
1173:Middlewares/ST/STM32_USB_Host_Library/Core/Src/usbh_ctlreq.c **** 
 1096              		.loc 1 1173 15 is_stmt 0 view .LVU393
 1097 01be 2179     		ldrb	r1, [r4, #4]	@ zero_extendqisi2
 1098 01c0 2046     		mov	r0, r4
 1099 01c2 FFF7FEFF 		bl	USBH_FreePipe
 1100              	.LVL97:
1175:Middlewares/ST/STM32_USB_Host_Library/Core/Src/usbh_ctlreq.c ****         status = USBH_FAIL;
 1101              		.loc 1 1175 9 is_stmt 1 view .LVU394
1175:Middlewares/ST/STM32_USB_Host_Library/Core/Src/usbh_ctlreq.c ****         status = USBH_FAIL;
 1102              		.loc 1 1175 23 is_stmt 0 view .LVU395
 1103 01c6 2570     		strb	r5, [r4]
1176:Middlewares/ST/STM32_USB_Host_Library/Core/Src/usbh_ctlreq.c ****       }
 1104              		.loc 1 1176 9 is_stmt 1 view .LVU396
 1105              	.LVL98:
1176:Middlewares/ST/STM32_USB_Host_Library/Core/Src/usbh_ctlreq.c ****       }
 1106              		.loc 1 1176 16 is_stmt 0 view .LVU397
 1107 01c8 0225     		movs	r5, #2
 1108 01ca 30E7     		b	.L59
 1109              	.LVL99:
 1110              	.L87:
 821:Middlewares/ST/STM32_USB_Host_Library/Core/Src/usbh_ctlreq.c ****   {
 1111              		.loc 1 821 3 view .LVU398
 1112 01cc 0125     		movs	r5, #1
 1113 01ce 2EE7     		b	.L59
 1114              	.LVL100:
 1115              	.L89:
 928:Middlewares/ST/STM32_USB_Host_Library/Core/Src/usbh_ctlreq.c **** 
 1116              		.loc 1 928 16 view .LVU399
 1117 01d0 0325     		movs	r5, #3
 1118 01d2 2CE7     		b	.L59
 1119              	.L92:
1082:Middlewares/ST/STM32_USB_Host_Library/Core/Src/usbh_ctlreq.c **** 
 1120              		.loc 1 1082 18 view .LVU400
 1121 01d4 0325     		movs	r5, #3
 1122 01d6 2AE7     		b	.L59
 1123              		.cfi_endproc
 1124              	.LFE153:
 1126              		.section	.text.USBH_GetNextDesc,"ax",%progbits
 1127              		.align	1
 1128              		.global	USBH_GetNextDesc
ARM GAS  /tmp/ccxHAzXl.s 			page 46


 1129              		.syntax unified
 1130              		.thumb
 1131              		.thumb_func
 1133              	USBH_GetNextDesc:
 1134              	.LVL101:
 1135              	.LFB151:
 728:Middlewares/ST/STM32_USB_Host_Library/Core/Src/usbh_ctlreq.c ****   USBH_DescHeader_t *pnext;
 1136              		.loc 1 728 1 is_stmt 1 view -0
 1137              		.cfi_startproc
 1138              		@ args = 0, pretend = 0, frame = 0
 1139              		@ frame_needed = 0, uses_anonymous_args = 0
 1140              		@ link register save eliminated.
 729:Middlewares/ST/STM32_USB_Host_Library/Core/Src/usbh_ctlreq.c **** 
 1141              		.loc 1 729 3 view .LVU402
 731:Middlewares/ST/STM32_USB_Host_Library/Core/Src/usbh_ctlreq.c ****   pnext = (USBH_DescHeader_t *)(void *)((uint8_t *)(void *)pbuf + \
 1142              		.loc 1 731 3 view .LVU403
 1143 0000 0B88     		ldrh	r3, [r1]
 731:Middlewares/ST/STM32_USB_Host_Library/Core/Src/usbh_ctlreq.c ****   pnext = (USBH_DescHeader_t *)(void *)((uint8_t *)(void *)pbuf + \
 1144              		.loc 1 731 46 is_stmt 0 view .LVU404
 1145 0002 0278     		ldrb	r2, [r0]	@ zero_extendqisi2
 731:Middlewares/ST/STM32_USB_Host_Library/Core/Src/usbh_ctlreq.c ****   pnext = (USBH_DescHeader_t *)(void *)((uint8_t *)(void *)pbuf + \
 1146              		.loc 1 731 8 view .LVU405
 1147 0004 1344     		add	r3, r3, r2
 1148 0006 0B80     		strh	r3, [r1]	@ movhi
 732:Middlewares/ST/STM32_USB_Host_Library/Core/Src/usbh_ctlreq.c ****                                         ((USBH_DescHeader_t *)(void *)pbuf)->bLength);
 1149              		.loc 1 732 3 is_stmt 1 view .LVU406
 733:Middlewares/ST/STM32_USB_Host_Library/Core/Src/usbh_ctlreq.c **** 
 1150              		.loc 1 733 76 is_stmt 0 view .LVU407
 1151 0008 0378     		ldrb	r3, [r0]	@ zero_extendqisi2
 1152              	.LVL102:
 735:Middlewares/ST/STM32_USB_Host_Library/Core/Src/usbh_ctlreq.c **** }
 1153              		.loc 1 735 3 is_stmt 1 view .LVU408
 736:Middlewares/ST/STM32_USB_Host_Library/Core/Src/usbh_ctlreq.c **** 
 1154              		.loc 1 736 1 is_stmt 0 view .LVU409
 1155 000a 1844     		add	r0, r0, r3
 1156              	.LVL103:
 736:Middlewares/ST/STM32_USB_Host_Library/Core/Src/usbh_ctlreq.c **** 
 1157              		.loc 1 736 1 view .LVU410
 1158 000c 7047     		bx	lr
 1159              		.cfi_endproc
 1160              	.LFE151:
 1162              		.section	.text.USBH_ParseCfgDesc,"ax",%progbits
 1163              		.align	1
 1164              		.syntax unified
 1165              		.thumb
 1166              		.thumb_func
 1168              	USBH_ParseCfgDesc:
 1169              	.LVL104:
 1170              	.LFB147:
 430:Middlewares/ST/STM32_USB_Host_Library/Core/Src/usbh_ctlreq.c ****   USBH_CfgDescTypeDef *cfg_desc = &phost->device.CfgDesc;
 1171              		.loc 1 430 1 is_stmt 1 view -0
 1172              		.cfi_startproc
 1173              		@ args = 0, pretend = 0, frame = 8
 1174              		@ frame_needed = 0, uses_anonymous_args = 0
 430:Middlewares/ST/STM32_USB_Host_Library/Core/Src/usbh_ctlreq.c ****   USBH_CfgDescTypeDef *cfg_desc = &phost->device.CfgDesc;
 1175              		.loc 1 430 1 is_stmt 0 view .LVU412
 1176 0000 2DE9F043 		push	{r4, r5, r6, r7, r8, r9, lr}
ARM GAS  /tmp/ccxHAzXl.s 			page 47


 1177              	.LCFI5:
 1178              		.cfi_def_cfa_offset 28
 1179              		.cfi_offset 4, -28
 1180              		.cfi_offset 5, -24
 1181              		.cfi_offset 6, -20
 1182              		.cfi_offset 7, -16
 1183              		.cfi_offset 8, -12
 1184              		.cfi_offset 9, -8
 1185              		.cfi_offset 14, -4
 1186 0004 83B0     		sub	sp, sp, #12
 1187              	.LCFI6:
 1188              		.cfi_def_cfa_offset 40
 431:Middlewares/ST/STM32_USB_Host_Library/Core/Src/usbh_ctlreq.c ****   USBH_StatusTypeDef           status = USBH_OK;
 1189              		.loc 1 431 3 is_stmt 1 view .LVU413
 1190              	.LVL105:
 432:Middlewares/ST/STM32_USB_Host_Library/Core/Src/usbh_ctlreq.c ****   USBH_InterfaceDescTypeDef    *pif;
 1191              		.loc 1 432 3 view .LVU414
 433:Middlewares/ST/STM32_USB_Host_Library/Core/Src/usbh_ctlreq.c ****   USBH_EpDescTypeDef           *pep;
 1192              		.loc 1 433 3 view .LVU415
 434:Middlewares/ST/STM32_USB_Host_Library/Core/Src/usbh_ctlreq.c ****   USBH_DescHeader_t            *pdesc;
 1193              		.loc 1 434 3 view .LVU416
 435:Middlewares/ST/STM32_USB_Host_Library/Core/Src/usbh_ctlreq.c ****   uint16_t                     ptr;
 1194              		.loc 1 435 3 view .LVU417
 436:Middlewares/ST/STM32_USB_Host_Library/Core/Src/usbh_ctlreq.c ****   uint8_t                      if_ix = 0U;
 1195              		.loc 1 436 3 view .LVU418
 437:Middlewares/ST/STM32_USB_Host_Library/Core/Src/usbh_ctlreq.c ****   uint8_t                      ep_ix = 0U;
 1196              		.loc 1 437 3 view .LVU419
 438:Middlewares/ST/STM32_USB_Host_Library/Core/Src/usbh_ctlreq.c **** 
 1197              		.loc 1 438 3 view .LVU420
 440:Middlewares/ST/STM32_USB_Host_Library/Core/Src/usbh_ctlreq.c ****   {
 1198              		.loc 1 440 3 view .LVU421
 440:Middlewares/ST/STM32_USB_Host_Library/Core/Src/usbh_ctlreq.c ****   {
 1199              		.loc 1 440 6 is_stmt 0 view .LVU422
 1200 0006 0029     		cmp	r1, #0
 1201 0008 00F0AA80 		beq	.L124
 1202 000c 0546     		mov	r5, r0
 1203 000e 0C46     		mov	r4, r1
 445:Middlewares/ST/STM32_USB_Host_Library/Core/Src/usbh_ctlreq.c **** 
 1204              		.loc 1 445 3 is_stmt 1 view .LVU423
 1205              	.LVL106:
 448:Middlewares/ST/STM32_USB_Host_Library/Core/Src/usbh_ctlreq.c ****   cfg_desc->bDescriptorType     = *(uint8_t *)(buf + 1U);
 1206              		.loc 1 448 3 view .LVU424
 448:Middlewares/ST/STM32_USB_Host_Library/Core/Src/usbh_ctlreq.c ****   cfg_desc->bDescriptorType     = *(uint8_t *)(buf + 1U);
 1207              		.loc 1 448 35 is_stmt 0 view .LVU425
 1208 0010 0978     		ldrb	r1, [r1]	@ zero_extendqisi2
 1209              	.LVL107:
 448:Middlewares/ST/STM32_USB_Host_Library/Core/Src/usbh_ctlreq.c ****   cfg_desc->bDescriptorType     = *(uint8_t *)(buf + 1U);
 1210              		.loc 1 448 33 view .LVU426
 1211 0012 80F83813 		strb	r1, [r0, #824]
 449:Middlewares/ST/STM32_USB_Host_Library/Core/Src/usbh_ctlreq.c ****   cfg_desc->wTotalLength        = MIN(((uint16_t) LE16(buf + 2U)), ((uint16_t)USBH_MAX_SIZE_CONFIGU
 1212              		.loc 1 449 3 is_stmt 1 view .LVU427
 449:Middlewares/ST/STM32_USB_Host_Library/Core/Src/usbh_ctlreq.c ****   cfg_desc->wTotalLength        = MIN(((uint16_t) LE16(buf + 2U)), ((uint16_t)USBH_MAX_SIZE_CONFIGU
 1213              		.loc 1 449 33 is_stmt 0 view .LVU428
 1214 0016 6378     		ldrb	r3, [r4, #1]	@ zero_extendqisi2
 1215 0018 80F83933 		strb	r3, [r0, #825]
 450:Middlewares/ST/STM32_USB_Host_Library/Core/Src/usbh_ctlreq.c ****   cfg_desc->bNumInterfaces      = *(uint8_t *)(buf + 4U);
 1216              		.loc 1 450 3 is_stmt 1 view .LVU429
ARM GAS  /tmp/ccxHAzXl.s 			page 48


 450:Middlewares/ST/STM32_USB_Host_Library/Core/Src/usbh_ctlreq.c ****   cfg_desc->bNumInterfaces      = *(uint8_t *)(buf + 4U);
 1217              		.loc 1 450 35 is_stmt 0 view .LVU430
 1218 001c A378     		ldrb	r3, [r4, #2]	@ zero_extendqisi2
 1219 001e E078     		ldrb	r0, [r4, #3]	@ zero_extendqisi2
 1220              	.LVL108:
 450:Middlewares/ST/STM32_USB_Host_Library/Core/Src/usbh_ctlreq.c ****   cfg_desc->bNumInterfaces      = *(uint8_t *)(buf + 4U);
 1221              		.loc 1 450 35 view .LVU431
 1222 0020 43EA0023 		orr	r3, r3, r0, lsl #8
 1223 0024 B3F5807F 		cmp	r3, #256
 1224 0028 28BF     		it	cs
 1225 002a 4FF48073 		movcs	r3, #256
 450:Middlewares/ST/STM32_USB_Host_Library/Core/Src/usbh_ctlreq.c ****   cfg_desc->bNumInterfaces      = *(uint8_t *)(buf + 4U);
 1226              		.loc 1 450 33 view .LVU432
 1227 002e A5F83A33 		strh	r3, [r5, #826]	@ movhi
 451:Middlewares/ST/STM32_USB_Host_Library/Core/Src/usbh_ctlreq.c ****   cfg_desc->bConfigurationValue = *(uint8_t *)(buf + 5U);
 1228              		.loc 1 451 3 is_stmt 1 view .LVU433
 451:Middlewares/ST/STM32_USB_Host_Library/Core/Src/usbh_ctlreq.c ****   cfg_desc->bConfigurationValue = *(uint8_t *)(buf + 5U);
 1229              		.loc 1 451 33 is_stmt 0 view .LVU434
 1230 0032 2379     		ldrb	r3, [r4, #4]	@ zero_extendqisi2
 1231 0034 85F83C33 		strb	r3, [r5, #828]
 452:Middlewares/ST/STM32_USB_Host_Library/Core/Src/usbh_ctlreq.c ****   cfg_desc->iConfiguration      = *(uint8_t *)(buf + 6U);
 1232              		.loc 1 452 3 is_stmt 1 view .LVU435
 452:Middlewares/ST/STM32_USB_Host_Library/Core/Src/usbh_ctlreq.c ****   cfg_desc->iConfiguration      = *(uint8_t *)(buf + 6U);
 1233              		.loc 1 452 33 is_stmt 0 view .LVU436
 1234 0038 6379     		ldrb	r3, [r4, #5]	@ zero_extendqisi2
 1235 003a 85F83D33 		strb	r3, [r5, #829]
 453:Middlewares/ST/STM32_USB_Host_Library/Core/Src/usbh_ctlreq.c ****   cfg_desc->bmAttributes        = *(uint8_t *)(buf + 7U);
 1236              		.loc 1 453 3 is_stmt 1 view .LVU437
 453:Middlewares/ST/STM32_USB_Host_Library/Core/Src/usbh_ctlreq.c ****   cfg_desc->bmAttributes        = *(uint8_t *)(buf + 7U);
 1237              		.loc 1 453 33 is_stmt 0 view .LVU438
 1238 003e A379     		ldrb	r3, [r4, #6]	@ zero_extendqisi2
 1239 0040 85F83E33 		strb	r3, [r5, #830]
 454:Middlewares/ST/STM32_USB_Host_Library/Core/Src/usbh_ctlreq.c ****   cfg_desc->bMaxPower           = *(uint8_t *)(buf + 8U);
 1240              		.loc 1 454 3 is_stmt 1 view .LVU439
 454:Middlewares/ST/STM32_USB_Host_Library/Core/Src/usbh_ctlreq.c ****   cfg_desc->bMaxPower           = *(uint8_t *)(buf + 8U);
 1241              		.loc 1 454 33 is_stmt 0 view .LVU440
 1242 0044 E379     		ldrb	r3, [r4, #7]	@ zero_extendqisi2
 1243 0046 85F83F33 		strb	r3, [r5, #831]
 455:Middlewares/ST/STM32_USB_Host_Library/Core/Src/usbh_ctlreq.c **** 
 1244              		.loc 1 455 3 is_stmt 1 view .LVU441
 455:Middlewares/ST/STM32_USB_Host_Library/Core/Src/usbh_ctlreq.c **** 
 1245              		.loc 1 455 33 is_stmt 0 view .LVU442
 1246 004a 237A     		ldrb	r3, [r4, #8]	@ zero_extendqisi2
 1247 004c 85F84033 		strb	r3, [r5, #832]
 458:Middlewares/ST/STM32_USB_Host_Library/Core/Src/usbh_ctlreq.c ****   {
 1248              		.loc 1 458 3 is_stmt 1 view .LVU443
 458:Middlewares/ST/STM32_USB_Host_Library/Core/Src/usbh_ctlreq.c ****   {
 1249              		.loc 1 458 6 is_stmt 0 view .LVU444
 1250 0050 0929     		cmp	r1, #9
 1251 0052 02D0     		beq	.L112
 460:Middlewares/ST/STM32_USB_Host_Library/Core/Src/usbh_ctlreq.c ****   }
 1252              		.loc 1 460 5 is_stmt 1 view .LVU445
 460:Middlewares/ST/STM32_USB_Host_Library/Core/Src/usbh_ctlreq.c ****   }
 1253              		.loc 1 460 23 is_stmt 0 view .LVU446
 1254 0054 0923     		movs	r3, #9
 1255 0056 85F83833 		strb	r3, [r5, #824]
 1256              	.L112:
ARM GAS  /tmp/ccxHAzXl.s 			page 49


 463:Middlewares/ST/STM32_USB_Host_Library/Core/Src/usbh_ctlreq.c ****   {
 1257              		.loc 1 463 3 is_stmt 1 view .LVU447
 463:Middlewares/ST/STM32_USB_Host_Library/Core/Src/usbh_ctlreq.c ****   {
 1258              		.loc 1 463 6 is_stmt 0 view .LVU448
 1259 005a 092A     		cmp	r2, #9
 1260 005c 40F28280 		bls	.L125
 465:Middlewares/ST/STM32_USB_Host_Library/Core/Src/usbh_ctlreq.c ****     pif = (USBH_InterfaceDescTypeDef *)NULL;
 1261              		.loc 1 465 5 is_stmt 1 view .LVU449
 465:Middlewares/ST/STM32_USB_Host_Library/Core/Src/usbh_ctlreq.c ****     pif = (USBH_InterfaceDescTypeDef *)NULL;
 1262              		.loc 1 465 9 is_stmt 0 view .LVU450
 1263 0060 0923     		movs	r3, #9
 1264 0062 ADF80630 		strh	r3, [sp, #6]	@ movhi
 466:Middlewares/ST/STM32_USB_Host_Library/Core/Src/usbh_ctlreq.c **** 
 1265              		.loc 1 466 5 is_stmt 1 view .LVU451
 1266              	.LVL109:
 468:Middlewares/ST/STM32_USB_Host_Library/Core/Src/usbh_ctlreq.c ****     {
 1267              		.loc 1 468 5 view .LVU452
 437:Middlewares/ST/STM32_USB_Host_Library/Core/Src/usbh_ctlreq.c ****   uint8_t                      ep_ix = 0U;
 1268              		.loc 1 437 32 is_stmt 0 view .LVU453
 1269 0066 0026     		movs	r6, #0
 432:Middlewares/ST/STM32_USB_Host_Library/Core/Src/usbh_ctlreq.c ****   USBH_InterfaceDescTypeDef    *pif;
 1270              		.loc 1 432 32 view .LVU454
 1271 0068 3746     		mov	r7, r6
 1272              	.LVL110:
 1273              	.L114:
 468:Middlewares/ST/STM32_USB_Host_Library/Core/Src/usbh_ctlreq.c ****     {
 1274              		.loc 1 468 46 is_stmt 1 view .LVU455
 1275 006a 012E     		cmp	r6, #1
 1276 006c 6FD8     		bhi	.L122
 468:Middlewares/ST/STM32_USB_Host_Library/Core/Src/usbh_ctlreq.c ****     {
 1277              		.loc 1 468 64 is_stmt 0 discriminator 1 view .LVU456
 1278 006e B5F83A23 		ldrh	r2, [r5, #826]
 468:Middlewares/ST/STM32_USB_Host_Library/Core/Src/usbh_ctlreq.c ****     {
 1279              		.loc 1 468 54 discriminator 1 view .LVU457
 1280 0072 BDF80630 		ldrh	r3, [sp, #6]
 468:Middlewares/ST/STM32_USB_Host_Library/Core/Src/usbh_ctlreq.c ****     {
 1281              		.loc 1 468 46 discriminator 1 view .LVU458
 1282 0076 9A42     		cmp	r2, r3
 1283 0078 69D9     		bls	.L122
 470:Middlewares/ST/STM32_USB_Host_Library/Core/Src/usbh_ctlreq.c ****       if (pdesc->bDescriptorType == USB_DESC_TYPE_INTERFACE)
 1284              		.loc 1 470 7 is_stmt 1 view .LVU459
 470:Middlewares/ST/STM32_USB_Host_Library/Core/Src/usbh_ctlreq.c ****       if (pdesc->bDescriptorType == USB_DESC_TYPE_INTERFACE)
 1285              		.loc 1 470 15 is_stmt 0 view .LVU460
 1286 007a 0DF10601 		add	r1, sp, #6
 1287 007e 2046     		mov	r0, r4
 1288 0080 FFF7FEFF 		bl	USBH_GetNextDesc
 1289              	.LVL111:
 1290 0084 0446     		mov	r4, r0
 1291              	.LVL112:
 471:Middlewares/ST/STM32_USB_Host_Library/Core/Src/usbh_ctlreq.c ****       {
 1292              		.loc 1 471 7 is_stmt 1 view .LVU461
 471:Middlewares/ST/STM32_USB_Host_Library/Core/Src/usbh_ctlreq.c ****       {
 1293              		.loc 1 471 16 is_stmt 0 view .LVU462
 1294 0086 4378     		ldrb	r3, [r0, #1]	@ zero_extendqisi2
 471:Middlewares/ST/STM32_USB_Host_Library/Core/Src/usbh_ctlreq.c ****       {
 1295              		.loc 1 471 10 view .LVU463
 1296 0088 042B     		cmp	r3, #4
ARM GAS  /tmp/ccxHAzXl.s 			page 50


 1297 008a EED1     		bne	.L114
 474:Middlewares/ST/STM32_USB_Host_Library/Core/Src/usbh_ctlreq.c ****         {
 1298              		.loc 1 474 9 is_stmt 1 view .LVU464
 474:Middlewares/ST/STM32_USB_Host_Library/Core/Src/usbh_ctlreq.c ****         {
 1299              		.loc 1 474 18 is_stmt 0 view .LVU465
 1300 008c 0378     		ldrb	r3, [r0]	@ zero_extendqisi2
 474:Middlewares/ST/STM32_USB_Host_Library/Core/Src/usbh_ctlreq.c ****         {
 1301              		.loc 1 474 12 view .LVU466
 1302 008e 092B     		cmp	r3, #9
 1303 0090 01D0     		beq	.L115
 476:Middlewares/ST/STM32_USB_Host_Library/Core/Src/usbh_ctlreq.c ****         }
 1304              		.loc 1 476 11 is_stmt 1 view .LVU467
 476:Middlewares/ST/STM32_USB_Host_Library/Core/Src/usbh_ctlreq.c ****         }
 1305              		.loc 1 476 26 is_stmt 0 view .LVU468
 1306 0092 0923     		movs	r3, #9
 1307 0094 0370     		strb	r3, [r0]
 1308              	.L115:
 479:Middlewares/ST/STM32_USB_Host_Library/Core/Src/usbh_ctlreq.c ****         USBH_ParseInterfaceDesc(pif, (uint8_t *)(void *)pdesc);
 1309              		.loc 1 479 9 is_stmt 1 view .LVU469
 479:Middlewares/ST/STM32_USB_Host_Library/Core/Src/usbh_ctlreq.c ****         USBH_ParseInterfaceDesc(pif, (uint8_t *)(void *)pdesc);
 1310              		.loc 1 479 34 is_stmt 0 view .LVU470
 1311 0096 B146     		mov	r9, r6
 479:Middlewares/ST/STM32_USB_Host_Library/Core/Src/usbh_ctlreq.c ****         USBH_ParseInterfaceDesc(pif, (uint8_t *)(void *)pdesc);
 1312              		.loc 1 479 13 view .LVU471
 1313 0098 05F54E70 		add	r0, r5, #824
 1314              	.LVL113:
 479:Middlewares/ST/STM32_USB_Host_Library/Core/Src/usbh_ctlreq.c ****         USBH_ParseInterfaceDesc(pif, (uint8_t *)(void *)pdesc);
 1315              		.loc 1 479 13 view .LVU472
 1316 009c 1A23     		movs	r3, #26
 1317 009e 06FB03F3 		mul	r3, r6, r3
 1318 00a2 0833     		adds	r3, r3, #8
 1319 00a4 1844     		add	r0, r0, r3
 1320              	.LVL114:
 480:Middlewares/ST/STM32_USB_Host_Library/Core/Src/usbh_ctlreq.c **** 
 1321              		.loc 1 480 9 is_stmt 1 view .LVU473
 1322 00a6 2146     		mov	r1, r4
 1323 00a8 0230     		adds	r0, r0, #2
 1324              	.LVL115:
 480:Middlewares/ST/STM32_USB_Host_Library/Core/Src/usbh_ctlreq.c **** 
 1325              		.loc 1 480 9 is_stmt 0 view .LVU474
 1326 00aa FFF7FEFF 		bl	USBH_ParseInterfaceDesc
 1327              	.LVL116:
 482:Middlewares/ST/STM32_USB_Host_Library/Core/Src/usbh_ctlreq.c ****         pep = (USBH_EpDescTypeDef *)NULL;
 1328              		.loc 1 482 9 is_stmt 1 view .LVU475
 483:Middlewares/ST/STM32_USB_Host_Library/Core/Src/usbh_ctlreq.c **** 
 1329              		.loc 1 483 9 view .LVU476
 485:Middlewares/ST/STM32_USB_Host_Library/Core/Src/usbh_ctlreq.c ****         {
 1330              		.loc 1 485 9 view .LVU477
 482:Middlewares/ST/STM32_USB_Host_Library/Core/Src/usbh_ctlreq.c ****         pep = (USBH_EpDescTypeDef *)NULL;
 1331              		.loc 1 482 15 is_stmt 0 view .LVU478
 1332 00ae 4FF00008 		mov	r8, #0
 485:Middlewares/ST/STM32_USB_Host_Library/Core/Src/usbh_ctlreq.c ****         {
 1333              		.loc 1 485 15 view .LVU479
 1334 00b2 14E0     		b	.L116
 1335              	.LVL117:
 1336              	.L118:
 505:Middlewares/ST/STM32_USB_Host_Library/Core/Src/usbh_ctlreq.c ****             }
ARM GAS  /tmp/ccxHAzXl.s 			page 51


 1337              		.loc 1 505 15 is_stmt 1 view .LVU480
 505:Middlewares/ST/STM32_USB_Host_Library/Core/Src/usbh_ctlreq.c ****             }
 1338              		.loc 1 505 30 is_stmt 0 view .LVU481
 1339 00b4 0723     		movs	r3, #7
 1340 00b6 2370     		strb	r3, [r4]
 1341              	.L119:
 508:Middlewares/ST/STM32_USB_Host_Library/Core/Src/usbh_ctlreq.c **** 
 1342              		.loc 1 508 13 is_stmt 1 view .LVU482
 508:Middlewares/ST/STM32_USB_Host_Library/Core/Src/usbh_ctlreq.c **** 
 1343              		.loc 1 508 17 is_stmt 0 view .LVU483
 1344 00b8 05F54E71 		add	r1, r5, #824
 1345 00bc 08F10108 		add	r8, r8, #1
 1346              	.LVL118:
 508:Middlewares/ST/STM32_USB_Host_Library/Core/Src/usbh_ctlreq.c **** 
 1347              		.loc 1 508 17 view .LVU484
 1348 00c0 1A23     		movs	r3, #26
 1349              	.LVL119:
 508:Middlewares/ST/STM32_USB_Host_Library/Core/Src/usbh_ctlreq.c **** 
 1350              		.loc 1 508 17 view .LVU485
 1351 00c2 03FB09F3 		mul	r3, r3, r9
 1352              	.LVL120:
 508:Middlewares/ST/STM32_USB_Host_Library/Core/Src/usbh_ctlreq.c **** 
 1353              		.loc 1 508 17 view .LVU486
 1354 00c6 03EBC803 		add	r3, r3, r8, lsl #3
 1355 00ca 0833     		adds	r3, r3, #8
 1356 00cc 1944     		add	r1, r1, r3
 1357              	.LVL121:
 510:Middlewares/ST/STM32_USB_Host_Library/Core/Src/usbh_ctlreq.c **** 
 1358              		.loc 1 510 13 is_stmt 1 view .LVU487
 510:Middlewares/ST/STM32_USB_Host_Library/Core/Src/usbh_ctlreq.c **** 
 1359              		.loc 1 510 22 is_stmt 0 view .LVU488
 1360 00ce 2246     		mov	r2, r4
 1361 00d0 0431     		adds	r1, r1, #4
 1362              	.LVL122:
 510:Middlewares/ST/STM32_USB_Host_Library/Core/Src/usbh_ctlreq.c **** 
 1363              		.loc 1 510 22 view .LVU489
 1364 00d2 2846     		mov	r0, r5
 1365              	.LVL123:
 510:Middlewares/ST/STM32_USB_Host_Library/Core/Src/usbh_ctlreq.c **** 
 1366              		.loc 1 510 22 view .LVU490
 1367 00d4 FFF7FEFF 		bl	USBH_ParseEPDesc
 1368              	.LVL124:
 510:Middlewares/ST/STM32_USB_Host_Library/Core/Src/usbh_ctlreq.c **** 
 1369              		.loc 1 510 22 view .LVU491
 1370 00d8 0746     		mov	r7, r0
 1371              	.LVL125:
 512:Middlewares/ST/STM32_USB_Host_Library/Core/Src/usbh_ctlreq.c ****           }
 1372              		.loc 1 512 13 is_stmt 1 view .LVU492
 512:Middlewares/ST/STM32_USB_Host_Library/Core/Src/usbh_ctlreq.c ****           }
 1373              		.loc 1 512 18 is_stmt 0 view .LVU493
 1374 00da 5FFA88F8 		uxtb	r8, r8
 1375              	.LVL126:
 1376              	.L116:
 485:Middlewares/ST/STM32_USB_Host_Library/Core/Src/usbh_ctlreq.c ****         {
 1377              		.loc 1 485 45 is_stmt 1 view .LVU494
 485:Middlewares/ST/STM32_USB_Host_Library/Core/Src/usbh_ctlreq.c ****         {
 1378              		.loc 1 485 28 is_stmt 0 view .LVU495
ARM GAS  /tmp/ccxHAzXl.s 			page 52


 1379 00de 1A23     		movs	r3, #26
 1380              	.LVL127:
 485:Middlewares/ST/STM32_USB_Host_Library/Core/Src/usbh_ctlreq.c ****         {
 1381              		.loc 1 485 28 view .LVU496
 1382 00e0 03FB0953 		mla	r3, r3, r9, r5
 1383              	.LVL128:
 485:Middlewares/ST/STM32_USB_Host_Library/Core/Src/usbh_ctlreq.c ****         {
 1384              		.loc 1 485 28 view .LVU497
 1385 00e4 93F84633 		ldrb	r3, [r3, #838]	@ zero_extendqisi2
 485:Middlewares/ST/STM32_USB_Host_Library/Core/Src/usbh_ctlreq.c ****         {
 1386              		.loc 1 485 45 view .LVU498
 1387 00e8 4345     		cmp	r3, r8
 1388 00ea 2BD9     		bls	.L120
 485:Middlewares/ST/STM32_USB_Host_Library/Core/Src/usbh_ctlreq.c ****         {
 1389              		.loc 1 485 63 discriminator 1 view .LVU499
 1390 00ec B5F83A13 		ldrh	r1, [r5, #826]
 485:Middlewares/ST/STM32_USB_Host_Library/Core/Src/usbh_ctlreq.c ****         {
 1391              		.loc 1 485 53 discriminator 1 view .LVU500
 1392 00f0 BDF80620 		ldrh	r2, [sp, #6]
 485:Middlewares/ST/STM32_USB_Host_Library/Core/Src/usbh_ctlreq.c ****         {
 1393              		.loc 1 485 45 discriminator 1 view .LVU501
 1394 00f4 9142     		cmp	r1, r2
 1395 00f6 25D9     		bls	.L120
 487:Middlewares/ST/STM32_USB_Host_Library/Core/Src/usbh_ctlreq.c **** 
 1396              		.loc 1 487 11 is_stmt 1 view .LVU502
 487:Middlewares/ST/STM32_USB_Host_Library/Core/Src/usbh_ctlreq.c **** 
 1397              		.loc 1 487 19 is_stmt 0 view .LVU503
 1398 00f8 0DF10601 		add	r1, sp, #6
 1399 00fc 2046     		mov	r0, r4
 1400 00fe FFF7FEFF 		bl	USBH_GetNextDesc
 1401              	.LVL129:
 1402 0102 0446     		mov	r4, r0
 1403              	.LVL130:
 489:Middlewares/ST/STM32_USB_Host_Library/Core/Src/usbh_ctlreq.c ****           {
 1404              		.loc 1 489 11 is_stmt 1 view .LVU504
 489:Middlewares/ST/STM32_USB_Host_Library/Core/Src/usbh_ctlreq.c ****           {
 1405              		.loc 1 489 20 is_stmt 0 view .LVU505
 1406 0104 4378     		ldrb	r3, [r0, #1]	@ zero_extendqisi2
 489:Middlewares/ST/STM32_USB_Host_Library/Core/Src/usbh_ctlreq.c ****           {
 1407              		.loc 1 489 14 view .LVU506
 1408 0106 052B     		cmp	r3, #5
 1409 0108 E9D1     		bne	.L116
 492:Middlewares/ST/STM32_USB_Host_Library/Core/Src/usbh_ctlreq.c ****                 ((pif->bInterfaceSubClass == 0x02U) || (pif->bInterfaceSubClass == 0x03U)))
 1410              		.loc 1 492 13 is_stmt 1 view .LVU507
 492:Middlewares/ST/STM32_USB_Host_Library/Core/Src/usbh_ctlreq.c ****                 ((pif->bInterfaceSubClass == 0x02U) || (pif->bInterfaceSubClass == 0x03U)))
 1411              		.loc 1 492 21 is_stmt 0 view .LVU508
 1412 010a 1A23     		movs	r3, #26
 1413              	.LVL131:
 492:Middlewares/ST/STM32_USB_Host_Library/Core/Src/usbh_ctlreq.c ****                 ((pif->bInterfaceSubClass == 0x02U) || (pif->bInterfaceSubClass == 0x03U)))
 1414              		.loc 1 492 21 view .LVU509
 1415 010c 03FB0953 		mla	r3, r3, r9, r5
 1416              	.LVL132:
 492:Middlewares/ST/STM32_USB_Host_Library/Core/Src/usbh_ctlreq.c ****                 ((pif->bInterfaceSubClass == 0x02U) || (pif->bInterfaceSubClass == 0x03U)))
 1417              		.loc 1 492 21 view .LVU510
 1418 0110 93F84733 		ldrb	r3, [r3, #839]	@ zero_extendqisi2
 492:Middlewares/ST/STM32_USB_Host_Library/Core/Src/usbh_ctlreq.c ****                 ((pif->bInterfaceSubClass == 0x02U) || (pif->bInterfaceSubClass == 0x03U)))
 1419              		.loc 1 492 16 view .LVU511
ARM GAS  /tmp/ccxHAzXl.s 			page 53


 1420 0114 012B     		cmp	r3, #1
 1421 0116 CDD1     		bne	.L118
 493:Middlewares/ST/STM32_USB_Host_Library/Core/Src/usbh_ctlreq.c ****             {
 1422              		.loc 1 493 22 discriminator 1 view .LVU512
 1423 0118 1A23     		movs	r3, #26
 1424              	.LVL133:
 493:Middlewares/ST/STM32_USB_Host_Library/Core/Src/usbh_ctlreq.c ****             {
 1425              		.loc 1 493 22 discriminator 1 view .LVU513
 1426 011a 03FB0953 		mla	r3, r3, r9, r5
 1427              	.LVL134:
 493:Middlewares/ST/STM32_USB_Host_Library/Core/Src/usbh_ctlreq.c ****             {
 1428              		.loc 1 493 22 discriminator 1 view .LVU514
 1429 011e 93F84833 		ldrb	r3, [r3, #840]	@ zero_extendqisi2
 493:Middlewares/ST/STM32_USB_Host_Library/Core/Src/usbh_ctlreq.c ****             {
 1430              		.loc 1 493 53 discriminator 1 view .LVU515
 1431 0122 023B     		subs	r3, r3, #2
 1432 0124 DBB2     		uxtb	r3, r3
 492:Middlewares/ST/STM32_USB_Host_Library/Core/Src/usbh_ctlreq.c ****                 ((pif->bInterfaceSubClass == 0x02U) || (pif->bInterfaceSubClass == 0x03U)))
 1433              		.loc 1 492 49 discriminator 1 view .LVU516
 1434 0126 012B     		cmp	r3, #1
 1435 0128 C4D8     		bhi	.L118
 496:Middlewares/ST/STM32_USB_Host_Library/Core/Src/usbh_ctlreq.c ****               {
 1436              		.loc 1 496 15 is_stmt 1 view .LVU517
 496:Middlewares/ST/STM32_USB_Host_Library/Core/Src/usbh_ctlreq.c ****               {
 1437              		.loc 1 496 23 is_stmt 0 view .LVU518
 1438 012a 1A23     		movs	r3, #26
 1439              	.LVL135:
 496:Middlewares/ST/STM32_USB_Host_Library/Core/Src/usbh_ctlreq.c ****               {
 1440              		.loc 1 496 23 view .LVU519
 1441 012c 03FB0953 		mla	r3, r3, r9, r5
 1442              	.LVL136:
 496:Middlewares/ST/STM32_USB_Host_Library/Core/Src/usbh_ctlreq.c ****               {
 1443              		.loc 1 496 23 view .LVU520
 1444 0130 93F84933 		ldrb	r3, [r3, #841]	@ zero_extendqisi2
 496:Middlewares/ST/STM32_USB_Host_Library/Core/Src/usbh_ctlreq.c ****               {
 1445              		.loc 1 496 18 view .LVU521
 1446 0134 002B     		cmp	r3, #0
 1447 0136 BFD1     		bne	.L119
 496:Middlewares/ST/STM32_USB_Host_Library/Core/Src/usbh_ctlreq.c ****               {
 1448              		.loc 1 496 63 discriminator 1 view .LVU522
 1449 0138 0378     		ldrb	r3, [r0]	@ zero_extendqisi2
 496:Middlewares/ST/STM32_USB_Host_Library/Core/Src/usbh_ctlreq.c ****               {
 1450              		.loc 1 496 54 discriminator 1 view .LVU523
 1451 013a 092B     		cmp	r3, #9
 1452 013c BCD0     		beq	.L119
 498:Middlewares/ST/STM32_USB_Host_Library/Core/Src/usbh_ctlreq.c ****               }
 1453              		.loc 1 498 17 is_stmt 1 view .LVU524
 498:Middlewares/ST/STM32_USB_Host_Library/Core/Src/usbh_ctlreq.c ****               }
 1454              		.loc 1 498 32 is_stmt 0 view .LVU525
 1455 013e 0923     		movs	r3, #9
 1456 0140 0370     		strb	r3, [r0]
 1457 0142 B9E7     		b	.L119
 1458              	.LVL137:
 1459              	.L120:
 517:Middlewares/ST/STM32_USB_Host_Library/Core/Src/usbh_ctlreq.c ****         {
 1460              		.loc 1 517 9 is_stmt 1 view .LVU526
 517:Middlewares/ST/STM32_USB_Host_Library/Core/Src/usbh_ctlreq.c ****         {
ARM GAS  /tmp/ccxHAzXl.s 			page 54


 1461              		.loc 1 517 12 is_stmt 0 view .LVU527
 1462 0144 4345     		cmp	r3, r8
 1463 0146 12D8     		bhi	.L126
 522:Middlewares/ST/STM32_USB_Host_Library/Core/Src/usbh_ctlreq.c ****       }
 1464              		.loc 1 522 9 is_stmt 1 view .LVU528
 522:Middlewares/ST/STM32_USB_Host_Library/Core/Src/usbh_ctlreq.c ****       }
 1465              		.loc 1 522 14 is_stmt 0 view .LVU529
 1466 0148 0136     		adds	r6, r6, #1
 1467              	.LVL138:
 522:Middlewares/ST/STM32_USB_Host_Library/Core/Src/usbh_ctlreq.c ****       }
 1468              		.loc 1 522 14 view .LVU530
 1469 014a F6B2     		uxtb	r6, r6
 1470              	.LVL139:
 522:Middlewares/ST/STM32_USB_Host_Library/Core/Src/usbh_ctlreq.c ****       }
 1471              		.loc 1 522 14 view .LVU531
 1472 014c 8DE7     		b	.L114
 1473              	.LVL140:
 1474              	.L122:
 527:Middlewares/ST/STM32_USB_Host_Library/Core/Src/usbh_ctlreq.c ****     {
 1475              		.loc 1 527 5 is_stmt 1 view .LVU532
 527:Middlewares/ST/STM32_USB_Host_Library/Core/Src/usbh_ctlreq.c ****     {
 1476              		.loc 1 527 17 is_stmt 0 view .LVU533
 1477 014e 95F83C33 		ldrb	r3, [r5, #828]	@ zero_extendqisi2
 1478 0152 022B     		cmp	r3, #2
 1479 0154 28BF     		it	cs
 1480 0156 0223     		movcs	r3, #2
 527:Middlewares/ST/STM32_USB_Host_Library/Core/Src/usbh_ctlreq.c ****     {
 1481              		.loc 1 527 8 view .LVU534
 1482 0158 B342     		cmp	r3, r6
 1483 015a 04D9     		bls	.L111
 529:Middlewares/ST/STM32_USB_Host_Library/Core/Src/usbh_ctlreq.c ****     }
 1484              		.loc 1 529 14 view .LVU535
 1485 015c 0327     		movs	r7, #3
 1486              	.LVL141:
 529:Middlewares/ST/STM32_USB_Host_Library/Core/Src/usbh_ctlreq.c ****     }
 1487              		.loc 1 529 14 view .LVU536
 1488 015e 02E0     		b	.L111
 1489              	.LVL142:
 1490              	.L124:
 442:Middlewares/ST/STM32_USB_Host_Library/Core/Src/usbh_ctlreq.c ****   }
 1491              		.loc 1 442 12 view .LVU537
 1492 0160 0227     		movs	r7, #2
 1493 0162 00E0     		b	.L111
 1494              	.LVL143:
 1495              	.L125:
 432:Middlewares/ST/STM32_USB_Host_Library/Core/Src/usbh_ctlreq.c ****   USBH_InterfaceDescTypeDef    *pif;
 1496              		.loc 1 432 32 view .LVU538
 1497 0164 0027     		movs	r7, #0
 1498              	.LVL144:
 1499              	.L111:
 534:Middlewares/ST/STM32_USB_Host_Library/Core/Src/usbh_ctlreq.c **** 
 1500              		.loc 1 534 1 view .LVU539
 1501 0166 3846     		mov	r0, r7
 1502 0168 03B0     		add	sp, sp, #12
 1503              	.LCFI7:
 1504              		.cfi_remember_state
 1505              		.cfi_def_cfa_offset 28
ARM GAS  /tmp/ccxHAzXl.s 			page 55


 1506              		@ sp needed
 1507 016a BDE8F083 		pop	{r4, r5, r6, r7, r8, r9, pc}
 1508              	.LVL145:
 1509              	.L126:
 1510              	.LCFI8:
 1511              		.cfi_restore_state
 519:Middlewares/ST/STM32_USB_Host_Library/Core/Src/usbh_ctlreq.c ****         }
 1512              		.loc 1 519 18 view .LVU540
 1513 016e 0327     		movs	r7, #3
 1514              	.LVL146:
 519:Middlewares/ST/STM32_USB_Host_Library/Core/Src/usbh_ctlreq.c ****         }
 1515              		.loc 1 519 18 view .LVU541
 1516 0170 F9E7     		b	.L111
 1517              		.cfi_endproc
 1518              	.LFE147:
 1520              		.section	.text.USBH_CtlReq,"ax",%progbits
 1521              		.align	1
 1522              		.global	USBH_CtlReq
 1523              		.syntax unified
 1524              		.thumb
 1525              		.thumb_func
 1527              	USBH_CtlReq:
 1528              	.LVL147:
 1529              	.LFB152:
 751:Middlewares/ST/STM32_USB_Host_Library/Core/Src/usbh_ctlreq.c ****   USBH_StatusTypeDef status;
 1530              		.loc 1 751 1 is_stmt 1 view -0
 1531              		.cfi_startproc
 1532              		@ args = 0, pretend = 0, frame = 0
 1533              		@ frame_needed = 0, uses_anonymous_args = 0
 751:Middlewares/ST/STM32_USB_Host_Library/Core/Src/usbh_ctlreq.c ****   USBH_StatusTypeDef status;
 1534              		.loc 1 751 1 is_stmt 0 view .LVU543
 1535 0000 10B5     		push	{r4, lr}
 1536              	.LCFI9:
 1537              		.cfi_def_cfa_offset 8
 1538              		.cfi_offset 4, -8
 1539              		.cfi_offset 14, -4
 1540 0002 0446     		mov	r4, r0
 752:Middlewares/ST/STM32_USB_Host_Library/Core/Src/usbh_ctlreq.c ****   status = USBH_BUSY;
 1541              		.loc 1 752 3 is_stmt 1 view .LVU544
 753:Middlewares/ST/STM32_USB_Host_Library/Core/Src/usbh_ctlreq.c **** 
 1542              		.loc 1 753 3 view .LVU545
 1543              	.LVL148:
 755:Middlewares/ST/STM32_USB_Host_Library/Core/Src/usbh_ctlreq.c ****   {
 1544              		.loc 1 755 3 view .LVU546
 755:Middlewares/ST/STM32_USB_Host_Library/Core/Src/usbh_ctlreq.c ****   {
 1545              		.loc 1 755 16 is_stmt 0 view .LVU547
 1546 0004 8078     		ldrb	r0, [r0, #2]	@ zero_extendqisi2
 1547              	.LVL149:
 755:Middlewares/ST/STM32_USB_Host_Library/Core/Src/usbh_ctlreq.c ****   {
 1548              		.loc 1 755 3 view .LVU548
 1549 0006 0128     		cmp	r0, #1
 1550 0008 03D0     		beq	.L130
 1551 000a 0228     		cmp	r0, #2
 1552 000c 08D0     		beq	.L131
 1553 000e 0120     		movs	r0, #1
 1554              	.LVL150:
 1555              	.L132:
ARM GAS  /tmp/ccxHAzXl.s 			page 56


 805:Middlewares/ST/STM32_USB_Host_Library/Core/Src/usbh_ctlreq.c **** }
 1556              		.loc 1 805 3 is_stmt 1 view .LVU549
 806:Middlewares/ST/STM32_USB_Host_Library/Core/Src/usbh_ctlreq.c **** 
 1557              		.loc 1 806 1 is_stmt 0 view .LVU550
 1558 0010 10BD     		pop	{r4, pc}
 1559              	.LVL151:
 1560              	.L130:
 759:Middlewares/ST/STM32_USB_Host_Library/Core/Src/usbh_ctlreq.c ****       phost->Control.length = length;
 1561              		.loc 1 759 7 is_stmt 1 view .LVU551
 759:Middlewares/ST/STM32_USB_Host_Library/Core/Src/usbh_ctlreq.c ****       phost->Control.length = length;
 1562              		.loc 1 759 27 is_stmt 0 view .LVU552
 1563 0012 A160     		str	r1, [r4, #8]
 760:Middlewares/ST/STM32_USB_Host_Library/Core/Src/usbh_ctlreq.c ****       phost->Control.state = CTRL_SETUP;
 1564              		.loc 1 760 7 is_stmt 1 view .LVU553
 760:Middlewares/ST/STM32_USB_Host_Library/Core/Src/usbh_ctlreq.c ****       phost->Control.state = CTRL_SETUP;
 1565              		.loc 1 760 29 is_stmt 0 view .LVU554
 1566 0014 A281     		strh	r2, [r4, #12]	@ movhi
 761:Middlewares/ST/STM32_USB_Host_Library/Core/Src/usbh_ctlreq.c ****       phost->RequestState = CMD_WAIT;
 1567              		.loc 1 761 7 is_stmt 1 view .LVU555
 761:Middlewares/ST/STM32_USB_Host_Library/Core/Src/usbh_ctlreq.c ****       phost->RequestState = CMD_WAIT;
 1568              		.loc 1 761 28 is_stmt 0 view .LVU556
 1569 0016 0123     		movs	r3, #1
 1570 0018 2376     		strb	r3, [r4, #24]
 762:Middlewares/ST/STM32_USB_Host_Library/Core/Src/usbh_ctlreq.c ****       status = USBH_BUSY;
 1571              		.loc 1 762 7 is_stmt 1 view .LVU557
 762:Middlewares/ST/STM32_USB_Host_Library/Core/Src/usbh_ctlreq.c ****       status = USBH_BUSY;
 1572              		.loc 1 762 27 is_stmt 0 view .LVU558
 1573 001a 0223     		movs	r3, #2
 1574 001c A370     		strb	r3, [r4, #2]
 763:Middlewares/ST/STM32_USB_Host_Library/Core/Src/usbh_ctlreq.c **** 
 1575              		.loc 1 763 7 is_stmt 1 view .LVU559
 773:Middlewares/ST/STM32_USB_Host_Library/Core/Src/usbh_ctlreq.c **** 
 1576              		.loc 1 773 7 view .LVU560
 1577 001e F7E7     		b	.L132
 1578              	.L131:
 776:Middlewares/ST/STM32_USB_Host_Library/Core/Src/usbh_ctlreq.c ****       if ((status == USBH_OK) || (status == USBH_NOT_SUPPORTED))
 1579              		.loc 1 776 7 view .LVU561
 776:Middlewares/ST/STM32_USB_Host_Library/Core/Src/usbh_ctlreq.c ****       if ((status == USBH_OK) || (status == USBH_NOT_SUPPORTED))
 1580              		.loc 1 776 16 is_stmt 0 view .LVU562
 1581 0020 2046     		mov	r0, r4
 1582 0022 FFF7FEFF 		bl	USBH_HandleControl
 1583              	.LVL152:
 777:Middlewares/ST/STM32_USB_Host_Library/Core/Src/usbh_ctlreq.c ****       {
 1584              		.loc 1 777 7 is_stmt 1 view .LVU563
 777:Middlewares/ST/STM32_USB_Host_Library/Core/Src/usbh_ctlreq.c ****       {
 1585              		.loc 1 777 10 is_stmt 0 view .LVU564
 1586 0026 30B1     		cbz	r0, .L133
 777:Middlewares/ST/STM32_USB_Host_Library/Core/Src/usbh_ctlreq.c ****       {
 1587              		.loc 1 777 31 discriminator 1 view .LVU565
 1588 0028 0328     		cmp	r0, #3
 1589 002a 04D0     		beq	.L133
 783:Middlewares/ST/STM32_USB_Host_Library/Core/Src/usbh_ctlreq.c ****       {
 1590              		.loc 1 783 12 is_stmt 1 view .LVU566
 783:Middlewares/ST/STM32_USB_Host_Library/Core/Src/usbh_ctlreq.c ****       {
 1591              		.loc 1 783 15 is_stmt 0 view .LVU567
 1592 002c 0228     		cmp	r0, #2
 1593 002e EFD1     		bne	.L132
ARM GAS  /tmp/ccxHAzXl.s 			page 57


 786:Middlewares/ST/STM32_USB_Host_Library/Core/Src/usbh_ctlreq.c ****       }
 1594              		.loc 1 786 9 is_stmt 1 view .LVU568
 786:Middlewares/ST/STM32_USB_Host_Library/Core/Src/usbh_ctlreq.c ****       }
 1595              		.loc 1 786 29 is_stmt 0 view .LVU569
 1596 0030 0123     		movs	r3, #1
 1597 0032 A370     		strb	r3, [r4, #2]
 1598 0034 ECE7     		b	.L132
 1599              	.L133:
 780:Middlewares/ST/STM32_USB_Host_Library/Core/Src/usbh_ctlreq.c ****         phost->Control.state = CTRL_IDLE;
 1600              		.loc 1 780 9 is_stmt 1 view .LVU570
 780:Middlewares/ST/STM32_USB_Host_Library/Core/Src/usbh_ctlreq.c ****         phost->Control.state = CTRL_IDLE;
 1601              		.loc 1 780 29 is_stmt 0 view .LVU571
 1602 0036 0123     		movs	r3, #1
 1603 0038 A370     		strb	r3, [r4, #2]
 781:Middlewares/ST/STM32_USB_Host_Library/Core/Src/usbh_ctlreq.c ****       }
 1604              		.loc 1 781 9 is_stmt 1 view .LVU572
 781:Middlewares/ST/STM32_USB_Host_Library/Core/Src/usbh_ctlreq.c ****       }
 1605              		.loc 1 781 30 is_stmt 0 view .LVU573
 1606 003a 0023     		movs	r3, #0
 1607 003c 2376     		strb	r3, [r4, #24]
 1608 003e E7E7     		b	.L132
 1609              		.cfi_endproc
 1610              	.LFE152:
 1612              		.section	.text.USBH_GetDescriptor,"ax",%progbits
 1613              		.align	1
 1614              		.global	USBH_GetDescriptor
 1615              		.syntax unified
 1616              		.thumb
 1617              		.thumb_func
 1619              	USBH_GetDescriptor:
 1620              	.LVL153:
 1621              	.LFB140:
 201:Middlewares/ST/STM32_USB_Host_Library/Core/Src/usbh_ctlreq.c ****   if (phost->RequestState == CMD_SEND)
 1622              		.loc 1 201 1 is_stmt 1 view -0
 1623              		.cfi_startproc
 1624              		@ args = 4, pretend = 0, frame = 0
 1625              		@ frame_needed = 0, uses_anonymous_args = 0
 201:Middlewares/ST/STM32_USB_Host_Library/Core/Src/usbh_ctlreq.c ****   if (phost->RequestState == CMD_SEND)
 1626              		.loc 1 201 1 is_stmt 0 view .LVU575
 1627 0000 08B5     		push	{r3, lr}
 1628              	.LCFI10:
 1629              		.cfi_def_cfa_offset 8
 1630              		.cfi_offset 3, -8
 1631              		.cfi_offset 14, -4
 1632 0002 8E46     		mov	lr, r1
 1633 0004 9446     		mov	ip, r2
 1634 0006 1946     		mov	r1, r3
 1635              	.LVL154:
 201:Middlewares/ST/STM32_USB_Host_Library/Core/Src/usbh_ctlreq.c ****   if (phost->RequestState == CMD_SEND)
 1636              		.loc 1 201 1 view .LVU576
 1637 0008 BDF80820 		ldrh	r2, [sp, #8]
 1638              	.LVL155:
 202:Middlewares/ST/STM32_USB_Host_Library/Core/Src/usbh_ctlreq.c ****   {
 1639              		.loc 1 202 3 is_stmt 1 view .LVU577
 202:Middlewares/ST/STM32_USB_Host_Library/Core/Src/usbh_ctlreq.c ****   {
 1640              		.loc 1 202 12 is_stmt 0 view .LVU578
 1641 000c 8378     		ldrb	r3, [r0, #2]	@ zero_extendqisi2
ARM GAS  /tmp/ccxHAzXl.s 			page 58


 1642              	.LVL156:
 202:Middlewares/ST/STM32_USB_Host_Library/Core/Src/usbh_ctlreq.c ****   {
 1643              		.loc 1 202 6 view .LVU579
 1644 000e 012B     		cmp	r3, #1
 1645 0010 02D0     		beq	.L141
 1646              	.L137:
 219:Middlewares/ST/STM32_USB_Host_Library/Core/Src/usbh_ctlreq.c **** }
 1647              		.loc 1 219 3 is_stmt 1 view .LVU580
 219:Middlewares/ST/STM32_USB_Host_Library/Core/Src/usbh_ctlreq.c **** }
 1648              		.loc 1 219 10 is_stmt 0 view .LVU581
 1649 0012 FFF7FEFF 		bl	USBH_CtlReq
 1650              	.LVL157:
 220:Middlewares/ST/STM32_USB_Host_Library/Core/Src/usbh_ctlreq.c **** 
 1651              		.loc 1 220 1 view .LVU582
 1652 0016 08BD     		pop	{r3, pc}
 1653              	.LVL158:
 1654              	.L141:
 204:Middlewares/ST/STM32_USB_Host_Library/Core/Src/usbh_ctlreq.c ****     phost->Control.setup.b.bRequest = USB_REQ_GET_DESCRIPTOR;
 1655              		.loc 1 204 5 is_stmt 1 view .LVU583
 204:Middlewares/ST/STM32_USB_Host_Library/Core/Src/usbh_ctlreq.c ****     phost->Control.setup.b.bRequest = USB_REQ_GET_DESCRIPTOR;
 1656              		.loc 1 204 42 is_stmt 0 view .LVU584
 1657 0018 6EF07F0E 		orn	lr, lr, #127
 1658 001c 80F810E0 		strb	lr, [r0, #16]
 205:Middlewares/ST/STM32_USB_Host_Library/Core/Src/usbh_ctlreq.c ****     phost->Control.setup.b.wValue.w = value_idx;
 1659              		.loc 1 205 5 is_stmt 1 view .LVU585
 205:Middlewares/ST/STM32_USB_Host_Library/Core/Src/usbh_ctlreq.c ****     phost->Control.setup.b.wValue.w = value_idx;
 1660              		.loc 1 205 37 is_stmt 0 view .LVU586
 1661 0020 0623     		movs	r3, #6
 1662 0022 4374     		strb	r3, [r0, #17]
 206:Middlewares/ST/STM32_USB_Host_Library/Core/Src/usbh_ctlreq.c **** 
 1663              		.loc 1 206 5 is_stmt 1 view .LVU587
 206:Middlewares/ST/STM32_USB_Host_Library/Core/Src/usbh_ctlreq.c **** 
 1664              		.loc 1 206 37 is_stmt 0 view .LVU588
 1665 0024 A0F812C0 		strh	ip, [r0, #18]	@ movhi
 208:Middlewares/ST/STM32_USB_Host_Library/Core/Src/usbh_ctlreq.c ****     {
 1666              		.loc 1 208 5 is_stmt 1 view .LVU589
 208:Middlewares/ST/STM32_USB_Host_Library/Core/Src/usbh_ctlreq.c ****     {
 1667              		.loc 1 208 8 is_stmt 0 view .LVU590
 1668 0028 0CF47F4C 		and	ip, ip, #65280
 1669 002c BCF5407F 		cmp	ip, #768
 1670 0030 03D0     		beq	.L142
 214:Middlewares/ST/STM32_USB_Host_Library/Core/Src/usbh_ctlreq.c ****     }
 1671              		.loc 1 214 7 is_stmt 1 view .LVU591
 214:Middlewares/ST/STM32_USB_Host_Library/Core/Src/usbh_ctlreq.c ****     }
 1672              		.loc 1 214 39 is_stmt 0 view .LVU592
 1673 0032 0023     		movs	r3, #0
 1674 0034 8382     		strh	r3, [r0, #20]	@ movhi
 1675              	.L139:
 216:Middlewares/ST/STM32_USB_Host_Library/Core/Src/usbh_ctlreq.c ****   }
 1676              		.loc 1 216 5 is_stmt 1 view .LVU593
 216:Middlewares/ST/STM32_USB_Host_Library/Core/Src/usbh_ctlreq.c ****   }
 1677              		.loc 1 216 38 is_stmt 0 view .LVU594
 1678 0036 C282     		strh	r2, [r0, #22]	@ movhi
 1679 0038 EBE7     		b	.L137
 1680              	.L142:
 210:Middlewares/ST/STM32_USB_Host_Library/Core/Src/usbh_ctlreq.c ****     }
 1681              		.loc 1 210 7 is_stmt 1 view .LVU595
ARM GAS  /tmp/ccxHAzXl.s 			page 59


 210:Middlewares/ST/STM32_USB_Host_Library/Core/Src/usbh_ctlreq.c ****     }
 1682              		.loc 1 210 39 is_stmt 0 view .LVU596
 1683 003a 40F20943 		movw	r3, #1033
 1684 003e 8382     		strh	r3, [r0, #20]	@ movhi
 1685 0040 F9E7     		b	.L139
 1686              		.cfi_endproc
 1687              	.LFE140:
 1689              		.section	.text.USBH_Get_DevDesc,"ax",%progbits
 1690              		.align	1
 1691              		.global	USBH_Get_DevDesc
 1692              		.syntax unified
 1693              		.thumb
 1694              		.thumb_func
 1696              	USBH_Get_DevDesc:
 1697              	.LVL159:
 1698              	.LFB137:
  97:Middlewares/ST/STM32_USB_Host_Library/Core/Src/usbh_ctlreq.c ****   USBH_StatusTypeDef status;
 1699              		.loc 1 97 1 is_stmt 1 view -0
 1700              		.cfi_startproc
 1701              		@ args = 0, pretend = 0, frame = 0
 1702              		@ frame_needed = 0, uses_anonymous_args = 0
  98:Middlewares/ST/STM32_USB_Host_Library/Core/Src/usbh_ctlreq.c **** 
 1703              		.loc 1 98 3 view .LVU598
 100:Middlewares/ST/STM32_USB_Host_Library/Core/Src/usbh_ctlreq.c ****   {
 1704              		.loc 1 100 3 view .LVU599
 100:Middlewares/ST/STM32_USB_Host_Library/Core/Src/usbh_ctlreq.c ****   {
 1705              		.loc 1 100 6 is_stmt 0 view .LVU600
 1706 0000 B1F5007F 		cmp	r1, #512
 1707 0004 15D8     		bhi	.L145
  97:Middlewares/ST/STM32_USB_Host_Library/Core/Src/usbh_ctlreq.c ****   USBH_StatusTypeDef status;
 1708              		.loc 1 97 1 view .LVU601
 1709 0006 70B5     		push	{r4, r5, r6, lr}
 1710              	.LCFI11:
 1711              		.cfi_def_cfa_offset 16
 1712              		.cfi_offset 4, -16
 1713              		.cfi_offset 5, -12
 1714              		.cfi_offset 6, -8
 1715              		.cfi_offset 14, -4
 1716 0008 82B0     		sub	sp, sp, #8
 1717              	.LCFI12:
 1718              		.cfi_def_cfa_offset 24
 1719 000a 0546     		mov	r5, r0
 1720 000c 0C46     		mov	r4, r1
 106:Middlewares/ST/STM32_USB_Host_Library/Core/Src/usbh_ctlreq.c ****                               USB_REQ_RECIPIENT_DEVICE | USB_REQ_TYPE_STANDARD,
 1721              		.loc 1 106 3 is_stmt 1 view .LVU602
 108:Middlewares/ST/STM32_USB_Host_Library/Core/Src/usbh_ctlreq.c **** 
 1722              		.loc 1 108 61 is_stmt 0 view .LVU603
 1723 000e 00F58E76 		add	r6, r0, #284
 106:Middlewares/ST/STM32_USB_Host_Library/Core/Src/usbh_ctlreq.c ****                               USB_REQ_RECIPIENT_DEVICE | USB_REQ_TYPE_STANDARD,
 1724              		.loc 1 106 12 view .LVU604
 1725 0012 0091     		str	r1, [sp]
 1726 0014 3346     		mov	r3, r6
 1727 0016 4FF48072 		mov	r2, #256
 1728 001a 0021     		movs	r1, #0
 1729              	.LVL160:
 106:Middlewares/ST/STM32_USB_Host_Library/Core/Src/usbh_ctlreq.c ****                               USB_REQ_RECIPIENT_DEVICE | USB_REQ_TYPE_STANDARD,
 1730              		.loc 1 106 12 view .LVU605
ARM GAS  /tmp/ccxHAzXl.s 			page 60


 1731 001c FFF7FEFF 		bl	USBH_GetDescriptor
 1732              	.LVL161:
 110:Middlewares/ST/STM32_USB_Host_Library/Core/Src/usbh_ctlreq.c ****   {
 1733              		.loc 1 110 3 is_stmt 1 view .LVU606
 110:Middlewares/ST/STM32_USB_Host_Library/Core/Src/usbh_ctlreq.c ****   {
 1734              		.loc 1 110 6 is_stmt 0 view .LVU607
 1735 0020 08B1     		cbz	r0, .L150
 1736              	.L144:
 1737              	.LVL162:
 117:Middlewares/ST/STM32_USB_Host_Library/Core/Src/usbh_ctlreq.c **** 
 1738              		.loc 1 117 1 view .LVU608
 1739 0022 02B0     		add	sp, sp, #8
 1740              	.LCFI13:
 1741              		.cfi_remember_state
 1742              		.cfi_def_cfa_offset 16
 1743              		@ sp needed
 1744 0024 70BD     		pop	{r4, r5, r6, pc}
 1745              	.LVL163:
 1746              	.L150:
 1747              	.LCFI14:
 1748              		.cfi_restore_state
 113:Middlewares/ST/STM32_USB_Host_Library/Core/Src/usbh_ctlreq.c ****   }
 1749              		.loc 1 113 5 is_stmt 1 view .LVU609
 113:Middlewares/ST/STM32_USB_Host_Library/Core/Src/usbh_ctlreq.c ****   }
 1750              		.loc 1 113 14 is_stmt 0 view .LVU610
 1751 0026 2246     		mov	r2, r4
 1752 0028 3146     		mov	r1, r6
 1753 002a 2846     		mov	r0, r5
 1754              	.LVL164:
 113:Middlewares/ST/STM32_USB_Host_Library/Core/Src/usbh_ctlreq.c ****   }
 1755              		.loc 1 113 14 view .LVU611
 1756 002c FFF7FEFF 		bl	USBH_ParseDevDesc
 1757              	.LVL165:
 113:Middlewares/ST/STM32_USB_Host_Library/Core/Src/usbh_ctlreq.c ****   }
 1758              		.loc 1 113 14 view .LVU612
 1759 0030 F7E7     		b	.L144
 1760              	.LVL166:
 1761              	.L145:
 1762              	.LCFI15:
 1763              		.cfi_def_cfa_offset 0
 1764              		.cfi_restore 4
 1765              		.cfi_restore 5
 1766              		.cfi_restore 6
 1767              		.cfi_restore 14
 103:Middlewares/ST/STM32_USB_Host_Library/Core/Src/usbh_ctlreq.c ****   }
 1768              		.loc 1 103 12 view .LVU613
 1769 0032 0320     		movs	r0, #3
 1770              	.LVL167:
 117:Middlewares/ST/STM32_USB_Host_Library/Core/Src/usbh_ctlreq.c **** 
 1771              		.loc 1 117 1 view .LVU614
 1772 0034 7047     		bx	lr
 1773              		.cfi_endproc
 1774              	.LFE137:
 1776              		.section	.text.USBH_Get_CfgDesc,"ax",%progbits
 1777              		.align	1
 1778              		.global	USBH_Get_CfgDesc
 1779              		.syntax unified
ARM GAS  /tmp/ccxHAzXl.s 			page 61


 1780              		.thumb
 1781              		.thumb_func
 1783              	USBH_Get_CfgDesc:
 1784              	.LVL168:
 1785              	.LFB138:
 130:Middlewares/ST/STM32_USB_Host_Library/Core/Src/usbh_ctlreq.c ****   USBH_StatusTypeDef status;
 1786              		.loc 1 130 1 is_stmt 1 view -0
 1787              		.cfi_startproc
 1788              		@ args = 0, pretend = 0, frame = 0
 1789              		@ frame_needed = 0, uses_anonymous_args = 0
 131:Middlewares/ST/STM32_USB_Host_Library/Core/Src/usbh_ctlreq.c ****   uint8_t *pData = phost->device.CfgDesc_Raw;
 1790              		.loc 1 131 3 view .LVU616
 132:Middlewares/ST/STM32_USB_Host_Library/Core/Src/usbh_ctlreq.c **** 
 1791              		.loc 1 132 3 view .LVU617
 134:Middlewares/ST/STM32_USB_Host_Library/Core/Src/usbh_ctlreq.c ****   {
 1792              		.loc 1 134 3 view .LVU618
 134:Middlewares/ST/STM32_USB_Host_Library/Core/Src/usbh_ctlreq.c ****   {
 1793              		.loc 1 134 6 is_stmt 0 view .LVU619
 1794 0000 B1F5807F 		cmp	r1, #256
 1795 0004 15D8     		bhi	.L153
 130:Middlewares/ST/STM32_USB_Host_Library/Core/Src/usbh_ctlreq.c ****   USBH_StatusTypeDef status;
 1796              		.loc 1 130 1 view .LVU620
 1797 0006 70B5     		push	{r4, r5, r6, lr}
 1798              	.LCFI16:
 1799              		.cfi_def_cfa_offset 16
 1800              		.cfi_offset 4, -16
 1801              		.cfi_offset 5, -12
 1802              		.cfi_offset 6, -8
 1803              		.cfi_offset 14, -4
 1804 0008 82B0     		sub	sp, sp, #8
 1805              	.LCFI17:
 1806              		.cfi_def_cfa_offset 24
 1807 000a 0446     		mov	r4, r0
 1808 000c 0D46     		mov	r5, r1
 1809 000e 00F11C06 		add	r6, r0, #28
 1810              	.LVL169:
 140:Middlewares/ST/STM32_USB_Host_Library/Core/Src/usbh_ctlreq.c ****                               USB_DESC_CONFIGURATION, pData, length);
 1811              		.loc 1 140 3 is_stmt 1 view .LVU621
 140:Middlewares/ST/STM32_USB_Host_Library/Core/Src/usbh_ctlreq.c ****                               USB_DESC_CONFIGURATION, pData, length);
 1812              		.loc 1 140 12 is_stmt 0 view .LVU622
 1813 0012 0091     		str	r1, [sp]
 1814 0014 3346     		mov	r3, r6
 1815 0016 4FF40072 		mov	r2, #512
 1816 001a 0021     		movs	r1, #0
 1817              	.LVL170:
 140:Middlewares/ST/STM32_USB_Host_Library/Core/Src/usbh_ctlreq.c ****                               USB_DESC_CONFIGURATION, pData, length);
 1818              		.loc 1 140 12 view .LVU623
 1819 001c FFF7FEFF 		bl	USBH_GetDescriptor
 1820              	.LVL171:
 143:Middlewares/ST/STM32_USB_Host_Library/Core/Src/usbh_ctlreq.c ****   {
 1821              		.loc 1 143 3 is_stmt 1 view .LVU624
 143:Middlewares/ST/STM32_USB_Host_Library/Core/Src/usbh_ctlreq.c ****   {
 1822              		.loc 1 143 6 is_stmt 0 view .LVU625
 1823 0020 08B1     		cbz	r0, .L158
 1824              	.L152:
 1825              	.LVL172:
 150:Middlewares/ST/STM32_USB_Host_Library/Core/Src/usbh_ctlreq.c **** 
ARM GAS  /tmp/ccxHAzXl.s 			page 62


 1826              		.loc 1 150 1 view .LVU626
 1827 0022 02B0     		add	sp, sp, #8
 1828              	.LCFI18:
 1829              		.cfi_remember_state
 1830              		.cfi_def_cfa_offset 16
 1831              		@ sp needed
 1832 0024 70BD     		pop	{r4, r5, r6, pc}
 1833              	.LVL173:
 1834              	.L158:
 1835              	.LCFI19:
 1836              		.cfi_restore_state
 146:Middlewares/ST/STM32_USB_Host_Library/Core/Src/usbh_ctlreq.c ****   }
 1837              		.loc 1 146 5 is_stmt 1 view .LVU627
 146:Middlewares/ST/STM32_USB_Host_Library/Core/Src/usbh_ctlreq.c ****   }
 1838              		.loc 1 146 14 is_stmt 0 view .LVU628
 1839 0026 2A46     		mov	r2, r5
 1840 0028 3146     		mov	r1, r6
 1841 002a 2046     		mov	r0, r4
 1842              	.LVL174:
 146:Middlewares/ST/STM32_USB_Host_Library/Core/Src/usbh_ctlreq.c ****   }
 1843              		.loc 1 146 14 view .LVU629
 1844 002c FFF7FEFF 		bl	USBH_ParseCfgDesc
 1845              	.LVL175:
 146:Middlewares/ST/STM32_USB_Host_Library/Core/Src/usbh_ctlreq.c ****   }
 1846              		.loc 1 146 14 view .LVU630
 1847 0030 F7E7     		b	.L152
 1848              	.LVL176:
 1849              	.L153:
 1850              	.LCFI20:
 1851              		.cfi_def_cfa_offset 0
 1852              		.cfi_restore 4
 1853              		.cfi_restore 5
 1854              		.cfi_restore 6
 1855              		.cfi_restore 14
 137:Middlewares/ST/STM32_USB_Host_Library/Core/Src/usbh_ctlreq.c ****   }
 1856              		.loc 1 137 12 view .LVU631
 1857 0032 0320     		movs	r0, #3
 1858              	.LVL177:
 150:Middlewares/ST/STM32_USB_Host_Library/Core/Src/usbh_ctlreq.c **** 
 1859              		.loc 1 150 1 view .LVU632
 1860 0034 7047     		bx	lr
 1861              		.cfi_endproc
 1862              	.LFE138:
 1864              		.section	.text.USBH_Get_StringDesc,"ax",%progbits
 1865              		.align	1
 1866              		.global	USBH_Get_StringDesc
 1867              		.syntax unified
 1868              		.thumb
 1869              		.thumb_func
 1871              	USBH_Get_StringDesc:
 1872              	.LVL178:
 1873              	.LFB139:
 164:Middlewares/ST/STM32_USB_Host_Library/Core/Src/usbh_ctlreq.c ****   USBH_StatusTypeDef status;
 1874              		.loc 1 164 1 is_stmt 1 view -0
 1875              		.cfi_startproc
 1876              		@ args = 0, pretend = 0, frame = 0
 1877              		@ frame_needed = 0, uses_anonymous_args = 0
ARM GAS  /tmp/ccxHAzXl.s 			page 63


 164:Middlewares/ST/STM32_USB_Host_Library/Core/Src/usbh_ctlreq.c ****   USBH_StatusTypeDef status;
 1878              		.loc 1 164 1 is_stmt 0 view .LVU634
 1879 0000 F0B5     		push	{r4, r5, r6, r7, lr}
 1880              	.LCFI21:
 1881              		.cfi_def_cfa_offset 20
 1882              		.cfi_offset 4, -20
 1883              		.cfi_offset 5, -16
 1884              		.cfi_offset 6, -12
 1885              		.cfi_offset 7, -8
 1886              		.cfi_offset 14, -4
 1887 0002 83B0     		sub	sp, sp, #12
 1888              	.LCFI22:
 1889              		.cfi_def_cfa_offset 32
 165:Middlewares/ST/STM32_USB_Host_Library/Core/Src/usbh_ctlreq.c **** 
 1890              		.loc 1 165 3 is_stmt 1 view .LVU635
 167:Middlewares/ST/STM32_USB_Host_Library/Core/Src/usbh_ctlreq.c ****   {
 1891              		.loc 1 167 3 view .LVU636
 167:Middlewares/ST/STM32_USB_Host_Library/Core/Src/usbh_ctlreq.c ****   {
 1892              		.loc 1 167 6 is_stmt 0 view .LVU637
 1893 0004 B3F5007F 		cmp	r3, #512
 1894 0008 16D8     		bhi	.L161
 1895 000a 1546     		mov	r5, r2
 1896 000c 1C46     		mov	r4, r3
 167:Middlewares/ST/STM32_USB_Host_Library/Core/Src/usbh_ctlreq.c ****   {
 1897              		.loc 1 167 45 discriminator 1 view .LVU638
 1898 000e AAB1     		cbz	r2, .L162
 173:Middlewares/ST/STM32_USB_Host_Library/Core/Src/usbh_ctlreq.c ****                               USB_REQ_RECIPIENT_DEVICE | USB_REQ_TYPE_STANDARD,
 1899              		.loc 1 173 3 is_stmt 1 view .LVU639
 176:Middlewares/ST/STM32_USB_Host_Library/Core/Src/usbh_ctlreq.c **** 
 1900              		.loc 1 176 44 is_stmt 0 view .LVU640
 1901 0010 00F58E77 		add	r7, r0, #284
 173:Middlewares/ST/STM32_USB_Host_Library/Core/Src/usbh_ctlreq.c ****                               USB_REQ_RECIPIENT_DEVICE | USB_REQ_TYPE_STANDARD,
 1902              		.loc 1 173 12 view .LVU641
 1903 0014 0093     		str	r3, [sp]
 1904 0016 3B46     		mov	r3, r7
 1905              	.LVL179:
 173:Middlewares/ST/STM32_USB_Host_Library/Core/Src/usbh_ctlreq.c ****                               USB_REQ_RECIPIENT_DEVICE | USB_REQ_TYPE_STANDARD,
 1906              		.loc 1 173 12 view .LVU642
 1907 0018 41F44072 		orr	r2, r1, #768
 1908              	.LVL180:
 173:Middlewares/ST/STM32_USB_Host_Library/Core/Src/usbh_ctlreq.c ****                               USB_REQ_RECIPIENT_DEVICE | USB_REQ_TYPE_STANDARD,
 1909              		.loc 1 173 12 view .LVU643
 1910 001c 0021     		movs	r1, #0
 1911              	.LVL181:
 173:Middlewares/ST/STM32_USB_Host_Library/Core/Src/usbh_ctlreq.c ****                               USB_REQ_RECIPIENT_DEVICE | USB_REQ_TYPE_STANDARD,
 1912              		.loc 1 173 12 view .LVU644
 1913 001e FFF7FEFF 		bl	USBH_GetDescriptor
 1914              	.LVL182:
 178:Middlewares/ST/STM32_USB_Host_Library/Core/Src/usbh_ctlreq.c ****   {
 1915              		.loc 1 178 3 is_stmt 1 view .LVU645
 178:Middlewares/ST/STM32_USB_Host_Library/Core/Src/usbh_ctlreq.c ****   {
 1916              		.loc 1 178 6 is_stmt 0 view .LVU646
 1917 0022 0646     		mov	r6, r0
 1918 0024 10B1     		cbz	r0, .L164
 1919              	.LVL183:
 1920              	.L160:
 185:Middlewares/ST/STM32_USB_Host_Library/Core/Src/usbh_ctlreq.c **** 
ARM GAS  /tmp/ccxHAzXl.s 			page 64


 1921              		.loc 1 185 1 view .LVU647
 1922 0026 3046     		mov	r0, r6
 1923 0028 03B0     		add	sp, sp, #12
 1924              	.LCFI23:
 1925              		.cfi_remember_state
 1926              		.cfi_def_cfa_offset 20
 1927              		@ sp needed
 1928 002a F0BD     		pop	{r4, r5, r6, r7, pc}
 1929              	.LVL184:
 1930              	.L164:
 1931              	.LCFI24:
 1932              		.cfi_restore_state
 181:Middlewares/ST/STM32_USB_Host_Library/Core/Src/usbh_ctlreq.c ****   }
 1933              		.loc 1 181 5 is_stmt 1 view .LVU648
 1934 002c 2246     		mov	r2, r4
 1935 002e 2946     		mov	r1, r5
 1936 0030 3846     		mov	r0, r7
 1937              	.LVL185:
 181:Middlewares/ST/STM32_USB_Host_Library/Core/Src/usbh_ctlreq.c ****   }
 1938              		.loc 1 181 5 is_stmt 0 view .LVU649
 1939 0032 FFF7FEFF 		bl	USBH_ParseStringDesc
 1940              	.LVL186:
 1941 0036 F6E7     		b	.L160
 1942              	.LVL187:
 1943              	.L161:
 170:Middlewares/ST/STM32_USB_Host_Library/Core/Src/usbh_ctlreq.c ****   }
 1944              		.loc 1 170 12 view .LVU650
 1945 0038 0326     		movs	r6, #3
 1946 003a F4E7     		b	.L160
 1947              	.L162:
 170:Middlewares/ST/STM32_USB_Host_Library/Core/Src/usbh_ctlreq.c ****   }
 1948              		.loc 1 170 12 view .LVU651
 1949 003c 0326     		movs	r6, #3
 1950 003e F2E7     		b	.L160
 1951              		.cfi_endproc
 1952              	.LFE139:
 1954              		.section	.text.USBH_SetAddress,"ax",%progbits
 1955              		.align	1
 1956              		.global	USBH_SetAddress
 1957              		.syntax unified
 1958              		.thumb
 1959              		.thumb_func
 1961              	USBH_SetAddress:
 1962              	.LVL188:
 1963              	.LFB141:
 232:Middlewares/ST/STM32_USB_Host_Library/Core/Src/usbh_ctlreq.c ****   if (phost->RequestState == CMD_SEND)
 1964              		.loc 1 232 1 is_stmt 1 view -0
 1965              		.cfi_startproc
 1966              		@ args = 0, pretend = 0, frame = 0
 1967              		@ frame_needed = 0, uses_anonymous_args = 0
 232:Middlewares/ST/STM32_USB_Host_Library/Core/Src/usbh_ctlreq.c ****   if (phost->RequestState == CMD_SEND)
 1968              		.loc 1 232 1 is_stmt 0 view .LVU653
 1969 0000 08B5     		push	{r3, lr}
 1970              	.LCFI25:
 1971              		.cfi_def_cfa_offset 8
 1972              		.cfi_offset 3, -8
 1973              		.cfi_offset 14, -4
ARM GAS  /tmp/ccxHAzXl.s 			page 65


 233:Middlewares/ST/STM32_USB_Host_Library/Core/Src/usbh_ctlreq.c ****   {
 1974              		.loc 1 233 3 is_stmt 1 view .LVU654
 233:Middlewares/ST/STM32_USB_Host_Library/Core/Src/usbh_ctlreq.c ****   {
 1975              		.loc 1 233 12 is_stmt 0 view .LVU655
 1976 0002 8378     		ldrb	r3, [r0, #2]	@ zero_extendqisi2
 233:Middlewares/ST/STM32_USB_Host_Library/Core/Src/usbh_ctlreq.c ****   {
 1977              		.loc 1 233 6 view .LVU656
 1978 0004 012B     		cmp	r3, #1
 1979 0006 04D0     		beq	.L168
 1980              	.L166:
 245:Middlewares/ST/STM32_USB_Host_Library/Core/Src/usbh_ctlreq.c **** }
 1981              		.loc 1 245 3 is_stmt 1 view .LVU657
 245:Middlewares/ST/STM32_USB_Host_Library/Core/Src/usbh_ctlreq.c **** }
 1982              		.loc 1 245 10 is_stmt 0 view .LVU658
 1983 0008 0022     		movs	r2, #0
 1984 000a 1146     		mov	r1, r2
 1985              	.LVL189:
 245:Middlewares/ST/STM32_USB_Host_Library/Core/Src/usbh_ctlreq.c **** }
 1986              		.loc 1 245 10 view .LVU659
 1987 000c FFF7FEFF 		bl	USBH_CtlReq
 1988              	.LVL190:
 246:Middlewares/ST/STM32_USB_Host_Library/Core/Src/usbh_ctlreq.c **** 
 1989              		.loc 1 246 1 view .LVU660
 1990 0010 08BD     		pop	{r3, pc}
 1991              	.LVL191:
 1992              	.L168:
 235:Middlewares/ST/STM32_USB_Host_Library/Core/Src/usbh_ctlreq.c ****                                            USB_REQ_TYPE_STANDARD;
 1993              		.loc 1 235 5 is_stmt 1 view .LVU661
 235:Middlewares/ST/STM32_USB_Host_Library/Core/Src/usbh_ctlreq.c ****                                            USB_REQ_TYPE_STANDARD;
 1994              		.loc 1 235 42 is_stmt 0 view .LVU662
 1995 0012 0023     		movs	r3, #0
 1996 0014 0374     		strb	r3, [r0, #16]
 238:Middlewares/ST/STM32_USB_Host_Library/Core/Src/usbh_ctlreq.c **** 
 1997              		.loc 1 238 5 is_stmt 1 view .LVU663
 238:Middlewares/ST/STM32_USB_Host_Library/Core/Src/usbh_ctlreq.c **** 
 1998              		.loc 1 238 37 is_stmt 0 view .LVU664
 1999 0016 0522     		movs	r2, #5
 2000 0018 4274     		strb	r2, [r0, #17]
 240:Middlewares/ST/STM32_USB_Host_Library/Core/Src/usbh_ctlreq.c ****     phost->Control.setup.b.wIndex.w = 0U;
 2001              		.loc 1 240 5 is_stmt 1 view .LVU665
 240:Middlewares/ST/STM32_USB_Host_Library/Core/Src/usbh_ctlreq.c ****     phost->Control.setup.b.wIndex.w = 0U;
 2002              		.loc 1 240 37 is_stmt 0 view .LVU666
 2003 001a 4182     		strh	r1, [r0, #18]	@ movhi
 241:Middlewares/ST/STM32_USB_Host_Library/Core/Src/usbh_ctlreq.c ****     phost->Control.setup.b.wLength.w = 0U;
 2004              		.loc 1 241 5 is_stmt 1 view .LVU667
 241:Middlewares/ST/STM32_USB_Host_Library/Core/Src/usbh_ctlreq.c ****     phost->Control.setup.b.wLength.w = 0U;
 2005              		.loc 1 241 37 is_stmt 0 view .LVU668
 2006 001c 8382     		strh	r3, [r0, #20]	@ movhi
 242:Middlewares/ST/STM32_USB_Host_Library/Core/Src/usbh_ctlreq.c ****   }
 2007              		.loc 1 242 5 is_stmt 1 view .LVU669
 242:Middlewares/ST/STM32_USB_Host_Library/Core/Src/usbh_ctlreq.c ****   }
 2008              		.loc 1 242 38 is_stmt 0 view .LVU670
 2009 001e C382     		strh	r3, [r0, #22]	@ movhi
 2010 0020 F2E7     		b	.L166
 2011              		.cfi_endproc
 2012              	.LFE141:
 2014              		.section	.text.USBH_SetCfg,"ax",%progbits
ARM GAS  /tmp/ccxHAzXl.s 			page 66


 2015              		.align	1
 2016              		.global	USBH_SetCfg
 2017              		.syntax unified
 2018              		.thumb
 2019              		.thumb_func
 2021              	USBH_SetCfg:
 2022              	.LVL192:
 2023              	.LFB142:
 257:Middlewares/ST/STM32_USB_Host_Library/Core/Src/usbh_ctlreq.c ****   if (phost->RequestState == CMD_SEND)
 2024              		.loc 1 257 1 is_stmt 1 view -0
 2025              		.cfi_startproc
 2026              		@ args = 0, pretend = 0, frame = 0
 2027              		@ frame_needed = 0, uses_anonymous_args = 0
 257:Middlewares/ST/STM32_USB_Host_Library/Core/Src/usbh_ctlreq.c ****   if (phost->RequestState == CMD_SEND)
 2028              		.loc 1 257 1 is_stmt 0 view .LVU672
 2029 0000 08B5     		push	{r3, lr}
 2030              	.LCFI26:
 2031              		.cfi_def_cfa_offset 8
 2032              		.cfi_offset 3, -8
 2033              		.cfi_offset 14, -4
 258:Middlewares/ST/STM32_USB_Host_Library/Core/Src/usbh_ctlreq.c ****   {
 2034              		.loc 1 258 3 is_stmt 1 view .LVU673
 258:Middlewares/ST/STM32_USB_Host_Library/Core/Src/usbh_ctlreq.c ****   {
 2035              		.loc 1 258 12 is_stmt 0 view .LVU674
 2036 0002 8378     		ldrb	r3, [r0, #2]	@ zero_extendqisi2
 258:Middlewares/ST/STM32_USB_Host_Library/Core/Src/usbh_ctlreq.c ****   {
 2037              		.loc 1 258 6 view .LVU675
 2038 0004 012B     		cmp	r3, #1
 2039 0006 04D0     		beq	.L172
 2040              	.L170:
 269:Middlewares/ST/STM32_USB_Host_Library/Core/Src/usbh_ctlreq.c **** }
 2041              		.loc 1 269 3 is_stmt 1 view .LVU676
 269:Middlewares/ST/STM32_USB_Host_Library/Core/Src/usbh_ctlreq.c **** }
 2042              		.loc 1 269 10 is_stmt 0 view .LVU677
 2043 0008 0022     		movs	r2, #0
 2044 000a 1146     		mov	r1, r2
 2045              	.LVL193:
 269:Middlewares/ST/STM32_USB_Host_Library/Core/Src/usbh_ctlreq.c **** }
 2046              		.loc 1 269 10 view .LVU678
 2047 000c FFF7FEFF 		bl	USBH_CtlReq
 2048              	.LVL194:
 270:Middlewares/ST/STM32_USB_Host_Library/Core/Src/usbh_ctlreq.c **** 
 2049              		.loc 1 270 1 view .LVU679
 2050 0010 08BD     		pop	{r3, pc}
 2051              	.LVL195:
 2052              	.L172:
 260:Middlewares/ST/STM32_USB_Host_Library/Core/Src/usbh_ctlreq.c ****                                            | USB_REQ_TYPE_STANDARD;
 2053              		.loc 1 260 5 is_stmt 1 view .LVU680
 260:Middlewares/ST/STM32_USB_Host_Library/Core/Src/usbh_ctlreq.c ****                                            | USB_REQ_TYPE_STANDARD;
 2054              		.loc 1 260 42 is_stmt 0 view .LVU681
 2055 0012 0023     		movs	r3, #0
 2056 0014 0374     		strb	r3, [r0, #16]
 263:Middlewares/ST/STM32_USB_Host_Library/Core/Src/usbh_ctlreq.c ****     phost->Control.setup.b.wValue.w = cfg_idx;
 2057              		.loc 1 263 5 is_stmt 1 view .LVU682
 263:Middlewares/ST/STM32_USB_Host_Library/Core/Src/usbh_ctlreq.c ****     phost->Control.setup.b.wValue.w = cfg_idx;
 2058              		.loc 1 263 37 is_stmt 0 view .LVU683
 2059 0016 0922     		movs	r2, #9
ARM GAS  /tmp/ccxHAzXl.s 			page 67


 2060 0018 4274     		strb	r2, [r0, #17]
 264:Middlewares/ST/STM32_USB_Host_Library/Core/Src/usbh_ctlreq.c ****     phost->Control.setup.b.wIndex.w = 0U;
 2061              		.loc 1 264 5 is_stmt 1 view .LVU684
 264:Middlewares/ST/STM32_USB_Host_Library/Core/Src/usbh_ctlreq.c ****     phost->Control.setup.b.wIndex.w = 0U;
 2062              		.loc 1 264 37 is_stmt 0 view .LVU685
 2063 001a 4182     		strh	r1, [r0, #18]	@ movhi
 265:Middlewares/ST/STM32_USB_Host_Library/Core/Src/usbh_ctlreq.c ****     phost->Control.setup.b.wLength.w = 0U;
 2064              		.loc 1 265 5 is_stmt 1 view .LVU686
 265:Middlewares/ST/STM32_USB_Host_Library/Core/Src/usbh_ctlreq.c ****     phost->Control.setup.b.wLength.w = 0U;
 2065              		.loc 1 265 37 is_stmt 0 view .LVU687
 2066 001c 8382     		strh	r3, [r0, #20]	@ movhi
 266:Middlewares/ST/STM32_USB_Host_Library/Core/Src/usbh_ctlreq.c ****   }
 2067              		.loc 1 266 5 is_stmt 1 view .LVU688
 266:Middlewares/ST/STM32_USB_Host_Library/Core/Src/usbh_ctlreq.c ****   }
 2068              		.loc 1 266 38 is_stmt 0 view .LVU689
 2069 001e C382     		strh	r3, [r0, #22]	@ movhi
 2070 0020 F2E7     		b	.L170
 2071              		.cfi_endproc
 2072              	.LFE142:
 2074              		.section	.text.USBH_SetInterface,"ax",%progbits
 2075              		.align	1
 2076              		.global	USBH_SetInterface
 2077              		.syntax unified
 2078              		.thumb
 2079              		.thumb_func
 2081              	USBH_SetInterface:
 2082              	.LVL196:
 2083              	.LFB143:
 281:Middlewares/ST/STM32_USB_Host_Library/Core/Src/usbh_ctlreq.c ****   if (phost->RequestState == CMD_SEND)
 2084              		.loc 1 281 1 is_stmt 1 view -0
 2085              		.cfi_startproc
 2086              		@ args = 0, pretend = 0, frame = 0
 2087              		@ frame_needed = 0, uses_anonymous_args = 0
 281:Middlewares/ST/STM32_USB_Host_Library/Core/Src/usbh_ctlreq.c ****   if (phost->RequestState == CMD_SEND)
 2088              		.loc 1 281 1 is_stmt 0 view .LVU691
 2089 0000 08B5     		push	{r3, lr}
 2090              	.LCFI27:
 2091              		.cfi_def_cfa_offset 8
 2092              		.cfi_offset 3, -8
 2093              		.cfi_offset 14, -4
 282:Middlewares/ST/STM32_USB_Host_Library/Core/Src/usbh_ctlreq.c ****   {
 2094              		.loc 1 282 3 is_stmt 1 view .LVU692
 282:Middlewares/ST/STM32_USB_Host_Library/Core/Src/usbh_ctlreq.c ****   {
 2095              		.loc 1 282 12 is_stmt 0 view .LVU693
 2096 0002 8378     		ldrb	r3, [r0, #2]	@ zero_extendqisi2
 282:Middlewares/ST/STM32_USB_Host_Library/Core/Src/usbh_ctlreq.c ****   {
 2097              		.loc 1 282 6 view .LVU694
 2098 0004 012B     		cmp	r3, #1
 2099 0006 04D0     		beq	.L176
 2100              	.L174:
 293:Middlewares/ST/STM32_USB_Host_Library/Core/Src/usbh_ctlreq.c **** }
 2101              		.loc 1 293 3 is_stmt 1 view .LVU695
 293:Middlewares/ST/STM32_USB_Host_Library/Core/Src/usbh_ctlreq.c **** }
 2102              		.loc 1 293 10 is_stmt 0 view .LVU696
 2103 0008 0022     		movs	r2, #0
 2104              	.LVL197:
 293:Middlewares/ST/STM32_USB_Host_Library/Core/Src/usbh_ctlreq.c **** }
ARM GAS  /tmp/ccxHAzXl.s 			page 68


 2105              		.loc 1 293 10 view .LVU697
 2106 000a 1146     		mov	r1, r2
 2107              	.LVL198:
 293:Middlewares/ST/STM32_USB_Host_Library/Core/Src/usbh_ctlreq.c **** }
 2108              		.loc 1 293 10 view .LVU698
 2109 000c FFF7FEFF 		bl	USBH_CtlReq
 2110              	.LVL199:
 294:Middlewares/ST/STM32_USB_Host_Library/Core/Src/usbh_ctlreq.c **** 
 2111              		.loc 1 294 1 view .LVU699
 2112 0010 08BD     		pop	{r3, pc}
 2113              	.LVL200:
 2114              	.L176:
 284:Middlewares/ST/STM32_USB_Host_Library/Core/Src/usbh_ctlreq.c ****                                            | USB_REQ_TYPE_STANDARD;
 2115              		.loc 1 284 5 is_stmt 1 view .LVU700
 284:Middlewares/ST/STM32_USB_Host_Library/Core/Src/usbh_ctlreq.c ****                                            | USB_REQ_TYPE_STANDARD;
 2116              		.loc 1 284 42 is_stmt 0 view .LVU701
 2117 0012 0374     		strb	r3, [r0, #16]
 287:Middlewares/ST/STM32_USB_Host_Library/Core/Src/usbh_ctlreq.c ****     phost->Control.setup.b.wValue.w = altSetting;
 2118              		.loc 1 287 5 is_stmt 1 view .LVU702
 287:Middlewares/ST/STM32_USB_Host_Library/Core/Src/usbh_ctlreq.c ****     phost->Control.setup.b.wValue.w = altSetting;
 2119              		.loc 1 287 37 is_stmt 0 view .LVU703
 2120 0014 0B23     		movs	r3, #11
 2121 0016 4374     		strb	r3, [r0, #17]
 288:Middlewares/ST/STM32_USB_Host_Library/Core/Src/usbh_ctlreq.c ****     phost->Control.setup.b.wIndex.w = ep_num;
 2122              		.loc 1 288 5 is_stmt 1 view .LVU704
 288:Middlewares/ST/STM32_USB_Host_Library/Core/Src/usbh_ctlreq.c ****     phost->Control.setup.b.wIndex.w = ep_num;
 2123              		.loc 1 288 37 is_stmt 0 view .LVU705
 2124 0018 4282     		strh	r2, [r0, #18]	@ movhi
 289:Middlewares/ST/STM32_USB_Host_Library/Core/Src/usbh_ctlreq.c ****     phost->Control.setup.b.wLength.w = 0U;
 2125              		.loc 1 289 5 is_stmt 1 view .LVU706
 289:Middlewares/ST/STM32_USB_Host_Library/Core/Src/usbh_ctlreq.c ****     phost->Control.setup.b.wLength.w = 0U;
 2126              		.loc 1 289 37 is_stmt 0 view .LVU707
 2127 001a 8182     		strh	r1, [r0, #20]	@ movhi
 290:Middlewares/ST/STM32_USB_Host_Library/Core/Src/usbh_ctlreq.c ****   }
 2128              		.loc 1 290 5 is_stmt 1 view .LVU708
 290:Middlewares/ST/STM32_USB_Host_Library/Core/Src/usbh_ctlreq.c ****   }
 2129              		.loc 1 290 38 is_stmt 0 view .LVU709
 2130 001c 0023     		movs	r3, #0
 2131 001e C382     		strh	r3, [r0, #22]	@ movhi
 2132 0020 F2E7     		b	.L174
 2133              		.cfi_endproc
 2134              	.LFE143:
 2136              		.section	.text.USBH_SetFeature,"ax",%progbits
 2137              		.align	1
 2138              		.global	USBH_SetFeature
 2139              		.syntax unified
 2140              		.thumb
 2141              		.thumb_func
 2143              	USBH_SetFeature:
 2144              	.LVL201:
 2145              	.LFB144:
 305:Middlewares/ST/STM32_USB_Host_Library/Core/Src/usbh_ctlreq.c ****   if (phost->RequestState == CMD_SEND)
 2146              		.loc 1 305 1 is_stmt 1 view -0
 2147              		.cfi_startproc
 2148              		@ args = 0, pretend = 0, frame = 0
 2149              		@ frame_needed = 0, uses_anonymous_args = 0
 305:Middlewares/ST/STM32_USB_Host_Library/Core/Src/usbh_ctlreq.c ****   if (phost->RequestState == CMD_SEND)
ARM GAS  /tmp/ccxHAzXl.s 			page 69


 2150              		.loc 1 305 1 is_stmt 0 view .LVU711
 2151 0000 08B5     		push	{r3, lr}
 2152              	.LCFI28:
 2153              		.cfi_def_cfa_offset 8
 2154              		.cfi_offset 3, -8
 2155              		.cfi_offset 14, -4
 306:Middlewares/ST/STM32_USB_Host_Library/Core/Src/usbh_ctlreq.c ****   {
 2156              		.loc 1 306 3 is_stmt 1 view .LVU712
 306:Middlewares/ST/STM32_USB_Host_Library/Core/Src/usbh_ctlreq.c ****   {
 2157              		.loc 1 306 12 is_stmt 0 view .LVU713
 2158 0002 8378     		ldrb	r3, [r0, #2]	@ zero_extendqisi2
 306:Middlewares/ST/STM32_USB_Host_Library/Core/Src/usbh_ctlreq.c ****   {
 2159              		.loc 1 306 6 view .LVU714
 2160 0004 012B     		cmp	r3, #1
 2161 0006 04D0     		beq	.L180
 2162              	.L178:
 317:Middlewares/ST/STM32_USB_Host_Library/Core/Src/usbh_ctlreq.c **** }
 2163              		.loc 1 317 3 is_stmt 1 view .LVU715
 317:Middlewares/ST/STM32_USB_Host_Library/Core/Src/usbh_ctlreq.c **** }
 2164              		.loc 1 317 10 is_stmt 0 view .LVU716
 2165 0008 0022     		movs	r2, #0
 2166 000a 1146     		mov	r1, r2
 2167              	.LVL202:
 317:Middlewares/ST/STM32_USB_Host_Library/Core/Src/usbh_ctlreq.c **** }
 2168              		.loc 1 317 10 view .LVU717
 2169 000c FFF7FEFF 		bl	USBH_CtlReq
 2170              	.LVL203:
 318:Middlewares/ST/STM32_USB_Host_Library/Core/Src/usbh_ctlreq.c **** 
 2171              		.loc 1 318 1 view .LVU718
 2172 0010 08BD     		pop	{r3, pc}
 2173              	.LVL204:
 2174              	.L180:
 308:Middlewares/ST/STM32_USB_Host_Library/Core/Src/usbh_ctlreq.c ****                                            | USB_REQ_TYPE_STANDARD;
 2175              		.loc 1 308 5 is_stmt 1 view .LVU719
 308:Middlewares/ST/STM32_USB_Host_Library/Core/Src/usbh_ctlreq.c ****                                            | USB_REQ_TYPE_STANDARD;
 2176              		.loc 1 308 42 is_stmt 0 view .LVU720
 2177 0012 0023     		movs	r3, #0
 2178 0014 0374     		strb	r3, [r0, #16]
 311:Middlewares/ST/STM32_USB_Host_Library/Core/Src/usbh_ctlreq.c ****     phost->Control.setup.b.wValue.w = wValue;
 2179              		.loc 1 311 5 is_stmt 1 view .LVU721
 311:Middlewares/ST/STM32_USB_Host_Library/Core/Src/usbh_ctlreq.c ****     phost->Control.setup.b.wValue.w = wValue;
 2180              		.loc 1 311 37 is_stmt 0 view .LVU722
 2181 0016 0322     		movs	r2, #3
 2182 0018 4274     		strb	r2, [r0, #17]
 312:Middlewares/ST/STM32_USB_Host_Library/Core/Src/usbh_ctlreq.c ****     phost->Control.setup.b.wIndex.w = 0U;
 2183              		.loc 1 312 5 is_stmt 1 view .LVU723
 312:Middlewares/ST/STM32_USB_Host_Library/Core/Src/usbh_ctlreq.c ****     phost->Control.setup.b.wIndex.w = 0U;
 2184              		.loc 1 312 37 is_stmt 0 view .LVU724
 2185 001a 4182     		strh	r1, [r0, #18]	@ movhi
 313:Middlewares/ST/STM32_USB_Host_Library/Core/Src/usbh_ctlreq.c ****     phost->Control.setup.b.wLength.w = 0U;
 2186              		.loc 1 313 5 is_stmt 1 view .LVU725
 313:Middlewares/ST/STM32_USB_Host_Library/Core/Src/usbh_ctlreq.c ****     phost->Control.setup.b.wLength.w = 0U;
 2187              		.loc 1 313 37 is_stmt 0 view .LVU726
 2188 001c 8382     		strh	r3, [r0, #20]	@ movhi
 314:Middlewares/ST/STM32_USB_Host_Library/Core/Src/usbh_ctlreq.c ****   }
 2189              		.loc 1 314 5 is_stmt 1 view .LVU727
 314:Middlewares/ST/STM32_USB_Host_Library/Core/Src/usbh_ctlreq.c ****   }
ARM GAS  /tmp/ccxHAzXl.s 			page 70


 2190              		.loc 1 314 38 is_stmt 0 view .LVU728
 2191 001e C382     		strh	r3, [r0, #22]	@ movhi
 2192 0020 F2E7     		b	.L178
 2193              		.cfi_endproc
 2194              	.LFE144:
 2196              		.section	.text.USBH_ClrFeature,"ax",%progbits
 2197              		.align	1
 2198              		.global	USBH_ClrFeature
 2199              		.syntax unified
 2200              		.thumb
 2201              		.thumb_func
 2203              	USBH_ClrFeature:
 2204              	.LVL205:
 2205              	.LFB145:
 330:Middlewares/ST/STM32_USB_Host_Library/Core/Src/usbh_ctlreq.c ****   if (phost->RequestState == CMD_SEND)
 2206              		.loc 1 330 1 is_stmt 1 view -0
 2207              		.cfi_startproc
 2208              		@ args = 0, pretend = 0, frame = 0
 2209              		@ frame_needed = 0, uses_anonymous_args = 0
 330:Middlewares/ST/STM32_USB_Host_Library/Core/Src/usbh_ctlreq.c ****   if (phost->RequestState == CMD_SEND)
 2210              		.loc 1 330 1 is_stmt 0 view .LVU730
 2211 0000 08B5     		push	{r3, lr}
 2212              	.LCFI29:
 2213              		.cfi_def_cfa_offset 8
 2214              		.cfi_offset 3, -8
 2215              		.cfi_offset 14, -4
 331:Middlewares/ST/STM32_USB_Host_Library/Core/Src/usbh_ctlreq.c ****   {
 2216              		.loc 1 331 3 is_stmt 1 view .LVU731
 331:Middlewares/ST/STM32_USB_Host_Library/Core/Src/usbh_ctlreq.c ****   {
 2217              		.loc 1 331 12 is_stmt 0 view .LVU732
 2218 0002 8378     		ldrb	r3, [r0, #2]	@ zero_extendqisi2
 331:Middlewares/ST/STM32_USB_Host_Library/Core/Src/usbh_ctlreq.c ****   {
 2219              		.loc 1 331 6 view .LVU733
 2220 0004 012B     		cmp	r3, #1
 2221 0006 04D0     		beq	.L184
 2222              	.L182:
 342:Middlewares/ST/STM32_USB_Host_Library/Core/Src/usbh_ctlreq.c **** }
 2223              		.loc 1 342 3 is_stmt 1 view .LVU734
 342:Middlewares/ST/STM32_USB_Host_Library/Core/Src/usbh_ctlreq.c **** }
 2224              		.loc 1 342 10 is_stmt 0 view .LVU735
 2225 0008 0022     		movs	r2, #0
 2226 000a 1146     		mov	r1, r2
 2227              	.LVL206:
 342:Middlewares/ST/STM32_USB_Host_Library/Core/Src/usbh_ctlreq.c **** }
 2228              		.loc 1 342 10 view .LVU736
 2229 000c FFF7FEFF 		bl	USBH_CtlReq
 2230              	.LVL207:
 343:Middlewares/ST/STM32_USB_Host_Library/Core/Src/usbh_ctlreq.c **** 
 2231              		.loc 1 343 1 view .LVU737
 2232 0010 08BD     		pop	{r3, pc}
 2233              	.LVL208:
 2234              	.L184:
 333:Middlewares/ST/STM32_USB_Host_Library/Core/Src/usbh_ctlreq.c ****                                            | USB_REQ_TYPE_STANDARD;
 2235              		.loc 1 333 5 is_stmt 1 view .LVU738
 333:Middlewares/ST/STM32_USB_Host_Library/Core/Src/usbh_ctlreq.c ****                                            | USB_REQ_TYPE_STANDARD;
 2236              		.loc 1 333 42 is_stmt 0 view .LVU739
 2237 0012 0223     		movs	r3, #2
ARM GAS  /tmp/ccxHAzXl.s 			page 71


 2238 0014 0374     		strb	r3, [r0, #16]
 336:Middlewares/ST/STM32_USB_Host_Library/Core/Src/usbh_ctlreq.c ****     phost->Control.setup.b.wValue.w = FEATURE_SELECTOR_ENDPOINT;
 2239              		.loc 1 336 5 is_stmt 1 view .LVU740
 336:Middlewares/ST/STM32_USB_Host_Library/Core/Src/usbh_ctlreq.c ****     phost->Control.setup.b.wValue.w = FEATURE_SELECTOR_ENDPOINT;
 2240              		.loc 1 336 37 is_stmt 0 view .LVU741
 2241 0016 0123     		movs	r3, #1
 2242 0018 4374     		strb	r3, [r0, #17]
 337:Middlewares/ST/STM32_USB_Host_Library/Core/Src/usbh_ctlreq.c ****     phost->Control.setup.b.wIndex.w = ep_num;
 2243              		.loc 1 337 5 is_stmt 1 view .LVU742
 337:Middlewares/ST/STM32_USB_Host_Library/Core/Src/usbh_ctlreq.c ****     phost->Control.setup.b.wIndex.w = ep_num;
 2244              		.loc 1 337 37 is_stmt 0 view .LVU743
 2245 001a 0023     		movs	r3, #0
 2246 001c 4382     		strh	r3, [r0, #18]	@ movhi
 338:Middlewares/ST/STM32_USB_Host_Library/Core/Src/usbh_ctlreq.c ****     phost->Control.setup.b.wLength.w = 0U;
 2247              		.loc 1 338 5 is_stmt 1 view .LVU744
 338:Middlewares/ST/STM32_USB_Host_Library/Core/Src/usbh_ctlreq.c ****     phost->Control.setup.b.wLength.w = 0U;
 2248              		.loc 1 338 37 is_stmt 0 view .LVU745
 2249 001e 8182     		strh	r1, [r0, #20]	@ movhi
 339:Middlewares/ST/STM32_USB_Host_Library/Core/Src/usbh_ctlreq.c ****   }
 2250              		.loc 1 339 5 is_stmt 1 view .LVU746
 339:Middlewares/ST/STM32_USB_Host_Library/Core/Src/usbh_ctlreq.c ****   }
 2251              		.loc 1 339 38 is_stmt 0 view .LVU747
 2252 0020 C382     		strh	r3, [r0, #22]	@ movhi
 2253 0022 F1E7     		b	.L182
 2254              		.cfi_endproc
 2255              	.LFE145:
 2257              		.text
 2258              	.Letext0:
 2259              		.file 2 "/usr/include/newlib/machine/_default_types.h"
 2260              		.file 3 "/usr/include/newlib/sys/_stdint.h"
 2261              		.file 4 "Middlewares/ST/STM32_USB_Host_Library/Core/Inc/usbh_def.h"
 2262              		.file 5 "Middlewares/ST/STM32_USB_Host_Library/Core/Inc/usbh_pipes.h"
 2263              		.file 6 "Middlewares/ST/STM32_USB_Host_Library/Core/Inc/usbh_ioreq.h"
 2264              		.file 7 "Middlewares/ST/STM32_USB_Host_Library/Core/Inc/usbh_core.h"
ARM GAS  /tmp/ccxHAzXl.s 			page 72


DEFINED SYMBOLS
                            *ABS*:00000000 usbh_ctlreq.c
     /tmp/ccxHAzXl.s:21     .text.USBH_ParseDevDesc:00000000 $t
     /tmp/ccxHAzXl.s:26     .text.USBH_ParseDevDesc:00000000 USBH_ParseDevDesc
     /tmp/ccxHAzXl.s:197    .text.USBH_ParseDevDesc:000000f0 $d
     /tmp/ccxHAzXl.s:202    .text.USBH_ParseInterfaceDesc:00000000 $t
     /tmp/ccxHAzXl.s:207    .text.USBH_ParseInterfaceDesc:00000000 USBH_ParseInterfaceDesc
     /tmp/ccxHAzXl.s:262    .text.USBH_ParseEPDesc:00000000 $t
     /tmp/ccxHAzXl.s:267    .text.USBH_ParseEPDesc:00000000 USBH_ParseEPDesc
     /tmp/ccxHAzXl.s:536    .text.USBH_ParseStringDesc:00000000 $t
     /tmp/ccxHAzXl.s:541    .text.USBH_ParseStringDesc:00000000 USBH_ParseStringDesc
     /tmp/ccxHAzXl.s:614    .text.USBH_HandleControl:00000000 $t
     /tmp/ccxHAzXl.s:619    .text.USBH_HandleControl:00000000 USBH_HandleControl
     /tmp/ccxHAzXl.s:650    .text.USBH_HandleControl:00000014 $d
     /tmp/ccxHAzXl.s:1127   .text.USBH_GetNextDesc:00000000 $t
     /tmp/ccxHAzXl.s:1133   .text.USBH_GetNextDesc:00000000 USBH_GetNextDesc
     /tmp/ccxHAzXl.s:1163   .text.USBH_ParseCfgDesc:00000000 $t
     /tmp/ccxHAzXl.s:1168   .text.USBH_ParseCfgDesc:00000000 USBH_ParseCfgDesc
     /tmp/ccxHAzXl.s:1521   .text.USBH_CtlReq:00000000 $t
     /tmp/ccxHAzXl.s:1527   .text.USBH_CtlReq:00000000 USBH_CtlReq
     /tmp/ccxHAzXl.s:1613   .text.USBH_GetDescriptor:00000000 $t
     /tmp/ccxHAzXl.s:1619   .text.USBH_GetDescriptor:00000000 USBH_GetDescriptor
     /tmp/ccxHAzXl.s:1690   .text.USBH_Get_DevDesc:00000000 $t
     /tmp/ccxHAzXl.s:1696   .text.USBH_Get_DevDesc:00000000 USBH_Get_DevDesc
     /tmp/ccxHAzXl.s:1777   .text.USBH_Get_CfgDesc:00000000 $t
     /tmp/ccxHAzXl.s:1783   .text.USBH_Get_CfgDesc:00000000 USBH_Get_CfgDesc
     /tmp/ccxHAzXl.s:1865   .text.USBH_Get_StringDesc:00000000 $t
     /tmp/ccxHAzXl.s:1871   .text.USBH_Get_StringDesc:00000000 USBH_Get_StringDesc
     /tmp/ccxHAzXl.s:1955   .text.USBH_SetAddress:00000000 $t
     /tmp/ccxHAzXl.s:1961   .text.USBH_SetAddress:00000000 USBH_SetAddress
     /tmp/ccxHAzXl.s:2015   .text.USBH_SetCfg:00000000 $t
     /tmp/ccxHAzXl.s:2021   .text.USBH_SetCfg:00000000 USBH_SetCfg
     /tmp/ccxHAzXl.s:2075   .text.USBH_SetInterface:00000000 $t
     /tmp/ccxHAzXl.s:2081   .text.USBH_SetInterface:00000000 USBH_SetInterface
     /tmp/ccxHAzXl.s:2137   .text.USBH_SetFeature:00000000 $t
     /tmp/ccxHAzXl.s:2143   .text.USBH_SetFeature:00000000 USBH_SetFeature
     /tmp/ccxHAzXl.s:2197   .text.USBH_ClrFeature:00000000 $t
     /tmp/ccxHAzXl.s:2203   .text.USBH_ClrFeature:00000000 USBH_ClrFeature
     /tmp/ccxHAzXl.s:661    .text.USBH_HandleControl:0000001f $d
     /tmp/ccxHAzXl.s:661    .text.USBH_HandleControl:00000020 $t

UNDEFINED SYMBOLS
USBH_CtlSendSetup
USBH_LL_GetURBState
USBH_CtlReceiveData
USBH_CtlSendData
USBH_FreePipe
